 PhysX3CharacterKinematicCHECKED_x64

 Timestamp is 5a770298 (Sun Feb  4 13:54:48 2018)

 Preferred load address is 0000000180000000

 Start         Length     Name                   Class
 0001:00000000 00008de0H .text$di                CODE
 0001:00008de0 0007cd60H .text$mn                CODE
 0001:00085b40 00001110H .text$mn$00             CODE
 0001:00086c50 000017e1H .text$x                 CODE
 0002:00000000 00000110H .CRT$XCA                DATA
 0002:00000110 00000140H .CRT$XCU                DATA
 0002:00000250 00000110H .CRT$XCZ                DATA
 0002:00000360 00000110H .CRT$XIA                DATA
 0002:00000470 00000130H .CRT$XIC                DATA
 0002:000005a0 00000110H .CRT$XIZ                DATA
 0002:000006b0 00000110H .CRT$XPA                DATA
 0002:000007c0 00000120H .CRT$XPX                DATA
 0002:000008e0 00000110H .CRT$XPXA               DATA
 0002:000009f0 00000110H .CRT$XPZ                DATA
 0002:00000b00 00000110H .CRT$XTA                DATA
 0002:00000c10 00000110H .CRT$XTZ                DATA
 0002:00000d20 0000d670H .rdata                  DATA
 0002:0000e390 000004ecH .rdata$r                DATA
 0002:0000e87c 0000019cH .rdata$zzzdbg           DATA
 0002:0000ea18 00000110H .rtc$IAA                DATA
 0002:0000eb28 00000110H .rtc$IZZ                DATA
 0002:0000ec38 00000110H .rtc$TAA                DATA
 0002:0000ed48 00000110H .rtc$TZZ                DATA
 0002:0000ee58 00007d18H .xdata                  DATA
 0002:00016b70 00000b14H .edata                  DATA
 0003:00000000 00000cd0H .data                   DATA
 0003:00000cd0 000003a0H .data$r                 DATA
 0003:00001070 00002001H .bss                    DATA
 0004:00000000 000059c4H .pdata                  DATA
 0005:00000000 000005b0H .idata$5                DATA
 0005:000005b0 0000003cH .idata$2                DATA
 0005:000005ec 00000014H .idata$3                DATA
 0005:00000600 000005b0H .idata$4                DATA
 0005:00000bb0 00001498H .idata$6                DATA
 0006:00000000 0000013fH .00cfg                  DATA
 0007:00000000 000001c0H .rsrc$01                DATA
 0007:000001c0 00000700H .rsrc$02                DATA

  Address         Publics by Value              Rva+Base               Lib:Object

 0000:00000000       ___safe_se_handler_table   0000000000000000     <absolute>
 0000:00000000       __hybrid_code_map_count    0000000000000000     <absolute>
 0000:00000000       ___safe_se_handler_count   0000000000000000     <absolute>
 0000:00000000       __guard_longjmp_table      0000000000000000     <absolute>
 0000:00000000       __hybrid_code_map          0000000000000000     <absolute>
 0000:00000000       __enclave_config           0000000000000000     <absolute>
 0000:00000000       __guard_fids_count         0000000000000000     <absolute>
 0000:00000000       __guard_iat_count          0000000000000000     <absolute>
 0000:00000000       __hybrid_auxiliary_iat     0000000000000000     <absolute>
 0000:00000000       __guard_longjmp_count      0000000000000000     <absolute>
 0000:00000000       __guard_iat_table          0000000000000000     <absolute>
 0000:00000000       __guard_fids_table         0000000000000000     <absolute>
 0000:00000000       __dynamic_value_reloc_table 0000000000000000     <absolute>
 0000:00000100       __guard_flags              0000000000000100     <absolute>
 0000:00000000       __ImageBase                0000000180000000     <linker-defined>
 0001:00008de0       ??0BoxController@Cct@physx@@QEAA@AEBVPxControllerDesc@2@AEAVPxPhysics@2@PEAVPxScene@2@@Z 0000000180009de0 f   CctBoxController.obj
 0001:00008ed0       ??1BoxController@Cct@physx@@UEAA@XZ 0000000180009ed0 f   CctBoxController.obj
 0001:00008f10       ?getWorldBox@BoxController@Cct@physx@@UEBA_NAEAUPxExtendedBounds3@3@@Z 0000000180009f10 f   CctBoxController.obj
 0001:00008fc0       ?setFootPosition@BoxController@Cct@physx@@UEAA_NAEBUPxExtendedVec3@3@@Z 0000000180009fc0 f   CctBoxController.obj
 0001:00009040       ?getFootPosition@BoxController@Cct@physx@@UEBA?AUPxExtendedVec3@3@XZ 000000018000a040 f   CctBoxController.obj
 0001:000090c0       ?invalidateCache@BoxController@Cct@physx@@UEAAXXZ 000000018000a0c0 f   CctBoxController.obj
 0001:00009120       ?resize@BoxController@Cct@physx@@UEAAXM@Z 000000018000a120 f   CctBoxController.obj
 0001:000091e0       ?getHalfHeight@BoxController@Cct@physx@@UEBAMXZ 000000018000a1e0 f   CctBoxController.obj
 0001:000091f0       ?getHalfSideExtent@BoxController@Cct@physx@@UEBAMXZ 000000018000a1f0 f   CctBoxController.obj
 0001:00009200       ?getHalfForwardExtent@BoxController@Cct@physx@@UEBAMXZ 000000018000a200 f   CctBoxController.obj
 0001:00009210       ?setHalfHeight@BoxController@Cct@physx@@UEAA_NM@Z 000000018000a210 f   CctBoxController.obj
 0001:00009230       ?setHalfSideExtent@BoxController@Cct@physx@@UEAA_NM@Z 000000018000a230 f   CctBoxController.obj
 0001:00009250       ?setHalfForwardExtent@BoxController@Cct@physx@@UEAA_NM@Z 000000018000a250 f   CctBoxController.obj
 0001:00009270       ?updateKinematicProxy@BoxController@Cct@physx@@QEAA_NXZ 000000018000a270 f   CctBoxController.obj
 0001:00009310       ?getOBB@BoxController@Cct@physx@@QEBAXAEAVPxExtendedBox@3@@Z 000000018000a310 f   CctBoxController.obj
 0001:00009590       ??0Allocator@shdfnd@physx@@QEAA@PEBD@Z 000000018000a590 f i CctBoxController.obj
 0001:000095a0       ??0PxControllerManager@physx@@IEAA@XZ 000000018000a5a0 f i CctBoxController.obj
 0001:000095c0       ??0PxControllerManager@physx@@QEAA@AEBV01@@Z 000000018000a5c0 f i CctBoxController.obj
 0001:000095e0       ??0PxFoundation@physx@@QEAA@AEBV01@@Z 000000018000a5e0 f i CctBoxController.obj
 0001:00009600       ??0PxFoundation@physx@@QEAA@XZ 000000018000a600 f i CctBoxController.obj
 0001:00009620       ??1PxBoxController@physx@@MEAA@XZ 000000018000a620 f i CctBoxController.obj
 0001:00009630       ??1PxController@physx@@MEAA@XZ 000000018000a630 f i CctBoxController.obj
 0001:00009640       ??1PxControllerManager@physx@@MEAA@XZ 000000018000a640 f i CctBoxController.obj
 0001:00009650       ??1PxFoundation@physx@@MEAA@XZ 000000018000a650 f i CctBoxController.obj
 0001:00009660       ??4Allocator@shdfnd@physx@@QEAAAEAV012@$$QEAV012@@Z 000000018000a660 f i CctBoxController.obj
 0001:00009670       ??4Allocator@shdfnd@physx@@QEAAAEAV012@AEBV012@@Z 000000018000a670 f i CctBoxController.obj
 0001:00009680       ??4MutexImpl@shdfnd@physx@@QEAAAEAV012@AEBV012@@Z 000000018000a680 f i CctBoxController.obj
 0001:00009690       ??4PxControllerManager@physx@@QEAAAEAV01@AEBV01@@Z 000000018000a690 f i CctBoxController.obj
 0001:000096a0       ??4PxFoundation@physx@@QEAAAEAV01@AEBV01@@Z 000000018000a6a0 f i CctBoxController.obj
 0001:000096a4       ??_EBoxController@Cct@physx@@W7EAAPEAXI@Z 000000018000a6a4 f i CctBoxController.obj
 0001:000096b0       ??_EPxControllerManager@physx@@MEAAPEAXI@Z 000000018000a6b0 f i CctBoxController.obj
 0001:00009760       ??_EPxFoundation@physx@@MEAAPEAXI@Z 000000018000a760 f i CctBoxController.obj
 0001:00009810       ??_FAllocator@shdfnd@physx@@QEAAXXZ 000000018000a810 f i CctBoxController.obj
 0001:00009820       ??_FNamedAllocator@shdfnd@physx@@QEAAXXZ 000000018000a820 f i CctBoxController.obj
 0001:00009830       ??_EBoxController@Cct@physx@@UEAAPEAXI@Z 000000018000a830 f i CctBoxController.obj
 0001:00009830       ??_GBoxController@Cct@physx@@UEAAPEAXI@Z 000000018000a830 f i CctBoxController.obj
 0001:000098d0       ??_GPxBoxController@physx@@MEAAPEAXI@Z 000000018000a8d0 f i CctBoxController.obj
 0001:000098d0       ??_EPxBoxController@physx@@MEAAPEAXI@Z 000000018000a8d0 f i CctBoxController.obj
 0001:00009910       ??_EPxController@physx@@MEAAPEAXI@Z 000000018000a910 f i CctBoxController.obj
 0001:00009910       ??_GPxController@physx@@MEAAPEAXI@Z 000000018000a910 f i CctBoxController.obj
 0001:00009950       ??_GPxControllerManager@physx@@MEAAPEAXI@Z 000000018000a950 f i CctBoxController.obj
 0001:00009990       ??_GPxFoundation@physx@@MEAAPEAXI@Z 000000018000a990 f i CctBoxController.obj
 0001:000099d0       ??_H@YAXPEAX_K1P6APEAX0@Z@Z 000000018000a9d0 f i CctBoxController.obj
 0001:00009a30       ??_I@YAXPEAX_K1P6AX0@Z@Z   000000018000aa30 f i CctBoxController.obj
 0001:00009aa0       ?__empty_global_delete@@YAXPEAX@Z 000000018000aaa0 f i CctBoxController.obj
 0001:00009ab0       ?__global_delete@@YAXPEAX_K@Z 000000018000aab0 f i CctBoxController.obj
 0001:00009ab0       ?__empty_global_delete@@YAXPEAX_K@Z 000000018000aab0 f i CctBoxController.obj
 0001:00009ac0       ?getActor@BoxController@Cct@physx@@UEBAPEAVPxRigidDynamic@3@XZ 000000018000aac0 f i CctBoxController.obj
 0001:00009ad0       ?getContactOffset@BoxController@Cct@physx@@UEBAMXZ 000000018000aad0 f i CctBoxController.obj
 0001:00009ae0       ?getHalfHeightInternal@BoxController@Cct@physx@@UEBAMXZ 000000018000aae0 f i CctBoxController.obj
 0001:00009af0       ?getNonWalkableMode@BoxController@Cct@physx@@UEBA?AW4Enum@PxControllerNonWalkableMode@3@XZ 000000018000aaf0 f i CctBoxController.obj
 0001:00009b00       ?getPosition@BoxController@Cct@physx@@UEBAAEBUPxExtendedVec3@3@XZ 000000018000ab00 f i CctBoxController.obj
 0001:00009b10       ?getPxController@BoxController@Cct@physx@@UEAAPEAVPxController@3@XZ 000000018000ab10 f i CctBoxController.obj
 0001:00009b20       ?getScene@BoxController@Cct@physx@@UEAAPEAVPxScene@3@XZ 000000018000ab20 f i CctBoxController.obj
 0001:00009b30       ?getSlopeLimit@BoxController@Cct@physx@@UEBAMXZ 000000018000ab30 f i CctBoxController.obj
 0001:00009b40       ?getState@BoxController@Cct@physx@@UEBAXAEAUPxControllerState@3@@Z 000000018000ab40 f i CctBoxController.obj
 0001:00009b50       ?getStats@BoxController@Cct@physx@@UEBAXAEAUPxControllerStats@3@@Z 000000018000ab50 f i CctBoxController.obj
 0001:00009b60       ?getStepOffset@BoxController@Cct@physx@@UEBAMXZ 000000018000ab60 f i CctBoxController.obj
 0001:00009b70       ?getType@BoxController@Cct@physx@@UEBA?AW4Enum@PxControllerShapeType@3@XZ 000000018000ab70 f i CctBoxController.obj
 0001:00009b80       ?getUpDirection@BoxController@Cct@physx@@UEBA?AVPxVec3@3@XZ 000000018000ab80 f i CctBoxController.obj
 0001:00009ba0       ?getUserData@BoxController@Cct@physx@@UEBAPEAXXZ 000000018000aba0 f i CctBoxController.obj
 0001:00009bb0       ?release@BoxController@Cct@physx@@UEAAXXZ 000000018000abb0 f i CctBoxController.obj
 0001:00009bc0       ?setContactOffset@BoxController@Cct@physx@@UEAAXM@Z 000000018000abc0 f i CctBoxController.obj
 0001:00009be0       ?setNonWalkableMode@BoxController@Cct@physx@@UEAAXW4Enum@PxControllerNonWalkableMode@3@@Z 000000018000abe0 f i CctBoxController.obj
 0001:00009bf0       ?setPosition@BoxController@Cct@physx@@UEAA_NAEBUPxExtendedVec3@3@@Z 000000018000abf0 f i CctBoxController.obj
 0001:00009c00       ?setSlopeLimit@BoxController@Cct@physx@@UEAAXM@Z 000000018000ac00 f i CctBoxController.obj
 0001:00009c20       ?setStepOffset@BoxController@Cct@physx@@UEAAXM@Z 000000018000ac20 f i CctBoxController.obj
 0001:00009c40       ?setUpDirection@BoxController@Cct@physx@@UEAAXAEBVPxVec3@3@@Z 000000018000ac40 f i CctBoxController.obj
 0001:00009c50       ?setUserData@BoxController@Cct@physx@@UEAAXPEAX@Z 000000018000ac50 f i CctBoxController.obj
 0001:00009c60       ??0CapsuleController@Cct@physx@@QEAA@AEBVPxControllerDesc@2@AEAVPxPhysics@2@PEAVPxScene@2@@Z 000000018000ac60 f   CctCapsuleController.obj
 0001:00009d50       ??1CapsuleController@Cct@physx@@UEAA@XZ 000000018000ad50 f   CctCapsuleController.obj
 0001:00009d90       ?getWorldBox@CapsuleController@Cct@physx@@UEBA_NAEAUPxExtendedBounds3@3@@Z 000000018000ad90 f   CctCapsuleController.obj
 0001:00009e40       ?setFootPosition@CapsuleController@Cct@physx@@UEAA_NAEBUPxExtendedVec3@3@@Z 000000018000ae40 f   CctCapsuleController.obj
 0001:00009ed0       ?getFootPosition@CapsuleController@Cct@physx@@UEBA?AUPxExtendedVec3@3@XZ 000000018000aed0 f   CctCapsuleController.obj
 0001:00009f60       ?invalidateCache@CapsuleController@Cct@physx@@UEAAXXZ 000000018000af60 f   CctCapsuleController.obj
 0001:00009fc0       ?resize@CapsuleController@Cct@physx@@UEAAXM@Z 000000018000afc0 f   CctCapsuleController.obj
 0001:0000a090       ?getClimbingMode@CapsuleController@Cct@physx@@UEBA?AW4Enum@PxCapsuleClimbingMode@3@XZ 000000018000b090 f   CctCapsuleController.obj
 0001:0000a0a0       ?setRadius@CapsuleController@Cct@physx@@UEAA_NM@Z 000000018000b0a0 f   CctCapsuleController.obj
 0001:0000a130       ?setHeight@CapsuleController@Cct@physx@@UEAA_NM@Z 000000018000b130 f   CctCapsuleController.obj
 0001:0000a1d0       ?setClimbingMode@CapsuleController@Cct@physx@@UEAA_NW4Enum@PxCapsuleClimbingMode@3@@Z 000000018000b1d0 f   CctCapsuleController.obj
 0001:0000a1f0       ?getCapsule@CapsuleController@Cct@physx@@QEBAXAEAUPxExtendedCapsule@3@@Z 000000018000b1f0 f   CctCapsuleController.obj
 0001:0000a470       ??1PxCapsuleController@physx@@MEAA@XZ 000000018000b470 f i CctCapsuleController.obj
 0001:0000a480       ??_ECapsuleController@Cct@physx@@W7EAAPEAXI@Z 000000018000b480 f i CctCapsuleController.obj
 0001:0000a490       ??_ECapsuleController@Cct@physx@@UEAAPEAXI@Z 000000018000b490 f i CctCapsuleController.obj
 0001:0000a490       ??_GCapsuleController@Cct@physx@@UEAAPEAXI@Z 000000018000b490 f i CctCapsuleController.obj
 0001:0000a530       ??_EPxCapsuleController@physx@@MEAAPEAXI@Z 000000018000b530 f i CctCapsuleController.obj
 0001:0000a530       ??_GPxCapsuleController@physx@@MEAAPEAXI@Z 000000018000b530 f i CctCapsuleController.obj
 0001:0000a570       ?getActor@CapsuleController@Cct@physx@@UEBAPEAVPxRigidDynamic@3@XZ 000000018000b570 f i CctCapsuleController.obj
 0001:0000a580       ?getContactOffset@CapsuleController@Cct@physx@@UEBAMXZ 000000018000b580 f i CctCapsuleController.obj
 0001:0000a590       ?getHalfHeightInternal@CapsuleController@Cct@physx@@UEBAMXZ 000000018000b590 f i CctCapsuleController.obj
 0001:0000a5b0       ?getHeight@CapsuleController@Cct@physx@@UEBAMXZ 000000018000b5b0 f i CctCapsuleController.obj
 0001:0000a5c0       ?getNonWalkableMode@CapsuleController@Cct@physx@@UEBA?AW4Enum@PxControllerNonWalkableMode@3@XZ 000000018000b5c0 f i CctCapsuleController.obj
 0001:0000a5d0       ?getPosition@CapsuleController@Cct@physx@@UEBAAEBUPxExtendedVec3@3@XZ 000000018000b5d0 f i CctCapsuleController.obj
 0001:0000a5e0       ?getPxController@CapsuleController@Cct@physx@@UEAAPEAVPxController@3@XZ 000000018000b5e0 f i CctCapsuleController.obj
 0001:0000a5f0       ?getRadius@CapsuleController@Cct@physx@@UEBAMXZ 000000018000b5f0 f i CctCapsuleController.obj
 0001:0000a600       ?getScene@CapsuleController@Cct@physx@@UEAAPEAVPxScene@3@XZ 000000018000b600 f i CctCapsuleController.obj
 0001:0000a610       ?getSlopeLimit@CapsuleController@Cct@physx@@UEBAMXZ 000000018000b610 f i CctCapsuleController.obj
 0001:0000a620       ?getState@CapsuleController@Cct@physx@@UEBAXAEAUPxControllerState@3@@Z 000000018000b620 f i CctCapsuleController.obj
 0001:0000a630       ?getStats@CapsuleController@Cct@physx@@UEBAXAEAUPxControllerStats@3@@Z 000000018000b630 f i CctCapsuleController.obj
 0001:0000a640       ?getStepOffset@CapsuleController@Cct@physx@@UEBAMXZ 000000018000b640 f i CctCapsuleController.obj
 0001:0000a650       ?getType@CapsuleController@Cct@physx@@UEBA?AW4Enum@PxControllerShapeType@3@XZ 000000018000b650 f i CctCapsuleController.obj
 0001:0000a660       ?getUpDirection@CapsuleController@Cct@physx@@UEBA?AVPxVec3@3@XZ 000000018000b660 f i CctCapsuleController.obj
 0001:0000a680       ?getUserData@CapsuleController@Cct@physx@@UEBAPEAXXZ 000000018000b680 f i CctCapsuleController.obj
 0001:0000a690       ?release@CapsuleController@Cct@physx@@UEAAXXZ 000000018000b690 f i CctCapsuleController.obj
 0001:0000a6a0       ?setContactOffset@CapsuleController@Cct@physx@@UEAAXM@Z 000000018000b6a0 f i CctCapsuleController.obj
 0001:0000a6c0       ?setNonWalkableMode@CapsuleController@Cct@physx@@UEAAXW4Enum@PxControllerNonWalkableMode@3@@Z 000000018000b6c0 f i CctCapsuleController.obj
 0001:0000a6d0       ?setPosition@CapsuleController@Cct@physx@@UEAA_NAEBUPxExtendedVec3@3@@Z 000000018000b6d0 f i CctCapsuleController.obj
 0001:0000a6e0       ?setSlopeLimit@CapsuleController@Cct@physx@@UEAAXM@Z 000000018000b6e0 f i CctCapsuleController.obj
 0001:0000a700       ?setStepOffset@CapsuleController@Cct@physx@@UEAAXM@Z 000000018000b700 f i CctCapsuleController.obj
 0001:0000a720       ?setUpDirection@CapsuleController@Cct@physx@@UEAAXAEBVPxVec3@3@@Z 000000018000b720 f i CctCapsuleController.obj
 0001:0000a730       ?setUserData@CapsuleController@Cct@physx@@UEAAXPEAX@Z 000000018000b730 f i CctCapsuleController.obj
 0001:0000a740       ??0CCTParams@Cct@physx@@QEAA@XZ 000000018000b740 f   CctCharacterController.obj
 0001:0000a780       ??0SweepTest@Cct@physx@@QEAA@_N@Z 000000018000b780 f   CctCharacterController.obj
 0001:0000a990       ??1SweepTest@Cct@physx@@QEAA@XZ 000000018000b990 f   CctCharacterController.obj
 0001:0000aa70       ?moveCharacter@SweepTest@Cct@physx@@QEAA?AV?$PxFlags@W4Enum@PxControllerCollisionFlag@physx@@E@3@PEBUInternalCBData_FindTouchedGeom@23@PEAUInternalCBData_OnHit@23@AEAVSweptVolume@23@AEBVPxVec3@3@AEBUUserObstacles@23@MAEBVPxControllerFilters@3@_N6AEAPEBVPxRigidActor@3@AEAPEBVPxShape@3@_K@Z 000000018000ba70 f   CctCharacterController.obj
 0001:0000b610       ?doSweepTest@SweepTest@Cct@physx@@QEAA_NPEBUInternalCBData_FindTouchedGeom@23@PEAUInternalCBData_OnHit@23@AEBUUserObstacles@23@AEAVSweptVolume@23@AEBVPxVec3@3@4IPEAIMAEBVPxControllerFilters@3@W4SweepPass@23@AEAPEBVPxRigidActor@3@AEAPEBVPxShape@3@_K@Z 000000018000c610 f   CctCharacterController.obj
 0001:0000c670       ?findTouchedObstacles@SweepTest@Cct@physx@@QEAAXAEBUUserObstacles@23@AEBUPxExtendedBounds3@3@@Z 000000018000d670 f   CctCharacterController.obj
 0001:0000cda0       ?voidTestCache@SweepTest@Cct@physx@@QEAAXXZ 000000018000dda0 f   CctCharacterController.obj
 0001:0000ce50       ?onRelease@SweepTest@Cct@physx@@QEAAXAEBVPxBase@3@@Z 000000018000de50 f   CctCharacterController.obj
 0001:0000cf60       ?updateCachedShapesRegistration@SweepTest@Cct@physx@@QEAAXI_N@Z 000000018000df60 f   CctCharacterController.obj
 0001:0000d010       ?onObstacleRemoved@SweepTest@Cct@physx@@QEAAXI@Z 000000018000e010 f   CctCharacterController.obj
 0001:0000d030       ?onObstacleUpdated@SweepTest@Cct@physx@@QEAAXIPEBVPxObstacleContext@3@AEBVPxVec3@3@1M@Z 000000018000e030 f   CctCharacterController.obj
 0001:0000d160       ?onObstacleAdded@SweepTest@Cct@physx@@QEAAXIPEBVPxObstacleContext@3@AEBVPxVec3@3@1M@Z 000000018000e160 f   CctCharacterController.obj
 0001:0000d310       ?onOriginShift@SweepTest@Cct@physx@@QEAAXAEBVPxVec3@3@@Z 000000018000e310 f   CctCharacterController.obj
 0001:0000d4b0       ?updateTouchedGeoms@SweepTest@Cct@physx@@AEAAXPEBUInternalCBData_FindTouchedGeom@23@AEBUUserObstacles@23@AEBUPxExtendedBounds3@3@AEBVPxControllerFilters@3@AEBVPxVec3@3@@Z 000000018000e4b0 f   CctCharacterController.obj
 0001:0000de20       ?findTouchedObject@Controller@Cct@physx@@IEAAXAEBVPxControllerFilters@3@PEBVPxObstacleContext@3@AEBVPxVec3@3@@Z 000000018000ee20 f   CctCharacterController.obj
 0001:0000e590       ?rideOnTouchedObject@Controller@Cct@physx@@IEAA_NAEAVSweptVolume@23@AEBVPxVec3@3@AEAV53@PEBVPxObstacleContext@3@@Z 000000018000f590 f   CctCharacterController.obj
 0001:0000ec60       ?move@Controller@Cct@physx@@IEAA?AV?$PxFlags@W4Enum@PxControllerCollisionFlag@physx@@E@3@AEAVSweptVolume@23@AEBVPxVec3@3@MMAEBVPxControllerFilters@3@PEBVPxObstacleContext@3@_N@Z 000000018000fc60 f   CctCharacterController.obj
 0001:0000fdc0       ?filterTouchedShape@Controller@Cct@physx@@IEAA_NAEBVPxControllerFilters@3@@Z 0000000180010dc0 f   CctCharacterController.obj
 0001:00011650       ?move@BoxController@Cct@physx@@UEAA?AV?$PxFlags@W4Enum@PxControllerCollisionFlag@physx@@E@3@AEBVPxVec3@3@MMAEBVPxControllerFilters@3@PEBVPxObstacleContext@3@@Z 0000000180012650 f   CctCharacterController.obj
 0001:00011810       ?move@CapsuleController@Cct@physx@@UEAA?AV?$PxFlags@W4Enum@PxControllerCollisionFlag@physx@@E@3@AEBVPxVec3@3@MMAEBVPxControllerFilters@3@PEBVPxObstacleContext@3@@Z 0000000180012810 f   CctCharacterController.obj
 0001:000136e0       ??0PxMat33@physx@@QEAA@AEBV01@@Z 00000001800146e0 f i CctCharacterController.obj
 0001:00013730       ??0PxVec3@physx@@QEAA@XZ   0000000180014730 f i CctCharacterController.obj
 0001:00013740       ??1?$PxHitBuffer@UPxRaycastHit@physx@@@physx@@UEAA@XZ 0000000180014740 f i CctCharacterController.obj
 0001:00013750       ??1?$PxHitCallback@UPxRaycastHit@physx@@@physx@@UEAA@XZ 0000000180014750 f i CctCharacterController.obj
 0001:00013760       ??1PxQueryFilterCallback@physx@@UEAA@XZ 0000000180014760 f i CctCharacterController.obj
 0001:00013770       ??4FPUGuard@shdfnd@physx@@QEAAAEAV012@AEBV012@@Z 0000000180014770 f i CctCharacterController.obj
 0001:00013790       ??DPxQuat@physx@@QEBA?AV01@AEBV01@@Z 0000000180014790 f i CctCharacterController.obj
 0001:00013910       ??_G?$PxHitBuffer@UPxRaycastHit@physx@@@physx@@UEAAPEAXI@Z 0000000180014910 f i CctCharacterController.obj
 0001:00013910       ??_E?$PxHitBuffer@UPxRaycastHit@physx@@@physx@@UEAAPEAXI@Z 0000000180014910 f i CctCharacterController.obj
 0001:00013950       ??_G?$PxHitCallback@UPxRaycastHit@physx@@@physx@@UEAAPEAXI@Z 0000000180014950 f i CctCharacterController.obj
 0001:00013950       ??_E?$PxHitCallback@UPxRaycastHit@physx@@@physx@@UEAAPEAXI@Z 0000000180014950 f i CctCharacterController.obj
 0001:00013990       ??_EControllerFilter@@UEAAPEAXI@Z 0000000180014990 f i CctCharacterController.obj
 0001:00013990       ??_GControllerFilter@@UEAAPEAXI@Z 0000000180014990 f i CctCharacterController.obj
 0001:000139d0       ??_GPxQueryFilterCallback@physx@@UEAAPEAXI@Z 00000001800149d0 f i CctCharacterController.obj
 0001:000139d0       ??_EPxQueryFilterCallback@physx@@UEAAPEAXI@Z 00000001800149d0 f i CctCharacterController.obj
 0001:00014390       ?finalizeQuery@?$PxHitCallback@UPxRaycastHit@physx@@@physx@@UEAAXXZ 0000000180015390 f i CctCharacterController.obj
 0001:000143a0       ?growAndPushBack@?$Array@PEBXVNamedAllocator@shdfnd@physx@@@shdfnd@physx@@IEAAAEAPEBXAEBQEBX@Z 00000001800153a0 f i CctCharacterController.obj
 0001:000144d0       ?growAndPushBack@?$Array@UPxExtendedCapsule@physx@@VNamedAllocator@shdfnd@2@@shdfnd@physx@@IEAAAEAUPxExtendedCapsule@3@AEBU43@@Z 00000001800154d0 f i CctCharacterController.obj
 0001:00014630       ?growAndPushBack@?$Array@VPxExtendedBox@physx@@VNamedAllocator@shdfnd@2@@shdfnd@physx@@IEAAAEAVPxExtendedBox@3@AEBV43@@Z 0000000180015630 f i CctCharacterController.obj
 0001:00014a20       ?postFilter@ControllerFilter@@UEAA?AW4Enum@PxQueryHitType@physx@@AEBUPxFilterData@4@AEBUPxQueryHit@4@@Z 0000000180015a20 f i CctCharacterController.obj
 0001:00014a40       ?preFilter@ControllerFilter@@UEAA?AW4Enum@PxQueryHitType@physx@@AEBUPxFilterData@4@PEBVPxShape@4@PEBVPxRigidActor@4@AEAV?$PxFlags@W4Enum@PxHitFlag@physx@@G@4@@Z 0000000180015a40 f i CctCharacterController.obj
 0001:00014bb0       ?processTouches@?$PxHitBuffer@UPxRaycastHit@physx@@@physx@@MEAA_NPEBUPxRaycastHit@2@I@Z 0000000180015bb0 f i CctCharacterController.obj
 0001:00014bc0       ?recreate@?$Array@IVNamedAllocator@shdfnd@physx@@@shdfnd@physx@@IEAAXI@Z 0000000180015bc0 f i CctCharacterController.obj
 0001:000150d0       ?getSceneTimestamp@Cct@physx@@YAIPEBUInternalCBData_FindTouchedGeom@12@@Z 00000001800160d0 f   CctCharacterControllerCallbacks.obj
 0001:000150f0       ?findTouchedGeometry@Cct@physx@@YAXPEBUInternalCBData_FindTouchedGeom@12@AEBUPxExtendedBounds3@2@AEAVTriArray@12@AEAV?$Array@IVNamedAllocator@shdfnd@physx@@@shdfnd@2@3AEBVCCTFilter@12@AEBUCCTParams@12@AEAG@Z 00000001800160f0 f   CctCharacterControllerCallbacks.obj
 0001:00016110       ?shapeHitCallback@Cct@physx@@YAIPEBUInternalCBData_OnHit@12@AEBUSweptContact@12@AEBVPxVec3@2@M@Z 0000000180017110 f   CctCharacterControllerCallbacks.obj
 0001:00016220       ?userHitCallback@Cct@physx@@YAIPEBUInternalCBData_OnHit@12@AEBUSweptContact@12@AEBVPxVec3@2@M@Z 0000000180017220 f   CctCharacterControllerCallbacks.obj
 0001:00016990       ??0PxOverlapHit@physx@@QEAA@XZ 0000000180017990 f i CctCharacterControllerCallbacks.obj
 0001:000169b0       ??1?$PxHitBuffer@UPxOverlapHit@physx@@@physx@@UEAA@XZ 00000001800179b0 f i CctCharacterControllerCallbacks.obj
 0001:000169c0       ??1?$PxHitCallback@UPxOverlapHit@physx@@@physx@@UEAA@XZ 00000001800179c0 f i CctCharacterControllerCallbacks.obj
 0001:000169d0       ??_G?$PxHitBuffer@UPxOverlapHit@physx@@@physx@@UEAAPEAXI@Z 00000001800179d0 f i CctCharacterControllerCallbacks.obj
 0001:000169d0       ??_E?$PxHitBuffer@UPxOverlapHit@physx@@@physx@@UEAAPEAXI@Z 00000001800179d0 f i CctCharacterControllerCallbacks.obj
 0001:00016a10       ??_E?$PxHitCallback@UPxOverlapHit@physx@@@physx@@UEAAPEAXI@Z 0000000180017a10 f i CctCharacterControllerCallbacks.obj
 0001:00016a10       ??_G?$PxHitCallback@UPxOverlapHit@physx@@@physx@@UEAAPEAXI@Z 0000000180017a10 f i CctCharacterControllerCallbacks.obj
 0001:00017220       ?finalizeQuery@?$PxHitCallback@UPxOverlapHit@physx@@@physx@@UEAAXXZ 0000000180018220 f i CctCharacterControllerCallbacks.obj
 0001:00017230       ?growAndPushBack@?$Array@IVNamedAllocator@shdfnd@physx@@@shdfnd@physx@@IEAAAEAIAEBI@Z 0000000180018230 f i CctCharacterControllerCallbacks.obj
 0001:0001b960       ?processTouches@?$PxHitBuffer@UPxOverlapHit@physx@@@physx@@MEAA_NPEBUPxOverlapHit@2@I@Z 000000018001c960 f i CctCharacterControllerCallbacks.obj
 0001:0001b970       ?recreate@?$Array@VPxTriangle@physx@@VNamedAllocator@shdfnd@2@@shdfnd@physx@@IEAAXI@Z 000000018001c970 f i CctCharacterControllerCallbacks.obj
 0001:0001c3f0       PxCreateControllerManager  000000018001d3f0 f   CctCharacterControllerManager.obj
 0001:0001c4a0       ??0CharacterControllerManager@Cct@physx@@QEAA@AEAVPxScene@2@_N@Z 000000018001d4a0 f   CctCharacterControllerManager.obj
 0001:0001c730       ??1CharacterControllerManager@Cct@physx@@UEAA@XZ 000000018001d730 f   CctCharacterControllerManager.obj
 0001:0001c8e0       ?release@CharacterControllerManager@Cct@physx@@UEAAXXZ 000000018001d8e0 f   CctCharacterControllerManager.obj
 0001:0001cb40       ?getScene@CharacterControllerManager@Cct@physx@@UEBAAEAVPxScene@3@XZ 000000018001db40 f   CctCharacterControllerManager.obj
 0001:0001cb50       ?getNbControllers@CharacterControllerManager@Cct@physx@@UEBAIXZ 000000018001db50 f   CctCharacterControllerManager.obj
 0001:0001cb60       ?getController@CharacterControllerManager@Cct@physx@@UEAAPEAVPxController@3@I@Z 000000018001db60 f   CctCharacterControllerManager.obj
 0001:0001cbc0       ?createController@CharacterControllerManager@Cct@physx@@UEAAPEAVPxController@3@AEBVPxControllerDesc@3@@Z 000000018001dbc0 f   CctCharacterControllerManager.obj
 0001:0001cde0       ?purgeControllers@CharacterControllerManager@Cct@physx@@UEAAXXZ 000000018001dde0 f   CctCharacterControllerManager.obj
 0001:0001cfe0       ?getRenderBuffer@CharacterControllerManager@Cct@physx@@UEAAAEAVPxRenderBuffer@3@XZ 000000018001dfe0 f   CctCharacterControllerManager.obj
 0001:0001d1b0       ?setDebugRenderingFlags@CharacterControllerManager@Cct@physx@@UEAAXV?$PxFlags@W4Enum@PxControllerDebugRenderFlag@physx@@I@3@@Z 000000018001e1b0 f   CctCharacterControllerManager.obj
 0001:0001d1f0       ?getNbObstacleContexts@CharacterControllerManager@Cct@physx@@UEBAIXZ 000000018001e1f0 f   CctCharacterControllerManager.obj
 0001:0001d200       ?getObstacleContext@CharacterControllerManager@Cct@physx@@UEAAPEAVPxObstacleContext@3@I@Z 000000018001e200 f   CctCharacterControllerManager.obj
 0001:0001d260       ?createObstacleContext@CharacterControllerManager@Cct@physx@@UEAAPEAVPxObstacleContext@3@XZ 000000018001e260 f   CctCharacterControllerManager.obj
 0001:0001d340       ?computeInteractions@CharacterControllerManager@Cct@physx@@UEAAXMPEAVPxControllerFilterCallback@3@@Z 000000018001e340 f   CctCharacterControllerManager.obj
 0001:0001d580       ?setTessellation@CharacterControllerManager@Cct@physx@@UEAAX_NM@Z 000000018001e580 f   CctCharacterControllerManager.obj
 0001:0001d5a0       ?setOverlapRecoveryModule@CharacterControllerManager@Cct@physx@@UEAAX_N@Z 000000018001e5a0 f   CctCharacterControllerManager.obj
 0001:0001d5b0       ?setPreciseSweeps@CharacterControllerManager@Cct@physx@@UEAAX_N@Z 000000018001e5b0 f   CctCharacterControllerManager.obj
 0001:0001d5c0       ?setPreventVerticalSlidingAgainstCeiling@CharacterControllerManager@Cct@physx@@UEAAX_N@Z 000000018001e5c0 f   CctCharacterControllerManager.obj
 0001:0001d5d0       ?shiftOrigin@CharacterControllerManager@Cct@physx@@UEAAXAEBVPxVec3@3@@Z 000000018001e5d0 f   CctCharacterControllerManager.obj
 0001:0001d6a0       ?onRelease@CharacterControllerManager@Cct@physx@@UEAAXPEBVPxBase@3@PEAXW4Enum@PxDeletionEventFlag@3@@Z 000000018001e6a0 f   CctCharacterControllerManager.obj
 0001:0001d830       ?registerObservedObject@CharacterControllerManager@Cct@physx@@QEAAXPEBVPxBase@3@@Z 000000018001e830 f   CctCharacterControllerManager.obj
 0001:0001d8c0       ?unregisterObservedObject@CharacterControllerManager@Cct@physx@@QEAAXPEBVPxBase@3@@Z 000000018001e8c0 f   CctCharacterControllerManager.obj
 0001:0001d960       ?onObstacleRemoved@CharacterControllerManager@Cct@physx@@QEBAXI@Z 000000018001e960 f   CctCharacterControllerManager.obj
 0001:0001d9b0       ?onObstacleUpdated@CharacterControllerManager@Cct@physx@@QEBAXIPEBVPxObstacleContext@3@@Z 000000018001e9b0 f   CctCharacterControllerManager.obj
 0001:0001dad0       ?onObstacleAdded@CharacterControllerManager@Cct@physx@@QEBAXIPEBVPxObstacleContext@3@@Z 000000018001ead0 f   CctCharacterControllerManager.obj
 0001:0001dbf0       ?releaseController@CharacterControllerManager@Cct@physx@@QEAAXAEAVPxController@3@@Z 000000018001ebf0 f   CctCharacterControllerManager.obj
 0001:0001ddb0       ?getControllers@CharacterControllerManager@Cct@physx@@QEAAPEAPEAVController@23@XZ 000000018001edb0 f   CctCharacterControllerManager.obj
 0001:0001ddc0       ?releaseObstacleContext@CharacterControllerManager@Cct@physx@@QEAAXAEAVObstacleContext@23@@Z 000000018001edc0 f   CctCharacterControllerManager.obj
 0001:0001de30       ?resetObstaclesBuffers@CharacterControllerManager@Cct@physx@@QEAAXXZ 000000018001ee30 f   CctCharacterControllerManager.obj
 0001:0001e640       ??$resetOrClear@V?$Array@PEBXVNamedAllocator@shdfnd@physx@@@shdfnd@physx@@@@YAXAEAV?$Array@PEBXVNamedAllocator@shdfnd@physx@@@shdfnd@physx@@@Z 000000018001f640 f i CctCharacterControllerManager.obj
 0001:0001e6b0       ??$resetOrClear@V?$Array@UPxExtendedCapsule@physx@@VNamedAllocator@shdfnd@2@@shdfnd@physx@@@@YAXAEAV?$Array@UPxExtendedCapsule@physx@@VNamedAllocator@shdfnd@2@@shdfnd@physx@@@Z 000000018001f6b0 f i CctCharacterControllerManager.obj
 0001:0001e740       ??$resetOrClear@V?$Array@VPxExtendedBox@physx@@VNamedAllocator@shdfnd@2@@shdfnd@physx@@@@YAXAEAV?$Array@VPxExtendedBox@physx@@VNamedAllocator@shdfnd@2@@shdfnd@physx@@@Z 000000018001f740 f i CctCharacterControllerManager.obj
 0001:0001e7a0       ??1PxDeletionListener@physx@@MEAA@XZ 000000018001f7a0 f i CctCharacterControllerManager.obj
 0001:0001e7b0       ??1PxRenderBuffer@physx@@UEAA@XZ 000000018001f7b0 f i CctCharacterControllerManager.obj
 0001:0001e7c0       ??_ECharacterControllerManager@Cct@physx@@W7EAAPEAXI@Z 000000018001f7c0 f i CctCharacterControllerManager.obj
 0001:0001e7d0       ??_GCharacterControllerManager@Cct@physx@@UEAAPEAXI@Z 000000018001f7d0 f i CctCharacterControllerManager.obj
 0001:0001e7d0       ??_ECharacterControllerManager@Cct@physx@@UEAAPEAXI@Z 000000018001f7d0 f i CctCharacterControllerManager.obj
 0001:0001e850       ??_EPxDeletionListener@physx@@MEAAPEAXI@Z 000000018001f850 f i CctCharacterControllerManager.obj
 0001:0001e850       ??_GPxDeletionListener@physx@@MEAAPEAXI@Z 000000018001f850 f i CctCharacterControllerManager.obj
 0001:0001e890       ??_EPxRenderBuffer@physx@@UEAAPEAXI@Z 000000018001f890 f i CctCharacterControllerManager.obj
 0001:0001e890       ??_GPxRenderBuffer@physx@@UEAAPEAXI@Z 000000018001f890 f i CctCharacterControllerManager.obj
 0001:0001e8d0       ??_ERenderBuffer@Cm@physx@@UEAAPEAXI@Z 000000018001f8d0 f i CctCharacterControllerManager.obj
 0001:0001e8d0       ??_GRenderBuffer@Cm@physx@@UEAAPEAXI@Z 000000018001f8d0 f i CctCharacterControllerManager.obj
 0001:0001f840       ?append@RenderBuffer@Cm@physx@@UEAAXAEBVPxRenderBuffer@3@@Z 0000000180020840 f i CctCharacterControllerManager.obj
 0001:0001fbd0       ?clear@RenderBuffer@Cm@physx@@UEAAXXZ 0000000180020bd0 f i CctCharacterControllerManager.obj
 0001:00020230       ?copy@?$Array@UPxDebugLine@physx@@VNamedAllocator@shdfnd@2@@shdfnd@physx@@KAXPEAUPxDebugLine@3@0PEBU43@@Z 0000000180021230 f i CctCharacterControllerManager.obj
 0001:00020450       ?copy@?$Array@UPxDebugPoint@physx@@VNamedAllocator@shdfnd@2@@shdfnd@physx@@KAXPEAUPxDebugPoint@3@0PEBU43@@Z 0000000180021450 f i CctCharacterControllerManager.obj
 0001:00020590       ?copy@?$Array@UPxDebugText@physx@@VNamedAllocator@shdfnd@2@@shdfnd@physx@@KAXPEAUPxDebugText@3@0PEBU43@@Z 0000000180021590 f i CctCharacterControllerManager.obj
 0001:00020760       ?copy@?$Array@UPxDebugTriangle@physx@@VNamedAllocator@shdfnd@2@@shdfnd@physx@@KAXPEAUPxDebugTriangle@3@0PEBU43@@Z 0000000180021760 f i CctCharacterControllerManager.obj
 0001:000209e0       ?create@?$HashBase@PEAVPxShape@physx@@PEAV12@U?$Hash@PEAVPxShape@physx@@@shdfnd@2@UGetKey@?$HashSetBase@PEAVPxShape@physx@@U?$Hash@PEAVPxShape@physx@@@shdfnd@2@VNonTrackingAllocator@42@$0A@@internal@42@VNonTrackingAllocator@42@$0A@@internal@shdfnd@physx@@QEAAPEAPEAVPxShape@4@AEBQEAV54@AEA_N@Z 00000001800219e0 f i CctCharacterControllerManager.obj
 0001:00020bf0       ?create@?$HashBase@V?$Pair@QEBVPxBase@physx@@UObservedRefCounter@Cct@2@@shdfnd@physx@@PEBVPxBase@3@U?$Hash@PEBVPxBase@physx@@@23@UGetKey@?$HashMapBase@PEBVPxBase@physx@@UObservedRefCounter@Cct@2@U?$Hash@PEBVPxBase@physx@@@shdfnd@2@VNonTrackingAllocator@62@@internal@23@VNonTrackingAllocator@23@$00@internal@shdfnd@physx@@QEAAPEAV?$Pair@QEBVPxBase@physx@@UObservedRefCounter@Cct@2@@34@AEBQEBVPxBase@4@AEA_N@Z 0000000180021bf0 f i CctCharacterControllerManager.obj
 0001:00020df0       ?erase@?$HashBase@V?$Pair@QEBVPxBase@physx@@UObservedRefCounter@Cct@2@@shdfnd@physx@@PEBVPxBase@3@U?$Hash@PEBVPxBase@physx@@@23@UGetKey@?$HashMapBase@PEBVPxBase@physx@@UObservedRefCounter@Cct@2@U?$Hash@PEBVPxBase@physx@@@shdfnd@2@VNonTrackingAllocator@62@@internal@23@VNonTrackingAllocator@23@$00@internal@shdfnd@physx@@QEAA_NAEBQEBVPxBase@4@@Z 0000000180021df0 f i CctCharacterControllerManager.obj
 0001:00020ff0       ?getAllocator@Foundation@shdfnd@physx@@QEAAAEAVPxAllocatorCallback@3@XZ 0000000180021ff0 f i CctCharacterControllerManager.obj
 0001:00021000       ?getAllocatorCallback@Foundation@shdfnd@physx@@UEAAAEAVPxAllocatorCallback@3@XZ 0000000180022000 f i CctCharacterControllerManager.obj
 0001:00021010       ?getErrorCallback@Foundation@shdfnd@physx@@UEAAAEAVPxErrorCallback@3@XZ 0000000180022010 f i CctCharacterControllerManager.obj
 0001:00021020       ?getErrorLevel@Foundation@shdfnd@physx@@UEBA?AW4Enum@PxErrorCode@3@XZ 0000000180022020 f i CctCharacterControllerManager.obj
 0001:00021030       ?getInternalErrorCallback@Foundation@shdfnd@physx@@QEAAAEAVPxErrorCallback@3@XZ 0000000180022030 f i CctCharacterControllerManager.obj
 0001:00021040       ?getLines@RenderBuffer@Cm@physx@@UEBAPEBUPxDebugLine@3@XZ 0000000180022040 f i CctCharacterControllerManager.obj
 0001:00021050       ?getNamedAllocMap@Foundation@shdfnd@physx@@QEAAAEAV?$HashMap@PEBVNamedAllocator@shdfnd@physx@@PEBDU?$Hash@PEBVNamedAllocator@shdfnd@physx@@@23@VNonTrackingAllocator@23@@23@XZ 0000000180022050 f i CctCharacterControllerManager.obj
 0001:00021060       ?getNamedAllocMutex@Foundation@shdfnd@physx@@QEAAAEAV?$MutexT@VAllocator@shdfnd@physx@@@23@XZ 0000000180022060 f i CctCharacterControllerManager.obj
 0001:00021070       ?getNbLines@RenderBuffer@Cm@physx@@UEBAIXZ 0000000180022070 f i CctCharacterControllerManager.obj
 0001:00021080       ?getNbPoints@RenderBuffer@Cm@physx@@UEBAIXZ 0000000180022080 f i CctCharacterControllerManager.obj
 0001:00021090       ?getNbTexts@RenderBuffer@Cm@physx@@UEBAIXZ 0000000180022090 f i CctCharacterControllerManager.obj
 0001:000210a0       ?getNbTriangles@RenderBuffer@Cm@physx@@UEBAIXZ 00000001800220a0 f i CctCharacterControllerManager.obj
 0001:000210b0       ?getPoints@RenderBuffer@Cm@physx@@UEBAPEBUPxDebugPoint@3@XZ 00000001800220b0 f i CctCharacterControllerManager.obj
 0001:000210c0       ?getReportAllocationNames@Foundation@shdfnd@physx@@UEBA_NXZ 00000001800220c0 f i CctCharacterControllerManager.obj
 0001:000210d0       ?getTempAllocFreeTable@Foundation@shdfnd@physx@@QEAAAEAV?$Array@PEATTempAllocatorChunk@shdfnd@physx@@VAllocator@23@@23@XZ 00000001800220d0 f i CctCharacterControllerManager.obj
 0001:000210e0       ?getTempAllocMutex@Foundation@shdfnd@physx@@QEAAAEAV?$MutexT@VAllocator@shdfnd@physx@@@23@XZ 00000001800220e0 f i CctCharacterControllerManager.obj
 0001:000210f0       ?getTexts@RenderBuffer@Cm@physx@@UEBAPEBUPxDebugText@3@XZ 00000001800220f0 f i CctCharacterControllerManager.obj
 0001:00021100       ?getTriangles@RenderBuffer@Cm@physx@@UEBAPEBUPxDebugTriangle@3@XZ 0000000180022100 f i CctCharacterControllerManager.obj
 0001:00021110       ?growAndPushBack@?$Array@PEAVController@Cct@physx@@VNamedAllocator@shdfnd@3@@shdfnd@physx@@IEAAAEAPEAVController@Cct@3@AEBQEAV453@@Z 0000000180022110 f i CctCharacterControllerManager.obj
 0001:00021240       ?growAndPushBack@?$Array@PEAVObstacleContext@Cct@physx@@VNamedAllocator@shdfnd@3@@shdfnd@physx@@IEAAAEAPEAVObstacleContext@Cct@3@AEBQEAV453@@Z 0000000180022240 f i CctCharacterControllerManager.obj
 0001:00021370       ?growAndPushBack@?$Array@UPxDebugLine@physx@@VNamedAllocator@shdfnd@2@@shdfnd@physx@@IEAAAEAUPxDebugLine@3@AEBU43@@Z 0000000180022370 f i CctCharacterControllerManager.obj
 0001:000214b0       ?growAndPushBack@?$Array@UPxDebugPoint@physx@@VNamedAllocator@shdfnd@2@@shdfnd@physx@@IEAAAEAUPxDebugPoint@3@AEBU43@@Z 00000001800224b0 f i CctCharacterControllerManager.obj
 0001:000215c0       ?growAndPushBack@?$Array@UPxDebugText@physx@@VNamedAllocator@shdfnd@2@@shdfnd@physx@@IEAAAEAUPxDebugText@3@AEBU43@@Z 00000001800225c0 f i CctCharacterControllerManager.obj
 0001:000216f0       ?growAndPushBack@?$Array@UPxDebugTriangle@physx@@VNamedAllocator@shdfnd@2@@shdfnd@physx@@IEAAAEAUPxDebugTriangle@3@AEBU43@@Z 00000001800226f0 f i CctCharacterControllerManager.obj
 0001:00021860       ?recreate@?$Array@PEBXVNamedAllocator@shdfnd@physx@@@shdfnd@physx@@IEAAXI@Z 0000000180022860 f i CctCharacterControllerManager.obj
 0001:00021970       ?recreate@?$Array@UPxDebugLine@physx@@VNamedAllocator@shdfnd@2@@shdfnd@physx@@IEAAXI@Z 0000000180022970 f i CctCharacterControllerManager.obj
 0001:00021a30       ?recreate@?$Array@UPxDebugPoint@physx@@VNamedAllocator@shdfnd@2@@shdfnd@physx@@IEAAXI@Z 0000000180022a30 f i CctCharacterControllerManager.obj
 0001:00021af0       ?recreate@?$Array@UPxDebugText@physx@@VNamedAllocator@shdfnd@2@@shdfnd@physx@@IEAAXI@Z 0000000180022af0 f i CctCharacterControllerManager.obj
 0001:00021bb0       ?recreate@?$Array@UPxDebugTriangle@physx@@VNamedAllocator@shdfnd@2@@shdfnd@physx@@IEAAXI@Z 0000000180022bb0 f i CctCharacterControllerManager.obj
 0001:00021c80       ?recreate@?$Array@UPxExtendedCapsule@physx@@VNamedAllocator@shdfnd@2@@shdfnd@physx@@IEAAXI@Z 0000000180022c80 f i CctCharacterControllerManager.obj
 0001:00021da0       ?recreate@?$Array@VPxExtendedBox@physx@@VNamedAllocator@shdfnd@2@@shdfnd@physx@@IEAAXI@Z 0000000180022da0 f i CctCharacterControllerManager.obj
 0001:00022100       ?reserveInternal@?$HashBase@PEAVPxShape@physx@@PEAV12@U?$Hash@PEAVPxShape@physx@@@shdfnd@2@UGetKey@?$HashSetBase@PEAVPxShape@physx@@U?$Hash@PEAVPxShape@physx@@@shdfnd@2@VNonTrackingAllocator@42@$0A@@internal@42@VNonTrackingAllocator@42@$0A@@internal@shdfnd@physx@@AEAAXI@Z 0000000180023100 f i CctCharacterControllerManager.obj
 0001:000225b0       ?reserveInternal@?$HashBase@V?$Pair@QEBVPxBase@physx@@UObservedRefCounter@Cct@2@@shdfnd@physx@@PEBVPxBase@3@U?$Hash@PEBVPxBase@physx@@@23@UGetKey@?$HashMapBase@PEBVPxBase@physx@@UObservedRefCounter@Cct@2@U?$Hash@PEBVPxBase@physx@@@shdfnd@2@VNonTrackingAllocator@62@@internal@23@VNonTrackingAllocator@23@$00@internal@shdfnd@physx@@AEAAXI@Z 00000001800235b0 f i CctCharacterControllerManager.obj
 0001:00022810       ?resize@?$Array@PEBXVNamedAllocator@shdfnd@physx@@@shdfnd@physx@@QEAAXIAEBQEBX@Z 0000000180023810 f i CctCharacterControllerManager.obj
 0001:00022920       ?resize@?$Array@UPxExtendedCapsule@physx@@VNamedAllocator@shdfnd@2@@shdfnd@physx@@QEAAXIAEBUPxExtendedCapsule@3@@Z 0000000180023920 f i CctCharacterControllerManager.obj
 0001:000229c0       ?resize@?$Array@VPxExtendedBox@physx@@VNamedAllocator@shdfnd@2@@shdfnd@physx@@QEAAXIAEBVPxExtendedBox@3@@Z 00000001800239c0 f i CctCharacterControllerManager.obj
 0001:00022c70       ?setErrorLevel@Foundation@shdfnd@physx@@UEAAXW4Enum@PxErrorCode@3@@Z 0000000180023c70 f i CctCharacterControllerManager.obj
 0001:00022c80       ?setReportAllocationNames@Foundation@shdfnd@physx@@UEAAX_N@Z 0000000180023c80 f i CctCharacterControllerManager.obj
 0001:00022c90       ?shift@RenderBuffer@Cm@physx@@QEAAXAEBVPxVec3@3@@Z 0000000180023c90 f i CctCharacterControllerManager.obj
 0001:00022f00       ??0Controller@Cct@physx@@QEAA@AEBVPxControllerDesc@2@PEAVPxScene@2@@Z 0000000180023f00 f   CctController.obj
 0001:000231d0       ??1Controller@Cct@physx@@UEAA@XZ 00000001800241d0 f   CctController.obj
 0001:00023250       ?releaseInternal@Controller@Cct@physx@@QEAAXXZ 0000000180024250 f   CctController.obj
 0001:00023280       ?getInternalState@Controller@Cct@physx@@QEBAXAEAUPxControllerState@3@@Z 0000000180024280 f   CctController.obj
 0001:00023350       ?getInternalStats@Controller@Cct@physx@@QEBAXAEAUPxControllerStats@3@@Z 0000000180024350 f   CctController.obj
 0001:00023390       ?onOriginShift@Controller@Cct@physx@@QEAAXAEBVPxVec3@3@@Z 0000000180024390 f   CctController.obj
 0001:00023460       ?onRelease@Controller@Cct@physx@@QEAAXAEBVPxBase@3@@Z 0000000180024460 f   CctController.obj
 0001:00023470       ?setUpDirectionInternal@Controller@Cct@physx@@IEAAXAEBVPxVec3@3@@Z 0000000180024470 f   CctController.obj
 0001:000235a0       ?getKineShape@Controller@Cct@physx@@IEBAPEAVPxShape@3@XZ 00000001800245a0 f   CctController.obj
 0001:000235e0       ?createProxyActor@Controller@Cct@physx@@IEAA_NAEAVPxPhysics@3@AEBVPxGeometry@3@AEBVPxMaterial@3@@Z 00000001800245e0 f   CctController.obj
 0001:00023720       ?setPos@Controller@Cct@physx@@IEAA_NAEBUPxExtendedVec3@3@@Z 0000000180024720 f   CctController.obj
 0001:000239f0       ??_GController@Cct@physx@@UEAAPEAXI@Z 00000001800249f0 f i CctController.obj
 0001:000239f0       ??_EController@Cct@physx@@UEAAPEAXI@Z 00000001800249f0 f i CctController.obj
 0001:00023ae0       ??0HandleManager@Cct@physx@@QEAA@XZ 0000000180024ae0 f   CctObstacleContext.obj
 0001:00023c40       ??1HandleManager@Cct@physx@@QEAA@XZ 0000000180024c40 f   CctObstacleContext.obj
 0001:00023c70       ?Add@HandleManager@Cct@physx@@QEAAIPEAX@Z 0000000180024c70 f   CctObstacleContext.obj
 0001:00023f20       ?Remove@HandleManager@Cct@physx@@QEAAXI@Z 0000000180024f20 f   CctObstacleContext.obj
 0001:00024000       ?GetObject@HandleManager@Cct@physx@@QEBAPEAXI@Z 0000000180025000 f   CctObstacleContext.obj
 0001:00024060       ?UpdateObject@HandleManager@Cct@physx@@QEAA_NIPEAX@Z 0000000180025060 f   CctObstacleContext.obj
 0001:000240c0       ?SetupLists@HandleManager@Cct@physx@@AEAA_NPEAPEAXPEAG11@Z 00000001800250c0 f   CctObstacleContext.obj
 0001:000241a0       ??0ObstacleContext@Cct@physx@@QEAA@AEAVCharacterControllerManager@12@@Z 00000001800251a0 f   CctObstacleContext.obj
 0001:00024370       ??1ObstacleContext@Cct@physx@@UEAA@XZ 0000000180025370 f   CctObstacleContext.obj
 0001:00024410       ?release@ObstacleContext@Cct@physx@@UEAAXXZ 0000000180025410 f   CctObstacleContext.obj
 0001:00024430       ?getControllerManager@ObstacleContext@Cct@physx@@UEBAAEAVPxControllerManager@3@XZ 0000000180025430 f   CctObstacleContext.obj
 0001:00024440       ?addObstacle@ObstacleContext@Cct@physx@@UEAAIAEBVPxObstacle@3@@Z 0000000180025440 f   CctObstacleContext.obj
 0001:000246b0       ?removeObstacle@ObstacleContext@Cct@physx@@UEAA_NI@Z 00000001800256b0 f   CctObstacleContext.obj
 0001:00024960       ?updateObstacle@ObstacleContext@Cct@physx@@UEAA_NIAEBVPxObstacle@3@@Z 0000000180025960 f   CctObstacleContext.obj
 0001:00024af0       ?getNbObstacles@ObstacleContext@Cct@physx@@UEBAIXZ 0000000180025af0 f   CctObstacleContext.obj
 0001:00024b00       ?getObstacle@ObstacleContext@Cct@physx@@UEBAPEBVPxObstacle@3@I@Z 0000000180025b00 f   CctObstacleContext.obj
 0001:00024b50       ?getObstacleByHandle@ObstacleContext@Cct@physx@@UEBAPEBVPxObstacle@3@I@Z 0000000180025b50 f   CctObstacleContext.obj
 0001:00024bf0       ?raycastSingle@ObstacleContext@Cct@physx@@QEBAPEBVPxObstacle@3@AEAUPxRaycastHit@3@AEBVPxVec3@3@1MAEAI@Z 0000000180025bf0 f   CctObstacleContext.obj
 0001:00024f10       ?raycastSingle@ObstacleContext@Cct@physx@@QEBAPEBVPxObstacle@3@AEAUPxRaycastHit@3@AEBIAEBVPxVec3@3@2M@Z 0000000180025f10 f   CctObstacleContext.obj
 0001:00025120       ?onOriginShift@ObstacleContext@Cct@physx@@QEAAXAEBVPxVec3@3@@Z 0000000180026120 f   CctObstacleContext.obj
 0001:000257c0       ??1PxObstacleContext@physx@@UEAA@XZ 00000001800267c0 f i CctObstacleContext.obj
 0001:000257d0       ??_GObstacleContext@Cct@physx@@UEAAPEAXI@Z 00000001800267d0 f i CctObstacleContext.obj
 0001:000257d0       ??_EObstacleContext@Cct@physx@@UEAAPEAXI@Z 00000001800267d0 f i CctObstacleContext.obj
 0001:000258f0       ??_GPxObstacleContext@physx@@UEAAPEAXI@Z 00000001800268f0 f i CctObstacleContext.obj
 0001:000258f0       ??_EPxObstacleContext@physx@@UEAAPEAXI@Z 00000001800268f0 f i CctObstacleContext.obj
 0001:00025930       ?growAndPushBack@?$Array@UInternalBoxObstacle@ObstacleContext@Cct@physx@@VNamedAllocator@shdfnd@4@@shdfnd@physx@@IEAAAEAUInternalBoxObstacle@ObstacleContext@Cct@3@AEBU4563@@Z 0000000180026930 f i CctObstacleContext.obj
 0001:00025d90       ?growAndPushBack@?$Array@UInternalCapsuleObstacle@ObstacleContext@Cct@physx@@VNamedAllocator@shdfnd@4@@shdfnd@physx@@IEAAAEAUInternalCapsuleObstacle@ObstacleContext@Cct@3@AEBU4563@@Z 0000000180026d90 f i CctObstacleContext.obj
 0001:000261b0       ??0SweptBox@Cct@physx@@QEAA@XZ 00000001800271b0 f   CctSweptBox.obj
 0001:000261e0       ??1SweptBox@Cct@physx@@UEAA@XZ 00000001800271e0 f   CctSweptBox.obj
 0001:00026200       ?computeTemporalBox@SweptBox@Cct@physx@@UEBAXAEBVSweepTest@23@AEAUPxExtendedBounds3@3@AEBUPxExtendedVec3@3@AEBVPxVec3@3@@Z 0000000180027200 f   CctSweptBox.obj
 0001:00026280       ??_GSweptBox@Cct@physx@@UEAAPEAXI@Z 0000000180027280 f i CctSweptBox.obj
 0001:00026280       ??_ESweptBox@Cct@physx@@UEAAPEAXI@Z 0000000180027280 f i CctSweptBox.obj
 0001:000262d0       ??0SweptCapsule@Cct@physx@@QEAA@XZ 00000001800272d0 f   CctSweptCapsule.obj
 0001:00026300       ??1SweptCapsule@Cct@physx@@UEAA@XZ 0000000180027300 f   CctSweptCapsule.obj
 0001:00026320       ?computeTemporalBox@SweptCapsule@Cct@physx@@UEBAXAEBVSweepTest@23@AEAUPxExtendedBounds3@3@AEBUPxExtendedVec3@3@AEBVPxVec3@3@@Z 0000000180027320 f   CctSweptCapsule.obj
 0001:000263a0       ??_GSweptCapsule@Cct@physx@@UEAAPEAXI@Z 00000001800273a0 f i CctSweptCapsule.obj
 0001:000263a0       ??_ESweptCapsule@Cct@physx@@UEAAPEAXI@Z 00000001800273a0 f i CctSweptCapsule.obj
 0001:000263f0       ??0SweptVolume@Cct@physx@@QEAA@XZ 00000001800273f0 f   CctSweptVolume.obj
 0001:00026410       ??1SweptVolume@Cct@physx@@UEAA@XZ 0000000180027410 f   CctSweptVolume.obj
 0001:00026430       ?computeTemporalBox@Cct@physx@@YAXAEAUPxExtendedBounds3@2@MMMMAEBVPxVec3@2@AEBUPxExtendedVec3@2@1@Z 0000000180027430 f   CctSweptVolume.obj
 0001:00026840       ??_GSweptVolume@Cct@physx@@UEAAPEAXI@Z 0000000180027840 f i CctSweptVolume.obj
 0001:00026840       ??_ESweptVolume@Cct@physx@@UEAAPEAXI@Z 0000000180027840 f i CctSweptVolume.obj
 0001:00026880       ??0PxMeshOverlapUtil@physx@@QEAA@XZ 0000000180027880 f   PhysX3ExtensionsCHECKED:ExtTriangleMeshExt.obj
 0001:000268b0       ??1PxMeshOverlapUtil@physx@@QEAA@XZ 00000001800278b0 f   PhysX3ExtensionsCHECKED:ExtTriangleMeshExt.obj
 0001:000268f0       ?findOverlap@PxMeshOverlapUtil@physx@@QEAAIAEBVPxGeometry@2@AEBVPxTransform@2@AEBVPxTriangleMeshGeometry@2@1@Z 00000001800278f0 f   PhysX3ExtensionsCHECKED:ExtTriangleMeshExt.obj
 0001:00026a50       ?findOverlap@PxMeshOverlapUtil@physx@@QEAAIAEBVPxGeometry@2@AEBVPxTransform@2@AEBVPxHeightFieldGeometry@2@1@Z 0000000180027a50 f   PhysX3ExtensionsCHECKED:ExtTriangleMeshExt.obj
 0001:00026b90       ?PxComputeMeshPenetration@physx@@YA?AVPxVec3@1@IAEBVPxGeometry@1@AEBVPxTransform@1@AEBVPxTriangleMeshGeometry@1@1AEAI@Z 0000000180027b90 f   PhysX3ExtensionsCHECKED:ExtTriangleMeshExt.obj
 0001:00026c20       ?PxComputeTriangleMeshPenetration@physx@@YA_NAEAVPxVec3@1@AEAMAEBVPxGeometry@1@AEBVPxTransform@1@AEBVPxTriangleMeshGeometry@1@3IPEAI@Z 0000000180027c20 f   PhysX3ExtensionsCHECKED:ExtTriangleMeshExt.obj
 0001:00026c30       ?PxComputeHeightFieldPenetration@physx@@YA?AVPxVec3@1@IAEBVPxGeometry@1@AEBVPxTransform@1@AEBVPxHeightFieldGeometry@1@1AEAI@Z 0000000180027c30 f   PhysX3ExtensionsCHECKED:ExtTriangleMeshExt.obj
 0001:00026cc0       ?PxComputeHeightFieldPenetration@physx@@YA_NAEAVPxVec3@1@AEAMAEBVPxGeometry@1@AEBVPxTransform@1@AEBVPxHeightFieldGeometry@1@3IPEAI@Z 0000000180027cc0 f   PhysX3ExtensionsCHECKED:ExtTriangleMeshExt.obj
 0001:00027260       ?updateMassAndInertia@PxRigidBodyExt@physx@@SA_NAEAVPxRigidBody@2@PEBMIPEBVPxVec3@2@_N@Z 0000000180028260 f   PhysX3ExtensionsCHECKED:ExtRigidBodyExt.obj
 0001:00027290       ?updateMassAndInertia@PxRigidBodyExt@physx@@SA_NAEAVPxRigidBody@2@MPEBVPxVec3@2@_N@Z 0000000180028290 f   PhysX3ExtensionsCHECKED:ExtRigidBodyExt.obj
 0001:000272d0       ?setMassAndUpdateInertia@PxRigidBodyExt@physx@@SA_NAEAVPxRigidBody@2@PEBMIPEBVPxVec3@2@_N@Z 00000001800282d0 f   PhysX3ExtensionsCHECKED:ExtRigidBodyExt.obj
 0001:00027300       ?setMassAndUpdateInertia@PxRigidBodyExt@physx@@SA_NAEAVPxRigidBody@2@MPEBVPxVec3@2@_N@Z 0000000180028300 f   PhysX3ExtensionsCHECKED:ExtRigidBodyExt.obj
 0001:00027340       ?computeMassPropertiesFromShapes@PxRigidBodyExt@physx@@SA?AVPxMassProperties@2@PEBQEBVPxShape@2@I@Z 0000000180028340 f   PhysX3ExtensionsCHECKED:ExtRigidBodyExt.obj
 0001:00027760       ?addForceAtPos@PxRigidBodyExt@physx@@SAXAEAVPxRigidBody@2@AEBVPxVec3@2@1W4Enum@PxForceMode@2@_N@Z 0000000180028760 f   PhysX3ExtensionsCHECKED:ExtRigidBodyExt.obj
 0001:00027780       ?addForceAtLocalPos@PxRigidBodyExt@physx@@SAXAEAVPxRigidBody@2@AEBVPxVec3@2@1W4Enum@PxForceMode@2@_N@Z 0000000180028780 f   PhysX3ExtensionsCHECKED:ExtRigidBodyExt.obj
 0001:00027950       ?addLocalForceAtPos@PxRigidBodyExt@physx@@SAXAEAVPxRigidBody@2@AEBVPxVec3@2@1W4Enum@PxForceMode@2@_N@Z 0000000180028950 f   PhysX3ExtensionsCHECKED:ExtRigidBodyExt.obj
 0001:00027b10       ?addLocalForceAtLocalPos@PxRigidBodyExt@physx@@SAXAEAVPxRigidBody@2@AEBVPxVec3@2@1W4Enum@PxForceMode@2@_N@Z 0000000180028b10 f   PhysX3ExtensionsCHECKED:ExtRigidBodyExt.obj
 0001:00027dc0       ?getVelocityAtPos@PxRigidBodyExt@physx@@SA?AVPxVec3@2@AEBVPxRigidBody@2@AEBV32@@Z 0000000180028dc0 f   PhysX3ExtensionsCHECKED:ExtRigidBodyExt.obj
 0001:00027fb0       ?getLocalVelocityAtLocalPos@PxRigidBodyExt@physx@@SA?AVPxVec3@2@AEBVPxRigidBody@2@AEBV32@@Z 0000000180028fb0 f   PhysX3ExtensionsCHECKED:ExtRigidBodyExt.obj
 0001:000282b0       ?getVelocityAtOffset@PxRigidBodyExt@physx@@SA?AVPxVec3@2@AEBVPxRigidBody@2@AEBV32@@Z 00000001800292b0 f   PhysX3ExtensionsCHECKED:ExtRigidBodyExt.obj
 0001:00028490       ?linearSweepSingle@PxRigidBodyExt@physx@@SA_NAEAVPxRigidBody@2@AEAVPxScene@2@AEBVPxVec3@2@MV?$PxFlags@W4Enum@PxHitFlag@physx@@G@2@AEAUPxSweepHit@2@AEAIAEBUPxQueryFilterData@2@PEAVPxQueryFilterCallback@2@PEBUPxQueryCache@2@M@Z 0000000180029490 f   PhysX3ExtensionsCHECKED:ExtRigidBodyExt.obj
 0001:00028720       ?linearSweepMultiple@PxRigidBodyExt@physx@@SAIAEAVPxRigidBody@2@AEAVPxScene@2@AEBVPxVec3@2@MV?$PxFlags@W4Enum@PxHitFlag@physx@@G@2@PEAUPxSweepHit@2@PEAIIAEAU72@AEAHAEA_NAEBUPxQueryFilterData@2@PEAVPxQueryFilterCallback@2@PEBUPxQueryCache@2@M@Z 0000000180029720 f   PhysX3ExtensionsCHECKED:ExtRigidBodyExt.obj
 0001:00028d20       ?computeVelocityDeltaFromImpulse@PxRigidBodyExt@physx@@SAXAEBVPxRigidBody@2@AEBVPxVec3@2@1AEAV42@2@Z 0000000180029d20 f   PhysX3ExtensionsCHECKED:ExtRigidBodyExt.obj
 0001:00029130       ?computeVelocityDeltaFromImpulse@PxRigidBodyExt@physx@@SAXAEBVPxRigidBody@2@AEBVPxTransform@2@AEBVPxVec3@2@2MMAEAV52@3@Z 000000018002a130 f   PhysX3ExtensionsCHECKED:ExtRigidBodyExt.obj
 0001:00029680       ?computeLinearAngularImpulse@PxRigidBodyExt@physx@@SAXAEBVPxRigidBody@2@AEBVPxTransform@2@AEBVPxVec3@2@2MMAEAV52@3@Z 000000018002a680 f   PhysX3ExtensionsCHECKED:ExtRigidBodyExt.obj
 0001:00029920       ??0InertiaTensorComputer@Ext@physx@@QEAA@_N@Z 000000018002a920 f   PhysX3ExtensionsCHECKED:ExtRigidBodyExt.obj
 0001:00029950       ??0InertiaTensorComputer@Ext@physx@@QEAA@AEBVPxMat33@2@AEBVPxVec3@2@M@Z 000000018002a950 f   PhysX3ExtensionsCHECKED:ExtRigidBodyExt.obj
 0001:000299b0       ??1InertiaTensorComputer@Ext@physx@@QEAA@XZ 000000018002a9b0 f   PhysX3ExtensionsCHECKED:ExtRigidBodyExt.obj
 0001:000299c0       ?translate@InertiaTensorComputer@Ext@physx@@QEAAXAEBVPxVec3@3@@Z 000000018002a9c0 f   PhysX3ExtensionsCHECKED:ExtRigidBodyExt.obj
 0001:00029de0       ?setBox@InertiaTensorComputer@Ext@physx@@QEAAXAEBVPxVec3@3@@Z 000000018002ade0 f   PhysX3ExtensionsCHECKED:ExtRigidBodyExt.obj
 0001:00029e80       ?setSphere@InertiaTensorComputer@Ext@physx@@QEAAXM@Z 000000018002ae80 f   PhysX3ExtensionsCHECKED:ExtRigidBodyExt.obj
 0001:00029ee0       ?setCylinder@InertiaTensorComputer@Ext@physx@@QEAAXHMM@Z 000000018002aee0 f   PhysX3ExtensionsCHECKED:ExtRigidBodyExt.obj
 0001:00029fb0       ?setCapsule@InertiaTensorComputer@Ext@physx@@QEAAXHMM@Z 000000018002afb0 f   PhysX3ExtensionsCHECKED:ExtRigidBodyExt.obj
 0001:0002a0c0       ?setEllipsoid@InertiaTensorComputer@Ext@physx@@QEAAXMMM@Z 000000018002b0c0 f   PhysX3ExtensionsCHECKED:ExtRigidBodyExt.obj
 0001:0002a150       ?computeSphereMass@Ext@physx@@YAMMM@Z 000000018002b150 f   PhysX3ExtensionsCHECKED:ExtRigidBodyExt.obj
 0001:0002a180       ?computeSphereDensity@Ext@physx@@YAMMM@Z 000000018002b180 f   PhysX3ExtensionsCHECKED:ExtRigidBodyExt.obj
 0001:0002a1b0       ?computeBoxMass@Ext@physx@@YAMAEBVPxVec3@2@M@Z 000000018002b1b0 f   PhysX3ExtensionsCHECKED:ExtRigidBodyExt.obj
 0001:0002a200       ?computeBoxDensity@Ext@physx@@YAMAEBVPxVec3@2@M@Z 000000018002b200 f   PhysX3ExtensionsCHECKED:ExtRigidBodyExt.obj
 0001:0002a250       ?computeEllipsoidMass@Ext@physx@@YAMAEBVPxVec3@2@M@Z 000000018002b250 f   PhysX3ExtensionsCHECKED:ExtRigidBodyExt.obj
 0001:0002a2a0       ?computeEllipsoidDensity@Ext@physx@@YAMAEBVPxVec3@2@M@Z 000000018002b2a0 f   PhysX3ExtensionsCHECKED:ExtRigidBodyExt.obj
 0001:0002a2f0       ?computeCylinderMass@Ext@physx@@YAMMMM@Z 000000018002b2f0 f   PhysX3ExtensionsCHECKED:ExtRigidBodyExt.obj
 0001:0002a310       ?computeCylinderDensity@Ext@physx@@YAMMMM@Z 000000018002b310 f   PhysX3ExtensionsCHECKED:ExtRigidBodyExt.obj
 0001:0002a330       ?computeCapsuleMass@Ext@physx@@YAMMMM@Z 000000018002b330 f   PhysX3ExtensionsCHECKED:ExtRigidBodyExt.obj
 0001:0002a360       ?computeCapsuleDensity@Ext@physx@@YAMMMM@Z 000000018002b360 f   PhysX3ExtensionsCHECKED:ExtRigidBodyExt.obj
 0001:0002a390       ?computeConeMass@Ext@physx@@YAMMMM@Z 000000018002b390 f   PhysX3ExtensionsCHECKED:ExtRigidBodyExt.obj
 0001:0002a3c0       ?computeConeDensity@Ext@physx@@YAMMMM@Z 000000018002b3c0 f   PhysX3ExtensionsCHECKED:ExtRigidBodyExt.obj
 0001:0002a3f0       ?computeBoxInertiaTensor@Ext@physx@@YAXAEAVPxVec3@2@MMMM@Z 000000018002b3f0 f   PhysX3ExtensionsCHECKED:ExtRigidBodyExt.obj
 0001:0002a440       ?computeSphereInertiaTensor@Ext@physx@@YAXAEAVPxVec3@2@MM_N@Z 000000018002b440 f   PhysX3ExtensionsCHECKED:ExtRigidBodyExt.obj
 0001:0002b110       ??0PxMassProperties@physx@@QEAA@AEBVPxGeometry@1@@Z 000000018002c110 f i PhysX3ExtensionsCHECKED:ExtRigidBodyExt.obj
 0001:0002b900       ??1?$PxHitBuffer@UPxSweepHit@physx@@@physx@@UEAA@XZ 000000018002c900 f i PhysX3ExtensionsCHECKED:ExtRigidBodyExt.obj
 0001:0002b910       ??1?$PxHitCallback@UPxSweepHit@physx@@@physx@@UEAA@XZ 000000018002c910 f i PhysX3ExtensionsCHECKED:ExtRigidBodyExt.obj
 0001:0002b920       ??_G?$PxHitBuffer@UPxSweepHit@physx@@@physx@@UEAAPEAXI@Z 000000018002c920 f i PhysX3ExtensionsCHECKED:ExtRigidBodyExt.obj
 0001:0002b920       ??_E?$PxHitBuffer@UPxSweepHit@physx@@@physx@@UEAAPEAXI@Z 000000018002c920 f i PhysX3ExtensionsCHECKED:ExtRigidBodyExt.obj
 0001:0002b960       ??_G?$PxHitCallback@UPxSweepHit@physx@@@physx@@UEAAPEAXI@Z 000000018002c960 f i PhysX3ExtensionsCHECKED:ExtRigidBodyExt.obj
 0001:0002b960       ??_E?$PxHitCallback@UPxSweepHit@physx@@@physx@@UEAAPEAXI@Z 000000018002c960 f i PhysX3ExtensionsCHECKED:ExtRigidBodyExt.obj
 0001:0002b9a0       ?addForceAtPosInternal@@YAXAEAVPxRigidBody@physx@@AEBVPxVec3@2@1W4Enum@PxForceMode@2@_N@Z 000000018002c9a0 f i PhysX3ExtensionsCHECKED:ExtRigidBodyExt.obj
 0001:0002bd20       ?allocate@?$Array@PEAVPxShape@physx@@V?$InlineAllocator@$0IA@VNamedAllocator@shdfnd@physx@@@shdfnd@2@@shdfnd@physx@@IEAAPEAPEAVPxShape@3@I@Z 000000018002cd20 f i PhysX3ExtensionsCHECKED:ExtRigidBodyExt.obj
 0001:0002bdc0       ?allocate@?$Array@VPxMassProperties@physx@@V?$InlineAllocator@$0DEA@VNamedAllocator@shdfnd@physx@@@shdfnd@2@@shdfnd@physx@@IEAAPEAVPxMassProperties@3@I@Z 000000018002cdc0 f i PhysX3ExtensionsCHECKED:ExtRigidBodyExt.obj
 0001:0002be50       ?allocate@?$Array@VPxTransform@physx@@V?$InlineAllocator@$0BMA@VNamedAllocator@shdfnd@physx@@@shdfnd@2@@shdfnd@physx@@IEAAPEAVPxTransform@3@I@Z 000000018002ce50 f i PhysX3ExtensionsCHECKED:ExtRigidBodyExt.obj
 0001:0002d5f0       ?copy@?$Array@VPxMassProperties@physx@@V?$InlineAllocator@$0DEA@VNamedAllocator@shdfnd@physx@@@shdfnd@2@@shdfnd@physx@@KAXPEAVPxMassProperties@3@0PEBV43@@Z 000000018002e5f0 f i PhysX3ExtensionsCHECKED:ExtRigidBodyExt.obj
 0001:0002d890       ?copy@?$Array@VPxTransform@physx@@V?$InlineAllocator@$0BMA@VNamedAllocator@shdfnd@physx@@@shdfnd@2@@shdfnd@physx@@KAXPEAVPxTransform@3@0PEBV43@@Z 000000018002e890 f i PhysX3ExtensionsCHECKED:ExtRigidBodyExt.obj
 0001:0002da40       ?finalizeQuery@?$PxHitCallback@UPxSweepHit@physx@@@physx@@UEAAXXZ 000000018002ea40 f i PhysX3ExtensionsCHECKED:ExtRigidBodyExt.obj
 0001:0002da50       ?getGlobalPose@PxShapeExt@physx@@SA?AVPxTransform@2@AEBVPxShape@2@AEBVPxRigidActor@2@@Z 000000018002ea50 f i PhysX3ExtensionsCHECKED:ExtRigidBodyExt.obj
 0001:0002dca0       ?getVelocityAtPosInternal@@YA?AVPxVec3@physx@@AEBVPxRigidBody@2@AEBV12@@Z 000000018002eca0 f i PhysX3ExtensionsCHECKED:ExtRigidBodyExt.obj
 0001:0002ddb0       ?growAndPushBack@?$Array@VPxMassProperties@physx@@V?$InlineAllocator@$0DEA@VNamedAllocator@shdfnd@physx@@@shdfnd@2@@shdfnd@physx@@IEAAAEAVPxMassProperties@3@AEBV43@@Z 000000018002edb0 f i PhysX3ExtensionsCHECKED:ExtRigidBodyExt.obj
 0001:0002df00       ?growAndPushBack@?$Array@VPxTransform@physx@@V?$InlineAllocator@$0BMA@VNamedAllocator@shdfnd@physx@@@shdfnd@2@@shdfnd@physx@@IEAAAEAVPxTransform@3@AEBV43@@Z 000000018002ef00 f i PhysX3ExtensionsCHECKED:ExtRigidBodyExt.obj
 0001:0002e030       ?processTouches@?$PxHitBuffer@UPxSweepHit@physx@@@physx@@MEAA_NPEBUPxSweepHit@2@I@Z 000000018002f030 f i PhysX3ExtensionsCHECKED:ExtRigidBodyExt.obj
 0001:0002e040       ?recreate@?$Array@PEAVPxShape@physx@@V?$InlineAllocator@$0IA@VNamedAllocator@shdfnd@physx@@@shdfnd@2@@shdfnd@physx@@IEAAXI@Z 000000018002f040 f i PhysX3ExtensionsCHECKED:ExtRigidBodyExt.obj
 0001:0002e130       ?recreate@?$Array@VPxMassProperties@physx@@V?$InlineAllocator@$0DEA@VNamedAllocator@shdfnd@physx@@@shdfnd@2@@shdfnd@physx@@IEAAXI@Z 000000018002f130 f i PhysX3ExtensionsCHECKED:ExtRigidBodyExt.obj
 0001:0002e1d0       ?recreate@?$Array@VPxTransform@physx@@V?$InlineAllocator@$0BMA@VNamedAllocator@shdfnd@physx@@@shdfnd@2@@shdfnd@physx@@IEAAXI@Z 000000018002f1d0 f i PhysX3ExtensionsCHECKED:ExtRigidBodyExt.obj
 0001:0002e270       ?resize@?$Array@PEAVPxShape@physx@@V?$InlineAllocator@$0IA@VNamedAllocator@shdfnd@physx@@@shdfnd@2@@shdfnd@physx@@QEAAXIAEBQEAVPxShape@3@@Z 000000018002f270 f i PhysX3ExtensionsCHECKED:ExtRigidBodyExt.obj
 0001:0002e390       ?rotate@InertiaTensorComputer@Ext@physx@@QEAAXAEBVPxMat33@3@@Z 000000018002f390 f i PhysX3ExtensionsCHECKED:ExtRigidBodyExt.obj
 0001:0002e980       ?scaleInertia@PxMassProperties@physx@@SA?AVPxMat33@2@AEBV32@AEBVPxQuat@2@AEBVPxVec3@2@@Z 000000018002f980 f i PhysX3ExtensionsCHECKED:ExtRigidBodyExt.obj
 0001:0002f840       ?sum@PxMassProperties@physx@@SA?AV12@PEBV12@PEBVPxTransform@2@I@Z 0000000180030840 f i PhysX3ExtensionsCHECKED:ExtRigidBodyExt.obj
 0001:00030570       ?transform@InertiaTensorComputer@Ext@physx@@QEAAXAEBVPxTransform@3@@Z 0000000180031570 f i PhysX3ExtensionsCHECKED:ExtRigidBodyExt.obj
 0001:00030750       ?transformFast@PxBounds3@physx@@SA?AV12@AEBVPxTransform@2@AEBV12@@Z 0000000180031750 f i PhysX3ExtensionsCHECKED:ExtRigidBodyExt.obj
 0001:00030ee3       ?getAllocator@shdfnd@physx@@YAAEAVPxAllocatorCallback@2@XZ 0000000180031ee3 f   PxFoundationCHECKED_x64:PxFoundationCHECKED_x64.dll
 0001:00030ee9       ??0NamedAllocator@shdfnd@physx@@QEAA@PEBD@Z 0000000180031ee9 f   PxFoundationCHECKED_x64:PxFoundationCHECKED_x64.dll
 0001:00030eef       ?lock@MutexImpl@shdfnd@physx@@QEAAXXZ 0000000180031eef f   PxFoundationCHECKED_x64:PxFoundationCHECKED_x64.dll
 0001:00030ef5       ?unlock@MutexImpl@shdfnd@physx@@QEAAXXZ 0000000180031ef5 f   PxFoundationCHECKED_x64:PxFoundationCHECKED_x64.dll
 0001:00030efb       PxGetProfilerCallback      0000000180031efb f   PxFoundationCHECKED_x64:PxFoundationCHECKED_x64.dll
 0001:00030f01       ??0NamedAllocator@shdfnd@physx@@QEAA@AEBV012@@Z 0000000180031f01 f   PxFoundationCHECKED_x64:PxFoundationCHECKED_x64.dll
 0001:00030f07       ??1NamedAllocator@shdfnd@physx@@QEAA@XZ 0000000180031f07 f   PxFoundationCHECKED_x64:PxFoundationCHECKED_x64.dll
 0001:00030f0d       ?allocate@NamedAllocator@shdfnd@physx@@QEAAPEAX_KPEBDH@Z 0000000180031f0d f   PxFoundationCHECKED_x64:PxFoundationCHECKED_x64.dll
 0001:00030f13       ?deallocate@NamedAllocator@shdfnd@physx@@QEAAXPEAX@Z 0000000180031f13 f   PxFoundationCHECKED_x64:PxFoundationCHECKED_x64.dll
 0001:00030f19       PxGetFoundation            0000000180031f19 f   PxFoundationCHECKED_x64:PxFoundationCHECKED_x64.dll
 0001:00030f1f       ??0MutexImpl@shdfnd@physx@@QEAA@XZ 0000000180031f1f f   PxFoundationCHECKED_x64:PxFoundationCHECKED_x64.dll
 0001:00030f25       ??1MutexImpl@shdfnd@physx@@QEAA@XZ 0000000180031f25 f   PxFoundationCHECKED_x64:PxFoundationCHECKED_x64.dll
 0001:00030f2b       ?getSize@MutexImpl@shdfnd@physx@@SAIXZ 0000000180031f2b f   PxFoundationCHECKED_x64:PxFoundationCHECKED_x64.dll
 0001:00030f31       ?getInstance@Foundation@shdfnd@physx@@SAAEAV123@XZ 0000000180031f31 f   PxFoundationCHECKED_x64:PxFoundationCHECKED_x64.dll
 0001:00030f37       ?incRefCount@Foundation@shdfnd@physx@@SAXXZ 0000000180031f37 f   PxFoundationCHECKED_x64:PxFoundationCHECKED_x64.dll
 0001:00030f3d       ?decRefCount@Foundation@shdfnd@physx@@SAXXZ 0000000180031f3d f   PxFoundationCHECKED_x64:PxFoundationCHECKED_x64.dll
 0001:00030f43       ?error@Foundation@shdfnd@physx@@QEAAXW4Enum@PxErrorCode@3@PEBDH1ZZ 0000000180031f43 f   PxFoundationCHECKED_x64:PxFoundationCHECKED_x64.dll
 0001:00030f49       ?PxShortestRotation@physx@@YA?AVPxQuat@1@AEBVPxVec3@1@0@Z 0000000180031f49 f   PxFoundationCHECKED_x64:PxFoundationCHECKED_x64.dll
 0001:00030f4f       ?PxDiagonalize@physx@@YA?AVPxVec3@1@AEBVPxMat33@1@AEAVPxQuat@1@@Z 0000000180031f4f f   PxFoundationCHECKED_x64:PxFoundationCHECKED_x64.dll
 0001:00030f55       ?sweep@PxMeshQuery@physx@@SA_NAEBVPxVec3@2@MAEBVPxGeometry@2@AEBVPxTransform@2@IPEBVPxTriangle@2@AEAUPxSweepHit@2@V?$PxFlags@W4Enum@PxHitFlag@physx@@G@2@PEBIM_N@Z 0000000180031f55 f   PhysX3CommonCHECKED_x64:PhysX3CommonCHECKED_x64.dll
 0001:00030f5b       ??0RenderOutput@Cm@physx@@QEAA@AEAVRenderBuffer@12@@Z 0000000180031f5b f   PhysX3CommonCHECKED_x64:PhysX3CommonCHECKED_x64.dll
 0001:00030f61       ??6RenderOutput@Cm@physx@@QEAAAEAV012@I@Z 0000000180031f61 f   PhysX3CommonCHECKED_x64:PhysX3CommonCHECKED_x64.dll
 0001:00030f67       ??6RenderOutput@Cm@physx@@QEAAAEAV012@AEBVPxTransform@2@@Z 0000000180031f67 f   PhysX3CommonCHECKED_x64:PhysX3CommonCHECKED_x64.dll
 0001:00030f6d       ?outputCapsule@RenderOutput@Cm@physx@@QEAAAEAV123@MMAEBVPxMat44@3@@Z 0000000180031f6d f   PhysX3CommonCHECKED_x64:PhysX3CommonCHECKED_x64.dll
 0001:00030f73       ??6Cm@physx@@YAAEAVRenderOutput@01@AEAV201@AEBUDebugBox@01@@Z 0000000180031f73 f   PhysX3CommonCHECKED_x64:PhysX3CommonCHECKED_x64.dll
 0001:00030f79       ?PxTransformFromSegment@physx@@YA?AVPxTransform@1@AEBVPxVec3@1@0PEAM@Z 0000000180031f79 f   PhysX3CommonCHECKED_x64:PhysX3CommonCHECKED_x64.dll
 0001:00030f7f       ?sweep@PxGeometryQuery@physx@@SA_NAEBVPxVec3@2@MAEBVPxGeometry@2@AEBVPxTransform@2@12AEAUPxSweepHit@2@V?$PxFlags@W4Enum@PxHitFlag@physx@@G@2@M@Z 0000000180031f7f f   PhysX3CommonCHECKED_x64:PhysX3CommonCHECKED_x64.dll
 0001:00030f85       ?computePenetration@PxGeometryQuery@physx@@SA_NAEAVPxVec3@2@AEAMAEBVPxGeometry@2@AEBVPxTransform@2@23@Z 0000000180031f85 f   PhysX3CommonCHECKED_x64:PhysX3CommonCHECKED_x64.dll
 0001:00030f8b       ?intersectOBBOBB@Gu@physx@@YA_NAEBVPxVec3@2@0AEBVPxMat33@2@001_N@Z 0000000180031f8b f   PhysX3CommonCHECKED_x64:PhysX3CommonCHECKED_x64.dll
 0001:00030f91       ?distanceSegmentBoxSquared@Gu@physx@@YAMAEBVPxVec3@2@000AEBVPxMat33@2@PEAMPEAV32@@Z 0000000180031f91 f   PhysX3CommonCHECKED_x64:PhysX3CommonCHECKED_x64.dll
 0001:00030f97       ?getTriangle@PxMeshQuery@physx@@SAXAEBVPxTriangleMeshGeometry@2@AEBVPxTransform@2@IAEAVPxTriangle@2@PEAI3@Z 0000000180031f97 f   PhysX3CommonCHECKED_x64:PhysX3CommonCHECKED_x64.dll
 0001:00030f9d       ?getTriangle@PxMeshQuery@physx@@SAXAEBVPxHeightFieldGeometry@2@AEBVPxTransform@2@IAEAVPxTriangle@2@PEAI3@Z 0000000180031f9d f   PhysX3CommonCHECKED_x64:PhysX3CommonCHECKED_x64.dll
 0001:00030fa3       ??6RenderOutput@Cm@physx@@QEAAAEAV012@W4Primitive@012@@Z 0000000180031fa3 f   PhysX3CommonCHECKED_x64:PhysX3CommonCHECKED_x64.dll
 0001:00030fa9       ??6RenderOutput@Cm@physx@@QEAAAEAV012@VPxVec3@2@@Z 0000000180031fa9 f   PhysX3CommonCHECKED_x64:PhysX3CommonCHECKED_x64.dll
 0001:00030faf       ?intersectTriangleBox_Unsafe@Gu@physx@@YAHAEBVPxVec3@2@0000@Z 0000000180031faf f   PhysX3CommonCHECKED_x64:PhysX3CommonCHECKED_x64.dll
 0001:00030fb5       ?CompleteBoxPruning@Cm@physx@@YA_NPEBVPxBounds3@2@IAEAV?$Array@IVNamedAllocator@shdfnd@physx@@@shdfnd@2@AEBVAxes@Gu@2@@Z 0000000180031fb5 f   PhysX3CommonCHECKED_x64:PhysX3CommonCHECKED_x64.dll
 0001:00030fbb       ?distanceSegmentSegmentSquared@Gu@physx@@YAMAEBVPxVec3@2@000PEAM1@Z 0000000180031fbb f   PhysX3CommonCHECKED_x64:PhysX3CommonCHECKED_x64.dll
 0001:00030fc1       ?getRaycastFuncTable@Gu@physx@@YAAEAY06Q6AIAEBVPxGeometry@2@AEBVPxTransform@2@AEBVPxVec3@2@2MV?$PxFlags@W4Enum@PxHitFlag@physx@@G@2@IPEIAUPxRaycastHit@2@@ZXZ 0000000180031fc1 f   PhysX3CommonCHECKED_x64:PhysX3CommonCHECKED_x64.dll
 0001:00030fc7       ?findOverlapTriangleMesh@PxMeshQuery@physx@@SAIAEBVPxGeometry@2@AEBVPxTransform@2@AEBVPxTriangleMeshGeometry@2@1PEAIIIAEA_N@Z 0000000180031fc7 f   PhysX3CommonCHECKED_x64:PhysX3CommonCHECKED_x64.dll
 0001:00030fcd       ?findOverlapHeightField@PxMeshQuery@physx@@SAIAEBVPxGeometry@2@AEBVPxTransform@2@AEBVPxHeightFieldGeometry@2@1PEAIIIAEA_N@Z 0000000180031fcd f   PhysX3CommonCHECKED_x64:PhysX3CommonCHECKED_x64.dll
 0001:00030fd4       ??3@YAXPEAX_K@Z            0000000180031fd4 f   LIBCMT:delete_scalar_size.obj
 0001:00030fdc       ??_V@YAXPEAX_K@Z           0000000180031fdc f   LIBCMT:delete_array_size.obj
 0001:00031000       _alloca_probe              0000000180032000 f   LIBCMT:_chkstk_.obj
 0001:00031000       __chkstk                   0000000180032000 f   LIBCMT:_chkstk_.obj
 0001:0003106c       ?__scrt_initialize_type_info@@YAXXZ 000000018003206c f   LIBCMT:tncleanup.obj
 0001:00031080       ?__scrt_uninitialize_type_info@@YAXXZ 0000000180032080 f   LIBCMT:tncleanup.obj
 0001:00031090       ??1type_info@@UEAA@XZ      0000000180032090 f   LIBCMT:std_type_info_static.obj
 0001:000310a0       ??_Gtype_info@@UEAAPEAXI@Z 00000001800320a0 f i LIBCMT:std_type_info_static.obj
 0001:000310a0       ??_Etype_info@@UEAAPEAXI@Z 00000001800320a0 f i LIBCMT:std_type_info_static.obj
 0001:00031554       _CRT_INIT                  0000000180032554 f   LIBCMT:dll_dllmain.obj
 0001:0003155c       _DllMainCRTStartup         000000018003255c f   LIBCMT:dll_dllmain.obj
 0001:000315a8       ??3@YAXPEAX@Z              00000001800325a8 f   LIBCMT:delete_scalar.obj
 0001:000315b0       ??_V@YAXPEAX@Z             00000001800325b0 f   LIBCMT:delete_array.obj
 0001:00031640       __security_init_cookie     0000000180032640 f   LIBCMT:gs_support.obj
 0001:00031718       DllMain                    0000000180032718 f   LIBCMT:dll_dllmain_stub.obj
 0001:00031720       __local_stdio_printf_options 0000000180032720 f i LIBCMT:default_local_stdio_options.obj
 0001:0003172c       __local_stdio_scanf_options 000000018003272c f i LIBCMT:default_local_stdio_options.obj
 0001:00031738       __scrt_initialize_default_local_stdio_options 0000000180032738 f   LIBCMT:default_local_stdio_options.obj
 0001:0003175c       ??$__crt_fast_decode_pointer@PEAP6AXXZ@@YAPEAP6AXXZQEAP6AXXZ@Z 000000018003275c f i LIBCMT:utility.obj
 0001:00031778       ??$__crt_fast_encode_pointer@PEAP6AXXZ@@YAPEAP6AXXZQEAP6AXXZ@Z 0000000180032778 f i LIBCMT:utility.obj
 0001:000317a0       ?__crt_rotate_pointer_value@@YA_K_KH@Z 00000001800327a0 f i LIBCMT:utility.obj
 0001:000317ac       ?configure_argv@__scrt_narrow_argv_policy@@SAHXZ 00000001800327ac f i LIBCMT:utility.obj
 0001:00031824       ?initialize_environment@__scrt_narrow_environment_policy@@SAHXZ 0000000180032824 f i LIBCMT:utility.obj
 0001:00031868       NtCurrentTeb               0000000180032868 f i LIBCMT:utility.obj
 0001:00031874       __scrt_acquire_startup_lock 0000000180032874 f   LIBCMT:utility.obj
 0001:000318bc       __scrt_dllmain_after_initialize_c 00000001800328bc f   LIBCMT:utility.obj
 0001:00031900       __scrt_dllmain_before_initialize_c 0000000180032900 f   LIBCMT:utility.obj
 0001:0003191c       __scrt_dllmain_crt_thread_attach 000000018003291c f   LIBCMT:utility.obj
 0001:00031950       __scrt_dllmain_crt_thread_detach 0000000180032950 f   LIBCMT:utility.obj
 0001:0003196c       __scrt_dllmain_exception_filter 000000018003296c f   LIBCMT:utility.obj
 0001:000319e8       __scrt_dllmain_uninitialize_c 00000001800329e8 f   LIBCMT:utility.obj
 0001:00031a24       __scrt_dllmain_uninitialize_critical 0000000180032a24 f   LIBCMT:utility.obj
 0001:00031a40       __scrt_initialize_crt      0000000180032a40 f   LIBCMT:utility.obj
 0001:00031a9c       __scrt_initialize_onexit_tables 0000000180032a9c f   LIBCMT:utility.obj
 0001:00031bb4       __scrt_is_nonwritable_in_current_image 0000000180032bb4 f   LIBCMT:utility.obj
 0001:00031c74       __scrt_release_startup_lock 0000000180032c74 f   LIBCMT:utility.obj
 0001:00031ca4       __scrt_uninitialize_crt    0000000180032ca4 f   LIBCMT:utility.obj
 0001:00031cdc       _onexit                    0000000180032cdc f   LIBCMT:utility.obj
 0001:00031d40       at_quick_exit              0000000180032d40 f   LIBCMT:utility.obj
 0001:00031d84       atexit                     0000000180032d84 f   LIBCMT:utility.obj
 0001:00031da0       __scrt_get_dyn_tls_init_callback 0000000180032da0 f   LIBCMT:dyn_tls_init.obj
 0001:00031dac       __crt_debugger_hook        0000000180032dac f   LIBCMT:utility_desktop.obj
 0001:00031db8       __scrt_fastfail            0000000180032db8 f   LIBCMT:utility_desktop.obj
 0001:00031f54       __scrt_get_show_window_mode 0000000180032f54 f   LIBCMT:utility_desktop.obj
 0001:00031f9c       __scrt_initialize_winrt    0000000180032f9c f   LIBCMT:utility_desktop.obj
 0001:00031fa0       __scrt_is_managed_app      0000000180032fa0 f   LIBCMT:utility_desktop.obj
 0001:0003200c       __scrt_set_unhandled_exception_filter 000000018003300c f   LIBCMT:utility_desktop.obj
 0001:00032020       __scrt_unhandled_exception_filter 0000000180033020 f   LIBCMT:utility_desktop.obj
 0001:00032068       _RTC_Initialize            0000000180033068 f   LIBCMT:_initsect_.obj
 0001:000320c4       _RTC_Terminate             00000001800330c4 f   LIBCMT:_initsect_.obj
 0001:00032120       _guard_check_icall         0000000180033120 f i LIBCMT:checkcfg.obj
 0001:00032128       __isa_available_init       0000000180033128 f   LIBCMT:_cpu_disp_.obj
 0001:00032350       _get_startup_argv_mode     0000000180033350 f   LIBCMT:argv_mode.obj
 0001:00032358       __scrt_is_ucrt_dll_in_use  0000000180033358 f   LIBCMT:ucrt_detection.obj
 0001:00032368       _guard_check_icall_nop     0000000180033368 f i LIBCMT:guard_support.obj
 0001:0003236c       ReadNoFence64              000000018003336c f i LIBCMT:guard_support.obj
 0001:00032370       ReadPointerNoFence         0000000180033370 f i LIBCMT:guard_support.obj
 0001:00032374       __guard_ss_common_verify_stub 0000000180033374 f i LIBCMT:guard_support.obj
 0001:00032378       _guard_icall_checks_enforced 0000000180033378 f i LIBCMT:guard_support.obj
 0001:00032394       _guard_rf_checks_enforced  0000000180033394 f i LIBCMT:guard_support.obj
 0001:000323b0       ??$__crt_fast_decode_pointer@P6AXXZ@@YAP6AXXZQ6AXXZ@Z 00000001800333b0 f i libvcruntime:purevirt.obj
 0001:000323cc       ??$__crt_fast_encode_pointer@P6AXXZ@@YAP6AXXZQ6AXXZ@Z 00000001800333cc f i libvcruntime:purevirt.obj
 0001:000323f4       ??$__crt_interlocked_exchange_pointer@$$A6AXXZP6AXXZ@@YAP6AXXZPEDS6AXXZQ6AXXZ@Z 00000001800333f4 f i libvcruntime:purevirt.obj
 0001:000323fc       ??$__crt_interlocked_read_pointer@$$A6AXXZ@@YAP6AXXZPEDS6AXXZ@Z 00000001800333fc f i libvcruntime:purevirt.obj
 0001:00032400       ?__crt_interlocked_read_64@@YA_JPED_J@Z 0000000180033400 f i libvcruntime:purevirt.obj
 0001:00032404       _get_purecall_handler      0000000180033404 f   libvcruntime:purevirt.obj
 0001:00032424       _purecall                  0000000180033424 f   libvcruntime:purevirt.obj
 0001:00032468       _set_purecall_handler      0000000180033468 f   libvcruntime:purevirt.obj
 0001:000324bc       ??$?RD@__crt_internal_free_policy@@QEBAXQEBD@Z 00000001800334bc f i libvcruntime:std_type_info.obj
 0001:000324c8       ??$?RX@__crt_internal_free_policy@@QEBAXQEBX@Z 00000001800334c8 f i libvcruntime:std_type_info.obj
 0001:000324d4       ??$__crt_interlocked_compare_exchange_pointer@$$CBDPEAD$$T@@YAPEBDPEDSEBDQEAD$$T@Z 00000001800334d4 f i libvcruntime:std_type_info.obj
 0001:000324e0       ??$__crt_interlocked_read_pointer@$$CBD@@YAPEBDPEDSEBD@Z 00000001800334e0 f i libvcruntime:std_type_info.obj
 0001:000324e4       ??0?$__crt_unique_heap_ptr@DU__crt_internal_free_policy@@@@QEAA@QEAD@Z 00000001800334e4 f i libvcruntime:std_type_info.obj
 0001:000324ec       ??0?$__crt_unique_heap_ptr@XU__crt_internal_free_policy@@@@QEAA@QEAX@Z 00000001800334ec f i libvcruntime:std_type_info.obj
 0001:000324f4       ??1?$__crt_unique_heap_ptr@DU__crt_internal_free_policy@@@@QEAA@XZ 00000001800334f4 f i libvcruntime:std_type_info.obj
 0001:00032518       ??1?$__crt_unique_heap_ptr@XU__crt_internal_free_policy@@@@QEAA@XZ 0000000180033518 f i libvcruntime:std_type_info.obj
 0001:00032554       ??B?$__crt_unique_heap_ptr@DU__crt_internal_free_policy@@@@QEBA_NXZ 0000000180033554 f i libvcruntime:std_type_info.obj
 0001:00032560       ??B?$__crt_unique_heap_ptr@XU__crt_internal_free_policy@@@@QEBA_NXZ 0000000180033560 f i libvcruntime:std_type_info.obj
 0001:00032584       ?detach@?$__crt_unique_heap_ptr@XU__crt_internal_free_policy@@@@QEAAPEAXXZ 0000000180033584 f i libvcruntime:std_type_info.obj
 0001:00032590       ?get@?$__crt_unique_heap_ptr@DU__crt_internal_free_policy@@@@QEBAPEADXZ 0000000180033590 f i libvcruntime:std_type_info.obj
 0001:00032594       ?get@?$__crt_unique_heap_ptr@XU__crt_internal_free_policy@@@@QEBAPEAXXZ 0000000180033594 f i libvcruntime:std_type_info.obj
 0001:00032598       ?is_valid@?$__crt_unique_heap_ptr@DU__crt_internal_free_policy@@@@QEBA_NXZ 0000000180033598 f i libvcruntime:std_type_info.obj
 0001:000325a4       ?is_valid@?$__crt_unique_heap_ptr@XU__crt_internal_free_policy@@@@QEBA_NXZ 00000001800335a4 f i libvcruntime:std_type_info.obj
 0001:000325b0       ?release@?$__crt_unique_heap_ptr@DU__crt_internal_free_policy@@@@QEAAXXZ 00000001800335b0 f i libvcruntime:std_type_info.obj
 0001:000325d4       ?release@?$__crt_unique_heap_ptr@XU__crt_internal_free_policy@@@@QEAAXXZ 00000001800335d4 f i libvcruntime:std_type_info.obj
 0001:000325f8       __std_type_info_compare    00000001800335f8 f   libvcruntime:std_type_info.obj
 0001:00032628       __std_type_info_destroy_list 0000000180033628 f   libvcruntime:std_type_info.obj
 0001:0003265c       __std_type_info_hash       000000018003365c f   libvcruntime:std_type_info.obj
 0001:000326a8       __std_type_info_name       00000001800336a8 f   libvcruntime:std_type_info.obj
 0001:00032820       memmove                    0000000180033820 f   libvcruntime:memcpy.obj
 0001:00032820       memcpy                     0000000180033820 f   libvcruntime:memcpy.obj
 0001:00032d90       memset                     0000000180033d90 f   libvcruntime:memset.obj
 0001:00032fb0       __C_specific_handler       0000000180033fb0 f   libvcruntime:_riscchandler_.obj
 0001:00033240       __vcrt_initialize          0000000180034240 f   libvcruntime:initialization.obj
 0001:00033280       __vcrt_thread_attach       0000000180034280 f   libvcruntime:initialization.obj
 0001:0003329c       __vcrt_thread_detach       000000018003429c f   libvcruntime:initialization.obj
 0001:000332b4       __vcrt_uninitialize        00000001800342b4 f   libvcruntime:initialization.obj
 0001:000332dc       __vcrt_uninitialize_critical 00000001800342dc f   libvcruntime:initialization.obj
 0001:000332f4       ??$?B$$A6AXXZ@__crt_fast_encoded_nullptr_t@@QEBAP6AXXZXZ 00000001800342f4 f i libvcruntime:purevirt_data.obj
 0001:00033318       ?__crt_fast_encode_pointer@@YA?AU__crt_fast_encoded_nullptr_t@@$$T@Z 0000000180034318 f i libvcruntime:purevirt_data.obj
 0001:00033320       __vcrt_initialize_pure_virtual_call_handler 0000000180034320 f   libvcruntime:purevirt_data.obj
 0001:0003334c       ??$__vcrt_va_start_verify_argument_type@QEBD@@YAXXZ 000000018003434c f i libvcruntime:undname.obj
 0001:00033350       ??0Block@_HeapManager@@QEAA@XZ 0000000180034350 f i libvcruntime:undname.obj
 0001:0003335c       ??0DName@@QEAA@AEAPEBDD@Z  000000018003435c f   libvcruntime:undname.obj
 0001:0003346c       ??0DName@@QEAA@AEBV0@@Z    000000018003446c f i libvcruntime:undname.obj
 0001:00033480       ??0DName@@QEAA@D@Z         0000000180034480 f   libvcruntime:undname.obj
 0001:000334c0       ??0DName@@QEAA@PEAV0@@Z    00000001800344c0 f   libvcruntime:undname.obj
 0001:00033568       ??0DName@@QEAA@PEBD@Z      0000000180034568 f   libvcruntime:undname.obj
 0001:000335b8       ??0DName@@QEAA@W4DNameStatus@@@Z 00000001800345b8 f   libvcruntime:undname.obj
 0001:000335f0       ??0DName@@QEAA@XZ          00000001800345f0 f i libvcruntime:undname.obj
 0001:00033600       ??0DName@@QEAA@_J@Z        0000000180034600 f   libvcruntime:undname.obj
 0001:000336d0       ??0DName@@QEAA@_K@Z        00000001800346d0 f   libvcruntime:undname.obj
 0001:0003377c       ??0DNameNode@@IEAA@XZ      000000018003477c f i libvcruntime:undname.obj
 0001:00033790       ??0Replicator@@QEAA@XZ     0000000180034790 f i libvcruntime:undname.obj
 0001:00033798       ??0UnDecorator@@QEAA@PEADPEBDHP6APEADJ@ZK@Z 0000000180034798 f i libvcruntime:undname.obj
 0001:00033814       ??0charNode@@QEAA@D@Z      0000000180034814 f i libvcruntime:undname.obj
 0001:0003382c       ??0pDNameNode@@QEAA@PEAVDName@@@Z 000000018003482c f   libvcruntime:undname.obj
 0001:0003385c       ??0pairNode@@QEAA@PEBVDNameNode@@0@Z 000000018003485c f i libvcruntime:undname.obj
 0001:0003387c       ??0pcharNode@@QEAA@PEBDH@Z 000000018003487c f   libvcruntime:undname.obj
 0001:00033928       ??2@YAPEAX_KAEAV_HeapManager@@H@Z 0000000180034928 f i libvcruntime:undname.obj
 0001:0003393c       ??4DName@@QEAAAEAV0@AEBV0@@Z 000000018003493c f   libvcruntime:undname.obj
 0001:00033950       ??4DName@@QEAAAEAV0@D@Z    0000000180034950 f i libvcruntime:undname.obj
 0001:00033990       ??4DName@@QEAAAEAV0@PEAV0@@Z 0000000180034990 f   libvcruntime:undname.obj
 0001:00033a30       ??4DName@@QEAAAEAV0@PEBD@Z 0000000180034a30 f   libvcruntime:undname.obj
 0001:00033a74       ??4DName@@QEAAAEAV0@W4DNameStatus@@@Z 0000000180034a74 f   libvcruntime:undname.obj
 0001:00033a9c       ??AReplicator@@QEBA?AVDName@@H@Z 0000000180034a9c f   libvcruntime:undname.obj
 0001:00033aec       ??BUnDecorator@@QEAAPEADXZ 0000000180034aec f i libvcruntime:undname.obj
 0001:00033d40       ??H@YA?AVDName@@DAEBV0@@Z  0000000180034d40 f i libvcruntime:undname.obj
 0001:00033d84       ??H@YA?AVDName@@PEBDAEBV0@@Z 0000000180034d84 f i libvcruntime:undname.obj
 0001:00033dc8       ??H@YA?AVDName@@W4DNameStatus@@AEBV0@@Z 0000000180034dc8 f i libvcruntime:undname.obj
 0001:00033e24       ??HDName@@QEBA?AV0@AEBV0@@Z 0000000180034e24 f   libvcruntime:undname.obj
 0001:00033e58       ??HDName@@QEBA?AV0@D@Z     0000000180034e58 f   libvcruntime:undname.obj
 0001:00033e8c       ??HDName@@QEBA?AV0@PEAV0@@Z 0000000180034e8c f   libvcruntime:undname.obj
 0001:00033ec0       ??HDName@@QEBA?AV0@PEBD@Z  0000000180034ec0 f   libvcruntime:undname.obj
 0001:00033ef4       ??HDName@@QEBA?AV0@W4DNameStatus@@@Z 0000000180034ef4 f   libvcruntime:undname.obj
 0001:00033f28       ??YDName@@QEAAAEAV0@AEBV0@@Z 0000000180034f28 f   libvcruntime:undname.obj
 0001:00033f80       ??YDName@@QEAAAEAV0@D@Z    0000000180034f80 f   libvcruntime:undname.obj
 0001:0003401c       ??YDName@@QEAAAEAV0@PEAV0@@Z 000000018003501c f   libvcruntime:undname.obj
 0001:000340d8       ??YDName@@QEAAAEAV0@PEBD@Z 00000001800350d8 f   libvcruntime:undname.obj
 0001:00034184       ??YDName@@QEAAAEAV0@W4DNameStatus@@@Z 0000000180035184 f   libvcruntime:undname.obj
 0001:0003420c       ??YReplicator@@QEAAAEAV0@AEBVDName@@@Z 000000018003520c f   libvcruntime:undname.obj
 0001:0003428c       ??_5DName@@QEAAAEAV0@AEBV0@@Z 000000018003528c f   libvcruntime:undname.obj
 0001:000342a8       ?Constructor@_HeapManager@@QEAAXP6APEAX_K@ZP6AXPEAX@Z@Z 00000001800352a8 f i libvcruntime:undname.obj
 0001:000342c4       ?Destructor@_HeapManager@@QEAAXXZ 00000001800352c4 f i libvcruntime:undname.obj
 0001:00034338       ?UScore@UnDecorator@@SAPEBDW4Tokens@@@Z 0000000180035338 f   libvcruntime:undname.obj
 0001:00034360       ?append@DName@@AEAAXPEBVDNameNode@@@Z 0000000180035360 f   libvcruntime:undname.obj
 0001:000343dc       ?composeDeclaration@UnDecorator@@CA?AVDName@@AEBV2@@Z 00000001800353dc f i libvcruntime:undname.obj
 0001:000354b8       ?doAccessSpecifiers@UnDecorator@@SAHXZ 00000001800364b8 f i libvcruntime:undname.obj
 0001:000354cc       ?doAllocationLanguage@UnDecorator@@SAHXZ 00000001800364cc f i libvcruntime:undname.obj
 0001:000354e0       ?doAllocationModel@UnDecorator@@SAHXZ 00000001800364e0 f i libvcruntime:undname.obj
 0001:000354f4       ?doEcsu@UnDecorator@@SAHXZ 00000001800364f4 f i libvcruntime:undname.obj
 0001:00035508       ?doEllipsis@UnDecorator@@SAHXZ 0000000180036508 f i libvcruntime:undname.obj
 0001:0003551c       ?doFunctionReturns@UnDecorator@@SAHXZ 000000018003651c f i libvcruntime:undname.obj
 0001:00035530       ?doMSKeywords@UnDecorator@@SAHXZ 0000000180036530 f i libvcruntime:undname.obj
 0001:00035544       ?doMemberTypes@UnDecorator@@SAHXZ 0000000180036544 f i libvcruntime:undname.obj
 0001:00035558       ?doNameOnly@UnDecorator@@SAHXZ 0000000180036558 f i libvcruntime:undname.obj
 0001:00035568       ?doNoIdentCharCheck@UnDecorator@@SAHXZ 0000000180036568 f i libvcruntime:undname.obj
 0001:00035578       ?doPchar@DName@@AEAAXPEBDH@Z 0000000180036578 f   libvcruntime:undname.obj
 0001:00035648       ?doPtr64@UnDecorator@@SAHXZ 0000000180036648 f i libvcruntime:undname.obj
 0001:0003565c       ?doRestrictionSpec@UnDecorator@@SAHXZ 000000018003665c f i libvcruntime:undname.obj
 0001:00035670       ?doThisTypes@UnDecorator@@SAHXZ 0000000180036670 f i libvcruntime:undname.obj
 0001:00035688       ?doThrowTypes@UnDecorator@@SAHXZ 0000000180036688 f i libvcruntime:undname.obj
 0001:0003569c       ?doTypeOnly@UnDecorator@@SAHXZ 000000018003669c f i libvcruntime:undname.obj
 0001:000356ac       ?doUnderScore@UnDecorator@@SAHXZ 00000001800366ac f i libvcruntime:undname.obj
 0001:000356bc       ?getArgumentList@UnDecorator@@CA?AVDName@@XZ 00000001800366bc f   libvcruntime:undname.obj
 0001:00035834       ?getArgumentTypes@UnDecorator@@CA?AVDName@@XZ 0000000180036834 f   libvcruntime:undname.obj
 0001:00035978       ?getArrayType@UnDecorator@@CA?AVDName@@AEBV2@@Z 0000000180036978 f i libvcruntime:undname.obj
 0001:00035c60       ?getBasedType@UnDecorator@@CA?AVDName@@XZ 0000000180036c60 f   libvcruntime:undname.obj
 0001:00035d5c       ?getBasicDataType@UnDecorator@@CA?AVDName@@AEBV2@@Z 0000000180036d5c f   libvcruntime:undname.obj
 0001:000362cc       ?getCallIndex@UnDecorator@@CA?AVDName@@XZ 00000001800372cc f i libvcruntime:undname.obj
 0001:000362ec       ?getCallingConvention@UnDecorator@@CA?AVDName@@XZ 00000001800372ec f   libvcruntime:undname.obj
 0001:0003644c       ?getDataIndirectType@UnDecorator@@CA?AVDName@@AEBV2@PEBD0H@Z 000000018003744c f   libvcruntime:undname.obj
 0001:00036df0       ?getDataIndirectType@UnDecorator@@CA?AVDName@@XZ 0000000180037df0 f i libvcruntime:undname.obj
 0001:00036e40       ?getDataType@UnDecorator@@CA?AVDName@@PEAV2@@Z 0000000180037e40 f   libvcruntime:undname.obj
 0001:00036f60       ?getDecoratedName@UnDecorator@@CA?AVDName@@XZ 0000000180037f60 f   libvcruntime:undname.obj
 0001:000372ac       ?getDimension@UnDecorator@@CA?AVDName@@_N@Z 00000001800382ac f   libvcruntime:undname.obj
 0001:00037478       ?getDispatchTarget@UnDecorator@@CA?AVDName@@XZ 0000000180038478 f   libvcruntime:undname.obj
 0001:000374d8       ?getDisplacement@UnDecorator@@CA?AVDName@@XZ 00000001800384d8 f i libvcruntime:undname.obj
 0001:000374f8       ?getECSUDataType@UnDecorator@@CA?AVDName@@XZ 00000001800384f8 f   libvcruntime:undname.obj
 0001:000376b0       ?getECSUName@UnDecorator@@CA?AVDName@@XZ 00000001800386b0 f i libvcruntime:undname.obj
 0001:000376cc       ?getEnumType@UnDecorator@@CA?AVDName@@XZ 00000001800386cc f i libvcruntime:undname.obj
 0001:0003780c       ?getExtendedDataIndirectType@UnDecorator@@CA?AVDName@@AEAPEBDAEA_NH@Z 000000018003880c f   libvcruntime:undname.obj
 0001:00037ac8       ?getExternalDataType@UnDecorator@@CA?AVDName@@AEBV2@@Z 0000000180038ac8 f i libvcruntime:undname.obj
 0001:00037bc0       ?getFunctionIndirectType@UnDecorator@@CA?AVDName@@AEBV2@@Z 0000000180038bc0 f   libvcruntime:undname.obj
 0001:00038268       ?getGuardNumber@UnDecorator@@CA?AVDName@@XZ 0000000180039268 f i libvcruntime:undname.obj
 0001:00038288       ?getLastChar@DName@@QEBADXZ 0000000180039288 f i libvcruntime:undname.obj
 0001:000382cc       ?getLastChar@DNameStatusNode@@UEBADXZ 00000001800392cc f i libvcruntime:undname.obj
 0001:000382dc       ?getLastChar@charNode@@UEBADXZ 00000001800392dc f i libvcruntime:undname.obj
 0001:000382e0       ?getLastChar@pDNameNode@@UEBADXZ 00000001800392e0 f i libvcruntime:undname.obj
 0001:0003832c       ?getLastChar@pairNode@@UEBADXZ 000000018003932c f i libvcruntime:undname.obj
 0001:00038398       ?getLastChar@pcharNode@@UEBADXZ 0000000180039398 f i libvcruntime:undname.obj
 0001:000383b4       ?getLexicalFrame@UnDecorator@@CA?AVDName@@XZ 00000001800393b4 f i libvcruntime:undname.obj
 0001:00038444       ?getMemory@_HeapManager@@QEAAPEAX_KH@Z 0000000180039444 f   libvcruntime:undname.obj
 0001:00038524       ?getNoexcept@UnDecorator@@CA?AVDName@@XZ 0000000180039524 f   libvcruntime:undname.obj
 0001:0003857c       ?getNumberOfDimensions@UnDecorator@@CAHXZ 000000018003957c f   libvcruntime:undname.obj
 0001:0003860c       ?getOperatorName@UnDecorator@@CA?AVDName@@_NPEA_N@Z 000000018003960c f i libvcruntime:undname.obj
 0001:00038f74       ?getPointerType@UnDecorator@@CA?AVDName@@AEBV2@0@Z 0000000180039f74 f i libvcruntime:undname.obj
 0001:00038f9c       ?getPointerTypeArray@UnDecorator@@CA?AVDName@@AEBV2@0@Z 0000000180039f9c f i libvcruntime:undname.obj
 0001:00038fc4       ?getPrimaryDataType@UnDecorator@@CA?AVDName@@AEBV2@@Z 0000000180039fc4 f   libvcruntime:undname.obj
 0001:000392b4       ?getPtrRefDataType@UnDecorator@@CA?AVDName@@AEBV2@H@Z 000000018003a2b4 f   libvcruntime:undname.obj
 0001:00039470       ?getPtrRefType@UnDecorator@@CA?AVDName@@AEBV2@0PEBD@Z 000000018003a470 f   libvcruntime:undname.obj
 0001:000395f4       ?getReferenceType@UnDecorator@@CA?AVDName@@AEBV2@0PEBD@Z 000000018003a5f4 f i libvcruntime:undname.obj
 0001:00039610       ?getRestrictionSpec@UnDecorator@@CA?AVDName@@XZ 000000018003a610 f   libvcruntime:undname.obj
 0001:000397a8       ?getReturnType@UnDecorator@@CA?AVDName@@PEAV2@@Z 000000018003a7a8 f   libvcruntime:undname.obj
 0001:000397ec       ?getScope@UnDecorator@@CA?AVDName@@XZ 000000018003a7ec f   libvcruntime:undname.obj
 0001:00039d84       ?getScopedName@UnDecorator@@CA?AVDName@@XZ 000000018003ad84 f   libvcruntime:undname.obj
 0001:00039ec8       ?getSignedDimension@UnDecorator@@CA?AVDName@@XZ 000000018003aec8 f   libvcruntime:undname.obj
 0001:00039f84       ?getStorageConvention@UnDecorator@@CA?AVDName@@XZ 000000018003af84 f i libvcruntime:undname.obj
 0001:00039fd4       ?getString@DName@@QEBAPEADPEAD0@Z 000000018003afd4 f i libvcruntime:undname.obj
 0001:0003a040       ?getString@DName@@QEBAPEADPEADH@Z 000000018003b040 f i libvcruntime:undname.obj
 0001:0003a11c       ?getString@DNameStatusNode@@UEBAPEADPEAD0@Z 000000018003b11c f i libvcruntime:undname.obj
 0001:0003a174       ?getString@charNode@@UEBAPEADPEAD0@Z 000000018003b174 f i libvcruntime:undname.obj
 0001:0003a18c       ?getString@pDNameNode@@UEBAPEADPEAD0@Z 000000018003b18c f i libvcruntime:undname.obj
 0001:0003a204       ?getString@pairNode@@UEBAPEADPEAD0@Z 000000018003b204 f i libvcruntime:undname.obj
 0001:0003a2a8       ?getString@pcharNode@@UEBAPEADPEAD0@Z 000000018003b2a8 f i libvcruntime:undname.obj
 0001:0003a2ec       ?getStringEncoding@UnDecorator@@CA?AVDName@@PEBDH@Z 000000018003b2ec f   libvcruntime:undname.obj
 0001:0003a3f4       ?getStringHelper@@YAPEADPEADPEBD1H@Z 000000018003b3f4 f i libvcruntime:undname.obj
 0001:0003a42c       ?getSymbolName@UnDecorator@@CA?AVDName@@XZ 000000018003b42c f i libvcruntime:undname.obj
 0001:0003a48c       ?getTemplateArgumentList@UnDecorator@@CA?AVDName@@XZ 000000018003b48c f   libvcruntime:undname.obj
 0001:0003a88c       ?getTemplateConstant@UnDecorator@@CA?AVDName@@XZ 000000018003b88c f   libvcruntime:undname.obj
 0001:0003ad54       ?getTemplateName@UnDecorator@@CA?AVDName@@_N@Z 000000018003bd54 f   libvcruntime:undname.obj
 0001:0003afe8       ?getThisType@UnDecorator@@CA?AVDName@@XZ 000000018003bfe8 f i libvcruntime:undname.obj
 0001:0003b03c       ?getThrowTypes@UnDecorator@@CA?AVDName@@XZ 000000018003c03c f   libvcruntime:undname.obj
 0001:0003b068       ?getTypeEncoding@UnDecorator@@CAHXZ 000000018003c068 f i libvcruntime:undname.obj
 0001:0003b494       ?getVCallThunkType@UnDecorator@@CA?AVDName@@XZ 000000018003c494 f i libvcruntime:undname.obj
 0001:0003b508       ?getVbTableType@UnDecorator@@CA?AVDName@@AEBV2@@Z 000000018003c508 f i libvcruntime:undname.obj
 0001:0003b524       ?getVdispMapType@UnDecorator@@CA?AVDName@@AEBV2@@Z 000000018003c524 f i libvcruntime:undname.obj
 0001:0003b59c       ?getVfTableType@UnDecorator@@CA?AVDName@@AEBV2@@Z 000000018003c59c f i libvcruntime:undname.obj
 0001:0003b818       ?getZName@UnDecorator@@CA?AVDName@@_N0@Z 000000018003c818 f   libvcruntime:undname.obj
 0001:0003bbc4       ?haveTemplateParameters@UnDecorator@@SAHXZ 000000018003cbc4 f i libvcruntime:undname.obj
 0001:0003bbd4       ?isArray@DName@@QEBAHXZ    000000018003cbd4 f i libvcruntime:undname.obj
 0001:0003bbe0       ?isComArray@DName@@QEBAHXZ 000000018003cbe0 f i libvcruntime:undname.obj
 0001:0003bbec       ?isEmpty@DName@@QEBAHXZ    000000018003cbec f i libvcruntime:undname.obj
 0001:0003bbf8       ?isFull@Replicator@@QEBAHXZ 000000018003cbf8 f i libvcruntime:undname.obj
 0001:0003bc04       ?isNoTE@DName@@QEBAHXZ     000000018003cc04 f i libvcruntime:undname.obj
 0001:0003bc10       ?isPinPtr@DName@@QEBAHXZ   000000018003cc10 f i libvcruntime:undname.obj
 0001:0003bc1c       ?isPtrRef@DName@@QEBAHXZ   000000018003cc1c f i libvcruntime:undname.obj
 0001:0003bc28       ?isUDC@DName@@QEBAHXZ      000000018003cc28 f i libvcruntime:undname.obj
 0001:0003bc44       ?isUDTThunk@DName@@QEBAHXZ 000000018003cc44 f i libvcruntime:undname.obj
 0001:0003bc60       ?isVCallThunk@DName@@QEBAHXZ 000000018003cc60 f i libvcruntime:undname.obj
 0001:0003bc6c       ?isValid@DName@@QEBAHXZ    000000018003cc6c f i libvcruntime:undname.obj
 0001:0003bc78       ?length@DName@@QEBAHXZ     000000018003cc78 f i libvcruntime:undname.obj
 0001:0003bcbc       ?length@DNameStatusNode@@UEBAHXZ 000000018003ccbc f i libvcruntime:undname.obj
 0001:0003bcc0       ?length@charNode@@UEBAHXZ  000000018003ccc0 f i libvcruntime:undname.obj
 0001:0003bcc8       ?length@pDNameNode@@UEBAHXZ 000000018003ccc8 f i libvcruntime:undname.obj
 0001:0003bd14       ?length@pairNode@@UEBAHXZ  000000018003cd14 f i libvcruntime:undname.obj
 0001:0003bd98       ?length@pcharNode@@UEBAHXZ 000000018003cd98 f i libvcruntime:undname.obj
 0001:0003bd9c       ?make@DNameStatusNode@@SAPEBV1@W4DNameStatus@@@Z 000000018003cd9c f i libvcruntime:undname.obj
 0001:0003bdc4       ?setIsArray@DName@@QEAAXXZ 000000018003cdc4 f i libvcruntime:undname.obj
 0001:0003bdcc       ?setIsComArray@DName@@QEAAXXZ 000000018003cdcc f i libvcruntime:undname.obj
 0001:0003bdd4       ?setIsNoTE@DName@@QEAAXXZ  000000018003cdd4 f i libvcruntime:undname.obj
 0001:0003bddc       ?setIsPinPtr@DName@@QEAAXXZ 000000018003cddc f i libvcruntime:undname.obj
 0001:0003bde4       ?setIsUDC@DName@@QEAAXXZ   000000018003cde4 f i libvcruntime:undname.obj
 0001:0003bdf4       ?setIsVCallThunk@DName@@QEAAXXZ 000000018003cdf4 f i libvcruntime:undname.obj
 0001:0003bdfc       ?setPtrRef@DName@@QEAAAEAV1@XZ 000000018003cdfc f i libvcruntime:undname.obj
 0001:0003be08       ?status@DName@@QEBA?AW4DNameStatus@@XZ 000000018003ce08 f i libvcruntime:undname.obj
 0001:0003be80       __unDName                  000000018003ce80 f   libvcruntime:undname.obj
 0001:0003bfd4       __unDNameEx                000000018003cfd4 f   libvcruntime:undname.obj
 0001:0003c130       _vsprintf_s_l              000000018003d130 f i libvcruntime:undname.obj
 0001:0003c1ac       sprintf_s                  000000018003d1ac f i libvcruntime:undname.obj
 0001:0003c230       _local_unwind              000000018003d230 f   libvcruntime:_jmpuwind_.obj
 0001:0003c260       _NLG_Notify                000000018003d260 f   libvcruntime:_jmpuwind_.obj
 0001:0003c280       __NLG_Dispatch2            000000018003d280 f   libvcruntime:_jmpuwind_.obj
 0001:0003c290       __NLG_Return2              000000018003d290 f   libvcruntime:_jmpuwind_.obj
 0001:0003c2b8       __except_validate_context_record 000000018003d2b8 f   libvcruntime:jbcxrval.obj
 0001:0003c2fc       __except_validate_jump_buffer 000000018003d2fc f   libvcruntime:jbcxrval.obj
 0001:0003c34c       __except_validate_jump_buffer_common 000000018003d34c f i libvcruntime:jbcxrval.obj
 0001:0003c3d0       ??$?RU__vcrt_ptd@@@__crt_internal_free_policy@@QEBAXQEBU__vcrt_ptd@@@Z 000000018003d3d0 f i libvcruntime:per_thread_data.obj
 0001:0003c3dc       ??0?$__crt_unique_heap_ptr@U__vcrt_ptd@@U__crt_internal_free_policy@@@@QEAA@QEAU__vcrt_ptd@@@Z 000000018003d3dc f i libvcruntime:per_thread_data.obj
 0001:0003c404       ??1?$__crt_unique_heap_ptr@U__vcrt_ptd@@U__crt_internal_free_policy@@@@QEAA@XZ 000000018003d404 f i libvcruntime:per_thread_data.obj
 0001:0003c434       ??B?$__crt_unique_heap_ptr@U__vcrt_ptd@@U__crt_internal_free_policy@@@@QEBA_NXZ 000000018003d434 f i libvcruntime:per_thread_data.obj
 0001:0003c440       ?detach@?$__crt_unique_heap_ptr@U__vcrt_ptd@@U__crt_internal_free_policy@@@@QEAAPEAU__vcrt_ptd@@XZ 000000018003d440 f i libvcruntime:per_thread_data.obj
 0001:0003c44c       ?get@?$__crt_unique_heap_ptr@U__vcrt_ptd@@U__crt_internal_free_policy@@@@QEBAPEAU__vcrt_ptd@@XZ 000000018003d44c f i libvcruntime:per_thread_data.obj
 0001:0003c450       ?is_valid@?$__crt_unique_heap_ptr@U__vcrt_ptd@@U__crt_internal_free_policy@@@@QEBA_NXZ 000000018003d450 f i libvcruntime:per_thread_data.obj
 0001:0003c45c       ?release@?$__crt_unique_heap_ptr@U__vcrt_ptd@@U__crt_internal_free_policy@@@@QEAAXXZ 000000018003d45c f i libvcruntime:per_thread_data.obj
 0001:0003c4a4       __vcrt_freefls             000000018003d4a4 f   libvcruntime:per_thread_data.obj
 0001:0003c4cc       __vcrt_freeptd             000000018003d4cc f   libvcruntime:per_thread_data.obj
 0001:0003c52c       __vcrt_getptd              000000018003d52c f   libvcruntime:per_thread_data.obj
 0001:0003c54c       __vcrt_getptd_noexit       000000018003d54c f   libvcruntime:per_thread_data.obj
 0001:0003c634       __vcrt_getptd_noinit       000000018003d634 f   libvcruntime:per_thread_data.obj
 0001:0003c694       __vcrt_initialize_ptd      000000018003d694 f   libvcruntime:per_thread_data.obj
 0001:0003c6fc       __vcrt_uninitialize_ptd    000000018003d6fc f   libvcruntime:per_thread_data.obj
 0001:0003c728       __vcrt_initialize_locks    000000018003d728 f   libvcruntime:locks.obj
 0001:0003c780       __vcrt_lock                000000018003d780 f   libvcruntime:locks.obj
 0001:0003c7a0       __vcrt_uninitialize_locks  000000018003d7a0 f   libvcruntime:locks.obj
 0001:0003c7e4       __vcrt_unlock              000000018003d7e4 f   libvcruntime:locks.obj
 0001:0003c804       ??$?BX@__crt_fast_encoded_nullptr_t@@QEBAPEAXXZ 000000018003d804 f i libvcruntime:winapi_downlevel.obj
 0001:0003c828       ??$__crt_fast_decode_pointer@PEAX@@YAPEAXQEAX@Z 000000018003d828 f i libvcruntime:winapi_downlevel.obj
 0001:0003c844       ??$__crt_fast_encode_pointer@PEAX@@YAPEAXQEAX@Z 000000018003d844 f i libvcruntime:winapi_downlevel.obj
 0001:0003c86c       ??$__crt_interlocked_exchange_pointer@UHINSTANCE__@@PEAU1@@@YAPEAUHINSTANCE__@@PEDSEAU0@QEAU0@@Z 000000018003d86c f i libvcruntime:winapi_downlevel.obj
 0001:0003c874       ??$__crt_interlocked_exchange_pointer@UHINSTANCE__@@PEAX@@YAPEAUHINSTANCE__@@PEDSEAU0@QEAX@Z 000000018003d874 f i libvcruntime:winapi_downlevel.obj
 0001:0003c87c       ??$__crt_interlocked_exchange_pointer@XPEAX@@YAPEAXPEDSEAXQEAX@Z 000000018003d87c f i libvcruntime:winapi_downlevel.obj
 0001:0003c884       ??$__crt_interlocked_read_pointer@UHINSTANCE__@@@@YAPEAUHINSTANCE__@@PEDSEAU0@@Z 000000018003d884 f i libvcruntime:winapi_downlevel.obj
 0001:0003c888       ??$__crt_interlocked_read_pointer@X@@YAPEAXPEDSEAX@Z 000000018003d888 f i libvcruntime:winapi_downlevel.obj
 0001:0003d058       __vcrt_FlsAlloc            000000018003e058 f   libvcruntime:winapi_downlevel.obj
 0001:0003d0c0       __vcrt_FlsFree             000000018003e0c0 f   libvcruntime:winapi_downlevel.obj
 0001:0003d12c       __vcrt_FlsGetValue         000000018003e12c f   libvcruntime:winapi_downlevel.obj
 0001:0003d198       __vcrt_FlsSetValue         000000018003e198 f   libvcruntime:winapi_downlevel.obj
 0001:0003d218       __vcrt_InitializeCriticalSectionEx 000000018003e218 f   libvcruntime:winapi_downlevel.obj
 0001:0003d2ac       __vcrt_initialize_winapi_thunks 000000018003e2ac f   libvcruntime:winapi_downlevel.obj
 0001:0003d300       __vcrt_uninitialize_winapi_thunks 000000018003e300 f   libvcruntime:winapi_downlevel.obj
 0001:0003d350       _fpclass                   000000018003e350 f   libucrt:ieeemisc.obj
 0001:0003d428       _fpclassf                  000000018003e428 f   libucrt:ieeemisc.obj
 0001:0003d4bc       _isnan                     000000018003e4bc f   libucrt:ieeemisc.obj
 0001:0003d4f4       _isnanf                    000000018003e4f4 f   libucrt:ieeemisc.obj
 0001:0003d514       _nextafter                 000000018003e514 f   libucrt:ieeemisc.obj
 0001:0003d51c       _nextafterf                000000018003e51c f   libucrt:ieeemisc.obj
 0001:0003d524       _scalb                     000000018003e524 f   libucrt:ieeemisc.obj
 0001:0003d72c       _scalbf                    000000018003e72c f   libucrt:ieeemisc.obj
 0001:0003d930       _initterm                  000000018003e930 f   libucrt:initterm.obj
 0001:0003d9c4       _initterm_e                000000018003e9c4 f   libucrt:initterm.obj
 0001:0003da24       free                       000000018003ea24 f   libucrt:free.obj
 0001:0003da50       _seh_filter_dll            000000018003ea50 f   libucrt:exception_filter.obj
 0001:0003da68       _seh_filter_exe            000000018003ea68 f   libucrt:exception_filter.obj
 0001:0003dc58       ??$?B$$A6AXPEAXK0@Z@__crt_fast_encoded_nullptr_t@@QEBAP6AXPEAXK0@ZXZ 000000018003ec58 f i libucrt:exit.obj
 0001:0003dc7c       ??$__crt_fast_decode_pointer@P6AXPEAXK0@Z@@YAP6AXPEAXK0@ZQ6AX0K0@Z@Z 000000018003ec7c f i libucrt:exit.obj
 0001:0003dc98       ??$__crt_fast_encode_pointer@P6AXPEAXK0@Z@@YAP6AXPEAXK0@ZQ6AX0K0@Z@Z 000000018003ec98 f i libucrt:exit.obj
 0001:0003dcc0       ??$__crt_get_proc_address@P6AXI@Z@@YAP6AXI@ZQEAUHINSTANCE__@@QEBD@Z 000000018003ecc0 f i libucrt:exit.obj
 0001:0003dcc8       ??$__crt_interlocked_read@J@@YAJPEDJ@Z 000000018003ecc8 f i libucrt:exit.obj
 0001:0003dccc       ??0?$__crt_unique_handle_t@U__crt_hmodule_traits@@@@QEAA@QEAUHINSTANCE__@@@Z 000000018003eccc f i libucrt:exit.obj
 0001:0003dcd4       ??1?$__crt_unique_handle_t@U__crt_hmodule_traits@@@@QEAA@XZ 000000018003ecd4 f i libucrt:exit.obj
 0001:0003dd00       ?__crt_interlocked_read_32@@YAHPEDH@Z 000000018003ed00 f i libucrt:exit.obj
 0001:0003dd14       ?close@?$__crt_unique_handle_t@U__crt_hmodule_traits@@@@QEAAXXZ 000000018003ed14 f i libucrt:exit.obj
 0001:0003dd40       ?close@__crt_hmodule_traits@@SA_NPEAUHINSTANCE__@@@Z 000000018003ed40 f i libucrt:exit.obj
 0001:0003df80       ?get@?$__crt_unique_handle_t@U__crt_hmodule_traits@@@@QEBAPEAUHINSTANCE__@@XZ 000000018003ef80 f i libucrt:exit.obj
 0001:0003df84       ?get_address_of@?$__crt_unique_handle_t@U__crt_hmodule_traits@@@@QEAAPEAPEAUHINSTANCE__@@XZ 000000018003ef84 f i libucrt:exit.obj
 0001:0003df88       ?get_invalid_value@__crt_hmodule_traits@@SAPEAUHINSTANCE__@@XZ 000000018003ef88 f i libucrt:exit.obj
 0001:0003e0b4       _Exit                      000000018003f0b4 f   libucrt:exit.obj
 0001:0003e0c4       __acrt_initialize_thread_local_exit_callback 000000018003f0c4 f   libucrt:exit.obj
 0001:0003e0d0       _c_exit                    000000018003f0d0 f   libucrt:exit.obj
 0001:0003e0e4       _cexit                     000000018003f0e4 f   libucrt:exit.obj
 0001:0003e0f4       _exit                      000000018003f0f4 f   libucrt:exit.obj
 0001:0003e104       _is_c_termination_complete 000000018003f104 f   libucrt:exit.obj
 0001:0003e10c       _register_thread_local_exe_atexit_callback 000000018003f10c f   libucrt:exit.obj
 0001:0003e164       exit                       000000018003f164 f   libucrt:exit.obj
 0001:0003e170       quick_exit                 000000018003f170 f   libucrt:exit.obj
 0001:0003e180       ??$?RE@__crt_internal_free_policy@@QEBAXQEBE@Z 000000018003f180 f i libucrt:argv_parsing.obj
 0001:0003e18c       ??$?RPEAD@__crt_internal_free_policy@@QEBAXQEBQEAD@Z 000000018003f18c f i libucrt:argv_parsing.obj
 0001:0003e198       ??$?RPEA_W@__crt_internal_free_policy@@QEBAXQEBQEA_W@Z 000000018003f198 f i libucrt:argv_parsing.obj
 0001:0003e52c       ??$get_module_file_name@$$TAEAY0BAF@DH@?$__crt_char_traits@D@@SAK$$QEA$$TAEAY0BAF@D$$QEAH@Z 000000018003f52c f i libucrt:argv_parsing.obj
 0001:0003e53c       ??$get_module_file_name@$$TAEAY0BAF@_WH@?$__crt_char_traits@_W@@SAK$$QEA$$TAEAY0BAF@_W$$QEAH@Z 000000018003f53c f i libucrt:argv_parsing.obj
 0001:0003e974       ??$set_program_name@PEAD@?$__crt_char_traits@D@@SAX$$QEAPEAD@Z 000000018003f974 f i libucrt:argv_parsing.obj
 0001:0003e984       ??$set_program_name@PEA_W@?$__crt_char_traits@_W@@SAX$$QEAPEA_W@Z 000000018003f984 f i libucrt:argv_parsing.obj
 0001:0003e9a4       ??0?$__crt_unique_heap_ptr@EU__crt_internal_free_policy@@@@QEAA@QEAE@Z 000000018003f9a4 f i libucrt:argv_parsing.obj
 0001:0003e9ac       ??0?$__crt_unique_heap_ptr@PEADU__crt_internal_free_policy@@@@QEAA@QEAPEAD@Z 000000018003f9ac f i libucrt:argv_parsing.obj
 0001:0003e9b4       ??0?$__crt_unique_heap_ptr@PEA_WU__crt_internal_free_policy@@@@QEAA@QEAPEA_W@Z 000000018003f9b4 f i libucrt:argv_parsing.obj
 0001:0003e9bc       ??1?$__crt_unique_heap_ptr@EU__crt_internal_free_policy@@@@QEAA@XZ 000000018003f9bc f i libucrt:argv_parsing.obj
 0001:0003e9e0       ??1?$__crt_unique_heap_ptr@PEADU__crt_internal_free_policy@@@@QEAA@XZ 000000018003f9e0 f i libucrt:argv_parsing.obj
 0001:0003ea04       ??1?$__crt_unique_heap_ptr@PEA_WU__crt_internal_free_policy@@@@QEAA@XZ 000000018003fa04 f i libucrt:argv_parsing.obj
 0001:0003ea28       ??B?$__crt_unique_heap_ptr@EU__crt_internal_free_policy@@@@QEBA_NXZ 000000018003fa28 f i libucrt:argv_parsing.obj
 0001:0003ea7c       ?detach@?$__crt_unique_heap_ptr@EU__crt_internal_free_policy@@@@QEAAPEAEXZ 000000018003fa7c f i libucrt:argv_parsing.obj
 0001:0003ea88       ?detach@?$__crt_unique_heap_ptr@PEADU__crt_internal_free_policy@@@@QEAAPEAPEADXZ 000000018003fa88 f i libucrt:argv_parsing.obj
 0001:0003ea94       ?detach@?$__crt_unique_heap_ptr@PEA_WU__crt_internal_free_policy@@@@QEAAPEAPEA_WXZ 000000018003fa94 f i libucrt:argv_parsing.obj
 0001:0003eabc       ?get@?$__crt_unique_heap_ptr@EU__crt_internal_free_policy@@@@QEBAPEAEXZ 000000018003fabc f i libucrt:argv_parsing.obj
 0001:0003eac0       ?get@?$__crt_unique_heap_ptr@PEADU__crt_internal_free_policy@@@@QEBAPEAPEADXZ 000000018003fac0 f i libucrt:argv_parsing.obj
 0001:0003eac4       ?get@?$__crt_unique_heap_ptr@PEA_WU__crt_internal_free_policy@@@@QEBAPEAPEA_WXZ 000000018003fac4 f i libucrt:argv_parsing.obj
 0001:0003eac8       ?get_address_of@?$__crt_unique_heap_ptr@PEADU__crt_internal_free_policy@@@@QEAAPEAPEAPEADXZ 000000018003fac8 f i libucrt:argv_parsing.obj
 0001:0003eacc       ?get_address_of@?$__crt_unique_heap_ptr@PEA_WU__crt_internal_free_policy@@@@QEAAPEAPEAPEA_WXZ 000000018003facc f i libucrt:argv_parsing.obj
 0001:0003eb00       ?is_valid@?$__crt_unique_heap_ptr@EU__crt_internal_free_policy@@@@QEBA_NXZ 000000018003fb00 f i libucrt:argv_parsing.obj
 0001:0003eb0c       ?release@?$__crt_unique_heap_ptr@EU__crt_internal_free_policy@@@@QEAAXXZ 000000018003fb0c f i libucrt:argv_parsing.obj
 0001:0003eb30       ?release@?$__crt_unique_heap_ptr@PEADU__crt_internal_free_policy@@@@QEAAXXZ 000000018003fb30 f i libucrt:argv_parsing.obj
 0001:0003eb54       ?release@?$__crt_unique_heap_ptr@PEA_WU__crt_internal_free_policy@@@@QEAAXXZ 000000018003fb54 f i libucrt:argv_parsing.obj
 0001:0003eb98       __acrt_allocate_buffer_for_argv 000000018003fb98 f   libucrt:argv_parsing.obj
 0001:0003ec14       _configure_narrow_argv     000000018003fc14 f   libucrt:argv_parsing.obj
 0001:0003ede8       _configure_wide_argv       000000018003fde8 f   libucrt:argv_parsing.obj
 0001:0003efb8       _set_pgmptr                000000018003ffb8 f i libucrt:argv_parsing.obj
 0001:0003efc4       _set_wpgmptr               000000018003ffc4 f i libucrt:argv_parsing.obj
 0001:0003efd0       ??$?R_W@__crt_internal_free_policy@@QEBAXQEB_W@Z 000000018003ffd0 f i libucrt:environment_initialization.obj
 0001:0003f57c       ??$get_environment_from_os@$$$V@?$__crt_char_traits@D@@SAPEADXZ 000000018004057c f i libucrt:environment_initialization.obj
 0001:0003f584       ??$get_environment_from_os@$$$V@?$__crt_char_traits@_W@@SAPEA_WXZ 0000000180040584 f i libucrt:environment_initialization.obj
 0001:0003f770       ??$set_variable_in_environment_nolock@PEADH@?$__crt_char_traits@D@@SAH$$QEAPEAD$$QEAH@Z 0000000180040770 f i libucrt:environment_initialization.obj
 0001:0003f77c       ??$set_variable_in_environment_nolock@PEA_WH@?$__crt_char_traits@_W@@SAH$$QEAPEA_W$$QEAH@Z 000000018004077c f i libucrt:environment_initialization.obj
 0001:0003f788       ??$tcscpy_s@PEADAEB_KAEAPEAD@?$__crt_char_traits@D@@SAH$$QEAPEADAEB_KAEAPEAD@Z 0000000180040788 f i libucrt:environment_initialization.obj
 0001:0003f79c       ??$tcscpy_s@PEA_WAEB_KAEAPEA_W@?$__crt_char_traits@_W@@SAH$$QEAPEA_WAEB_KAEAPEA_W@Z 000000018004079c f i libucrt:environment_initialization.obj
 0001:0003f7b0       ??$tcslen@AEAPEAD@?$__crt_char_traits@D@@SA_KAEAPEAD@Z 00000001800407b0 f i libucrt:environment_initialization.obj
 0001:0003f7c8       ??$tcslen@AEAPEA_W@?$__crt_char_traits@_W@@SA_KAEAPEA_W@Z 00000001800407c8 f i libucrt:environment_initialization.obj
 0001:0003f7e0       ??$uninitialize@A6AXAEAPEAPEAD@Z@?$dual_state_global@PEAPEAD@__crt_state_management@@QEAAXA6AXAEAPEAPEAD@Z@Z 00000001800407e0 f i libucrt:environment_initialization.obj
 0001:0003f838       ??$uninitialize@A6AXAEAPEAPEA_W@Z@?$dual_state_global@PEAPEA_W@__crt_state_management@@QEAAXA6AXAEAPEAPEA_W@Z@Z 0000000180040838 f i libucrt:environment_initialization.obj
 0001:0003f8d0       ??0?$__crt_unique_heap_ptr@_WU__crt_internal_free_policy@@@@QEAA@QEA_W@Z 00000001800408d0 f i libucrt:environment_initialization.obj
 0001:0003f8d8       ??1?$__crt_unique_heap_ptr@_WU__crt_internal_free_policy@@@@QEAA@XZ 00000001800408d8 f i libucrt:environment_initialization.obj
 0001:0003f8fc       ??B?$__crt_unique_heap_ptr@PEADU__crt_internal_free_policy@@@@QEBA_NXZ 00000001800408fc f i libucrt:environment_initialization.obj
 0001:0003f908       ??B?$__crt_unique_heap_ptr@PEA_WU__crt_internal_free_policy@@@@QEBA_NXZ 0000000180040908 f i libucrt:environment_initialization.obj
 0001:0003f914       ??B?$__crt_unique_heap_ptr@_WU__crt_internal_free_policy@@@@QEBA_NXZ 0000000180040914 f i libucrt:environment_initialization.obj
 0001:0003f920       ?__crt_compute_required_transform_buffer_count@@YA_KIQEBD@Z 0000000180040920 f i libucrt:environment_initialization.obj
 0001:0003f950       ?__crt_compute_required_transform_buffer_count@@YA_KIQEB_W@Z 0000000180040950 f i libucrt:environment_initialization.obj
 0001:0003f98c       ?__crt_transform_string@@YA_KIQEBDQEA_W_K@Z 000000018004098c f i libucrt:environment_initialization.obj
 0001:0003f9bc       ?__crt_transform_string@@YA_KIQEB_WQEAD_K@Z 00000001800409bc f i libucrt:environment_initialization.obj
 0001:0003f9f8       ?detach@?$__crt_unique_heap_ptr@DU__crt_internal_free_policy@@@@QEAAPEADXZ 00000001800409f8 f i libucrt:environment_initialization.obj
 0001:0003fa04       ?detach@?$__crt_unique_heap_ptr@_WU__crt_internal_free_policy@@@@QEAAPEA_WXZ 0000000180040a04 f i libucrt:environment_initialization.obj
 0001:0003fa10       ?get@?$__crt_unique_heap_ptr@_WU__crt_internal_free_policy@@@@QEBAPEA_WXZ 0000000180040a10 f i libucrt:environment_initialization.obj
 0001:0003fa14       ?get_current_state_index@__crt_state_management@@YA_KXZ 0000000180040a14 f i libucrt:environment_initialization.obj
 0001:0003fa60       ?initialize@?$dual_state_global@PEAPEAD@__crt_state_management@@QEAAXQEAPEAD@Z 0000000180040a60 f i libucrt:environment_initialization.obj
 0001:0003faa0       ?initialize@?$dual_state_global@PEAPEA_W@__crt_state_management@@QEAAXQEAPEA_W@Z 0000000180040aa0 f i libucrt:environment_initialization.obj
 0001:0003fae0       ?is_valid@?$__crt_unique_heap_ptr@PEADU__crt_internal_free_policy@@@@QEBA_NXZ 0000000180040ae0 f i libucrt:environment_initialization.obj
 0001:0003faec       ?is_valid@?$__crt_unique_heap_ptr@PEA_WU__crt_internal_free_policy@@@@QEBA_NXZ 0000000180040aec f i libucrt:environment_initialization.obj
 0001:0003faf8       ?is_valid@?$__crt_unique_heap_ptr@_WU__crt_internal_free_policy@@@@QEBA_NXZ 0000000180040af8 f i libucrt:environment_initialization.obj
 0001:0003fb10       ?release@?$__crt_unique_heap_ptr@_WU__crt_internal_free_policy@@@@QEAAXXZ 0000000180040b10 f i libucrt:environment_initialization.obj
 0001:0003fb34       ?value@?$dual_state_global@PEAPEAD@__crt_state_management@@QEAAAEAPEAPEADXZ 0000000180040b34 f i libucrt:environment_initialization.obj
 0001:0003fb38       ?value@?$dual_state_global@PEAPEA_W@__crt_state_management@@QEAAAEAPEAPEA_WXZ 0000000180040b38 f i libucrt:environment_initialization.obj
 0001:0003fb3c       __dcrt_get_or_create_narrow_environment_nolock 0000000180040b3c f   libucrt:environment_initialization.obj
 0001:0003fb44       __dcrt_get_or_create_wide_environment_nolock 0000000180040b44 f   libucrt:environment_initialization.obj
 0001:0003fb4c       __dcrt_uninitialize_environments_nolock 0000000180040b4c f   libucrt:environment_initialization.obj
 0001:0003fb94       __p__environ               0000000180040b94 f   libucrt:environment_initialization.obj
 0001:0003fba0       __p__wenviron              0000000180040ba0 f   libucrt:environment_initialization.obj
 0001:0003fbac       _get_initial_narrow_environment 0000000180040bac f   libucrt:environment_initialization.obj
 0001:0003fbd8       _get_initial_wide_environment 0000000180040bd8 f   libucrt:environment_initialization.obj
 0001:0003fc04       _initialize_narrow_environment 0000000180040c04 f   libucrt:environment_initialization.obj
 0001:0003fc0c       _initialize_wide_environment 0000000180040c0c f   libucrt:environment_initialization.obj
 0001:0003fc14       _invoke_watson_if_error    0000000180040c14 f i libucrt:environment_initialization.obj
 0001:0003fc54       ??$?BP6AXXZ@__crt_fast_encoded_nullptr_t@@QEBAPEAP6AXXZXZ 0000000180040c54 f i libucrt:onexit.obj
 0001:0003fc78       ??$?RP6AXXZ@__crt_internal_free_policy@@QEBAXQEBQ6AXXZ@Z 0000000180040c78 f i libucrt:onexit.obj
 0001:0003fc84       ??$?RV<lambda_b8c45f8f788dd370798f47cfe8ac3a86>@@AEAV<lambda_4e60a939b0d047cfe11ddc22648dfba9>@@V<lambda_332c3edc96d0294ec56c57d38c1cdfd5>@@@?$__crt_seh_guarded_call@H@@QEAAH$$QEAV<lambda_b8c45f8f788dd370798f47cfe8ac3a86>@@AEAV<lambda_4e60a939b0d047cfe11ddc22648dfba9>@@$$QEAV<lambda_332c3edc96d0294ec56c57d38c1cdfd5>@@@Z 0000000180040c84 f i libucrt:onexit.obj
 0001:0003fcd0       ??$?RV<lambda_e24bbb7b643b32fcea6fa61b31d4c984>@@AEAV<lambda_275893d493268fdec8709772e3fcec0e>@@V<lambda_9d71df4d7cf3f480f8d633942495c3b0>@@@?$__crt_seh_guarded_call@H@@QEAAH$$QEAV<lambda_e24bbb7b643b32fcea6fa61b31d4c984>@@AEAV<lambda_275893d493268fdec8709772e3fcec0e>@@$$QEAV<lambda_9d71df4d7cf3f480f8d633942495c3b0>@@@Z 0000000180040cd0 f i libucrt:onexit.obj
 0001:0003fed8       ??$__acrt_lock_and_call@V<lambda_275893d493268fdec8709772e3fcec0e>@@@@YAHW4__acrt_lock_id@@$$QEAV<lambda_275893d493268fdec8709772e3fcec0e>@@@Z 0000000180040ed8 f i libucrt:onexit.obj
 0001:0003ff08       ??$__acrt_lock_and_call@V<lambda_4e60a939b0d047cfe11ddc22648dfba9>@@@@YAHW4__acrt_lock_id@@$$QEAV<lambda_4e60a939b0d047cfe11ddc22648dfba9>@@@Z 0000000180040f08 f i libucrt:onexit.obj
 0001:0003ff38       ??$__crt_fast_encode_pointer@P6AHXZ@@YAP6AHXZQ6AHXZ@Z 0000000180040f38 f i libucrt:onexit.obj
 0001:0003ffa8       ??0?$__crt_unique_heap_ptr@P6AXXZU__crt_internal_free_policy@@@@QEAA@QEAP6AXXZ@Z 0000000180040fa8 f i libucrt:onexit.obj
 0001:0003ffb0       ??1?$__crt_unique_heap_ptr@P6AXXZU__crt_internal_free_policy@@@@QEAA@XZ 0000000180040fb0 f i libucrt:onexit.obj
 0001:000403e8       ?detach@?$__crt_unique_heap_ptr@P6AXXZU__crt_internal_free_policy@@@@QEAAPEAP6AXXZXZ 00000001800413e8 f i libucrt:onexit.obj
 0001:000403f4       ?release@?$__crt_unique_heap_ptr@P6AXXZU__crt_internal_free_policy@@@@QEAAXXZ 00000001800413f4 f i libucrt:onexit.obj
 0001:00040418       _crt_at_quick_exit         0000000180041418 f   libucrt:onexit.obj
 0001:0004042c       _crt_atexit                000000018004142c f   libucrt:onexit.obj
 0001:00040440       _execute_onexit_table      0000000180041440 f   libucrt:onexit.obj
 0001:00040488       _initialize_onexit_table   0000000180041488 f   libucrt:onexit.obj
 0001:000404d8       _register_onexit_function  00000001800414d8 f   libucrt:onexit.obj
 0001:000406c4       ?initialize@?$dual_state_global@PEAU__crt_locale_data@@@__crt_state_management@@QEAAXQEAU__crt_locale_data@@@Z 00000001800416c4 f i libucrt:initialization.obj
 0001:00040704       __acrt_initialize          0000000180041704 f   libucrt:initialization.obj
 0001:0004071c       __acrt_thread_attach       000000018004171c f   libucrt:initialization.obj
 0001:00040738       __acrt_thread_detach       0000000180041738 f   libucrt:initialization.obj
 0001:0004074c       __acrt_uninitialize        000000018004174c f   libucrt:initialization.obj
 0001:00040764       __acrt_uninitialize_critical 0000000180041764 f   libucrt:initialization.obj
 0001:00040790       _get_terminate             0000000180041790 f   libucrt:terminate.obj
 0001:000407bc       set_terminate              00000001800417bc f   libucrt:terminate.obj
 0001:000407f4       terminate                  00000001800417f4 f   libucrt:terminate.obj
 0001:00040824       _set_abort_behavior        0000000180041824 f   libucrt:abort.obj
 0001:00040848       abort                      0000000180041848 f   libucrt:abort.obj
 0001:000408b4       ??$__crt_interlocked_exchange_pointer@X$$T@@YAPEAXPEDSEAX$$T@Z 00000001800418b4 f i libucrt:free_base.obj
 0001:000408c8       __acrt_get_msvcrt_heap_handle 00000001800418c8 f   libucrt:free_base.obj
 0001:00040950       _free_base                 0000000180041950 f   libucrt:free_base.obj
 0001:0004099c       _malloc_base               000000018004199c f   libucrt:malloc_base.obj
 0001:00040a90       strcpy_s                   0000000180041a90 f   libucrt:strcpy_s.obj
 0001:00040b08       ??$?0AEBV?$stream_output_adapter@D@__crt_stdio_output@@AEB_KAEBQEBDAEBQEAU__crt_locale_pointers@@AEBQEAD@?$format_validation_base@DV?$stream_output_adapter@D@__crt_stdio_output@@@__crt_stdio_output@@IEAA@AEBV?$stream_output_adapter@D@1@AEB_KAEBQEBDAEBQEAU__crt_locale_pointers@@AEBQEAD@Z 0000000180041b08 f i libucrt:output.obj
 0001:00040bac       ??$?0AEBV?$stream_output_adapter@D@__crt_stdio_output@@AEB_KAEBQEBDAEBQEAU__crt_locale_pointers@@AEBQEAD@?$positional_parameter_base@DV?$stream_output_adapter@D@__crt_stdio_output@@@__crt_stdio_output@@IEAA@AEBV?$stream_output_adapter@D@1@AEB_KAEBQEBDAEBQEAU__crt_locale_pointers@@AEBQEAD@Z 0000000180041bac f i libucrt:output.obj
 0001:00040c74       ??$?0AEBV?$stream_output_adapter@D@__crt_stdio_output@@AEB_KAEBQEBDAEBQEAU__crt_locale_pointers@@AEBQEAD@?$standard_base@DV?$stream_output_adapter@D@__crt_stdio_output@@@__crt_stdio_output@@IEAA@AEBV?$stream_output_adapter@D@1@AEB_KAEBQEBDAEBQEAU__crt_locale_pointers@@AEBQEAD@Z 0000000180041c74 f i libucrt:output.obj
 0001:00040d18       ??$?0AEBV?$stream_output_adapter@_W@__crt_stdio_output@@AEB_KAEBQEB_WAEBQEAU__crt_locale_pointers@@AEBQEAD@?$format_validation_base@_WV?$stream_output_adapter@_W@__crt_stdio_output@@@__crt_stdio_output@@IEAA@AEBV?$stream_output_adapter@_W@1@AEB_KAEBQEB_WAEBQEAU__crt_locale_pointers@@AEBQEAD@Z 0000000180041d18 f i libucrt:output.obj
 0001:00040dc0       ??$?0AEBV?$stream_output_adapter@_W@__crt_stdio_output@@AEB_KAEBQEB_WAEBQEAU__crt_locale_pointers@@AEBQEAD@?$positional_parameter_base@_WV?$stream_output_adapter@_W@__crt_stdio_output@@@__crt_stdio_output@@IEAA@AEBV?$stream_output_adapter@_W@1@AEB_KAEBQEB_WAEBQEAU__crt_locale_pointers@@AEBQEAD@Z 0000000180041dc0 f i libucrt:output.obj
 0001:00040e8c       ??$?0AEBV?$stream_output_adapter@_W@__crt_stdio_output@@AEB_KAEBQEB_WAEBQEAU__crt_locale_pointers@@AEBQEAD@?$standard_base@_WV?$stream_output_adapter@_W@__crt_stdio_output@@@__crt_stdio_output@@IEAA@AEBV?$stream_output_adapter@_W@1@AEB_KAEBQEB_WAEBQEAU__crt_locale_pointers@@AEBQEAD@Z 0000000180041e8c f i libucrt:output.obj
 0001:00040f34       ??$?0AEBV?$string_output_adapter@D@__crt_stdio_output@@AEB_KAEBQEBDAEBQEAU__crt_locale_pointers@@AEBQEAD@?$format_validation_base@DV?$string_output_adapter@D@__crt_stdio_output@@@__crt_stdio_output@@IEAA@AEBV?$string_output_adapter@D@1@AEB_KAEBQEBDAEBQEAU__crt_locale_pointers@@AEBQEAD@Z 0000000180041f34 f i libucrt:output.obj
 0001:00040fd8       ??$?0AEBV?$string_output_adapter@D@__crt_stdio_output@@AEB_KAEBQEBDAEBQEAU__crt_locale_pointers@@AEBQEAD@?$positional_parameter_base@DV?$string_output_adapter@D@__crt_stdio_output@@@__crt_stdio_output@@IEAA@AEBV?$string_output_adapter@D@1@AEB_KAEBQEBDAEBQEAU__crt_locale_pointers@@AEBQEAD@Z 0000000180041fd8 f i libucrt:output.obj
 0001:000410a0       ??$?0AEBV?$string_output_adapter@D@__crt_stdio_output@@AEB_KAEBQEBDAEBQEAU__crt_locale_pointers@@AEBQEAD@?$standard_base@DV?$string_output_adapter@D@__crt_stdio_output@@@__crt_stdio_output@@IEAA@AEBV?$string_output_adapter@D@1@AEB_KAEBQEBDAEBQEAU__crt_locale_pointers@@AEBQEAD@Z 00000001800420a0 f i libucrt:output.obj
 0001:00041144       ??$?0AEBV?$string_output_adapter@_W@__crt_stdio_output@@AEB_KAEBQEB_WAEBQEAU__crt_locale_pointers@@AEBQEAD@?$format_validation_base@_WV?$string_output_adapter@_W@__crt_stdio_output@@@__crt_stdio_output@@IEAA@AEBV?$string_output_adapter@_W@1@AEB_KAEBQEB_WAEBQEAU__crt_locale_pointers@@AEBQEAD@Z 0000000180042144 f i libucrt:output.obj
 0001:000411ec       ??$?0AEBV?$string_output_adapter@_W@__crt_stdio_output@@AEB_KAEBQEB_WAEBQEAU__crt_locale_pointers@@AEBQEAD@?$positional_parameter_base@_WV?$string_output_adapter@_W@__crt_stdio_output@@@__crt_stdio_output@@IEAA@AEBV?$string_output_adapter@_W@1@AEB_KAEBQEB_WAEBQEAU__crt_locale_pointers@@AEBQEAD@Z 00000001800421ec f i libucrt:output.obj
 0001:000412b8       ??$?0AEBV?$string_output_adapter@_W@__crt_stdio_output@@AEB_KAEBQEB_WAEBQEAU__crt_locale_pointers@@AEBQEAD@?$standard_base@_WV?$string_output_adapter@_W@__crt_stdio_output@@@__crt_stdio_output@@IEAA@AEBV?$string_output_adapter@_W@1@AEB_KAEBQEB_WAEBQEAU__crt_locale_pointers@@AEBQEAD@Z 00000001800422b8 f i libucrt:output.obj
 0001:00041360       ??$?RV<lambda_2647abb55a408a205467c4169a724277>@@AEAV<lambda_576477a770bb5ab586b2d9569451c7f7>@@V<lambda_c2b006f504a10a4cf14b9a1fbce2a01e>@@@?$__crt_seh_guarded_call@H@@QEAAH$$QEAV<lambda_2647abb55a408a205467c4169a724277>@@AEAV<lambda_576477a770bb5ab586b2d9569451c7f7>@@$$QEAV<lambda_c2b006f504a10a4cf14b9a1fbce2a01e>@@@Z 0000000180042360 f i libucrt:output.obj
 0001:000413ac       ??$?RV<lambda_2b8ba55cb2a29189d70f882b678c7350>@@AEAV<lambda_ab9668973a2a61b07c64846465621f55>@@V<lambda_748afda9c1ab82b4e15f74dcdf75db74>@@@?$__crt_seh_guarded_call@H@@QEAAH$$QEAV<lambda_2b8ba55cb2a29189d70f882b678c7350>@@AEAV<lambda_ab9668973a2a61b07c64846465621f55>@@$$QEAV<lambda_748afda9c1ab82b4e15f74dcdf75db74>@@@Z 00000001800423ac f i libucrt:output.obj
 0001:000413f8       ??$?RV<lambda_4942f9dcb8a83a0b649775421cdab7f2>@@AEAV<lambda_9fdeb54d99e6c7e515b8c19e0613d470>@@V<lambda_f61bc4569557b8ad96931f67d51af400>@@@?$__crt_seh_guarded_call@H@@QEAAH$$QEAV<lambda_4942f9dcb8a83a0b649775421cdab7f2>@@AEAV<lambda_9fdeb54d99e6c7e515b8c19e0613d470>@@$$QEAV<lambda_f61bc4569557b8ad96931f67d51af400>@@@Z 00000001800423f8 f i libucrt:output.obj
 0001:00041444       ??$?RV<lambda_7b91131dde12e1c3dfc74ff76b3f2eac>@@AEAV<lambda_dd75445284c072d0bd3768540cc698fa>@@V<lambda_16bc4ecb55b4718497c16bceaea2ceaf>@@@?$__crt_seh_guarded_call@H@@QEAAH$$QEAV<lambda_7b91131dde12e1c3dfc74ff76b3f2eac>@@AEAV<lambda_dd75445284c072d0bd3768540cc698fa>@@$$QEAV<lambda_16bc4ecb55b4718497c16bceaea2ceaf>@@@Z 0000000180042444 f i libucrt:output.obj
 0001:00041490       ??$?RV<lambda_aa279a7bcb127014629d5b1d62c7325d>@@AEAV<lambda_0a64b6a4deda75c01876f29c44fc5eb3>@@V<lambda_3323e69fbefe9d1a11713e670d47cdfa>@@@?$__crt_seh_guarded_call@H@@QEAAH$$QEAV<lambda_aa279a7bcb127014629d5b1d62c7325d>@@AEAV<lambda_0a64b6a4deda75c01876f29c44fc5eb3>@@$$QEAV<lambda_3323e69fbefe9d1a11713e670d47cdfa>@@@Z 0000000180042490 f i libucrt:output.obj
 0001:000414dc       ??$?RV<lambda_c232a0c49490a30f399a8430f51b50ba>@@AEAV<lambda_7b6c652cce95ef5b7c2ff34f92bf0578>@@V<lambda_c415c6f6d9d103d7e93818ef66b8cc8a>@@@?$__crt_seh_guarded_call@H@@QEAAH$$QEAV<lambda_c232a0c49490a30f399a8430f51b50ba>@@AEAV<lambda_7b6c652cce95ef5b7c2ff34f92bf0578>@@$$QEAV<lambda_c415c6f6d9d103d7e93818ef66b8cc8a>@@@Z 00000001800424dc f i libucrt:output.obj
 0001:00041528       ??$__acrt_lock_stream_and_call@V<lambda_0a64b6a4deda75c01876f29c44fc5eb3>@@@@YAHQEAU_iobuf@@$$QEAV<lambda_0a64b6a4deda75c01876f29c44fc5eb3>@@@Z 0000000180042528 f i libucrt:output.obj
 0001:0004155c       ??$__acrt_lock_stream_and_call@V<lambda_576477a770bb5ab586b2d9569451c7f7>@@@@YAHQEAU_iobuf@@$$QEAV<lambda_576477a770bb5ab586b2d9569451c7f7>@@@Z 000000018004255c f i libucrt:output.obj
 0001:00041590       ??$__acrt_lock_stream_and_call@V<lambda_7b6c652cce95ef5b7c2ff34f92bf0578>@@@@YAHQEAU_iobuf@@$$QEAV<lambda_7b6c652cce95ef5b7c2ff34f92bf0578>@@@Z 0000000180042590 f i libucrt:output.obj
 0001:000415c4       ??$__acrt_lock_stream_and_call@V<lambda_9fdeb54d99e6c7e515b8c19e0613d470>@@@@YAHQEAU_iobuf@@$$QEAV<lambda_9fdeb54d99e6c7e515b8c19e0613d470>@@@Z 00000001800425c4 f i libucrt:output.obj
 0001:000415f8       ??$__acrt_lock_stream_and_call@V<lambda_ab9668973a2a61b07c64846465621f55>@@@@YAHQEAU_iobuf@@$$QEAV<lambda_ab9668973a2a61b07c64846465621f55>@@@Z 00000001800425f8 f i libucrt:output.obj
 0001:0004162c       ??$__acrt_lock_stream_and_call@V<lambda_dd75445284c072d0bd3768540cc698fa>@@@@YAHQEAU_iobuf@@$$QEAV<lambda_dd75445284c072d0bd3768540cc698fa>@@@Z 000000018004262c f i libucrt:output.obj
 0001:00042b34       ??$count@D@formatting_buffer@__crt_stdio_output@@QEBA_KXZ 0000000180043b34 f i libucrt:output.obj
 0001:00042b58       ??$data@D@formatting_buffer@__crt_stdio_output@@QEAAPEADXZ 0000000180043b58 f i libucrt:output.obj
 0001:00042b6c       ??$data@_W@formatting_buffer@__crt_stdio_output@@QEAAPEA_WXZ 0000000180043b6c f i libucrt:output.obj
 0001:00042b80       ??$ensure_buffer_is_big_enough@D@formatting_buffer@__crt_stdio_output@@QEAA_N_K@Z 0000000180043b80 f i libucrt:output.obj
 0001:00042c58       ??$extract_argument_from_va_list@C_J@?$positional_parameter_base@DV?$stream_output_adapter@D@__crt_stdio_output@@@__crt_stdio_output@@IEAA_NAEA_J@Z 0000000180043c58 f i libucrt:output.obj
 0001:00042d4c       ??$extract_argument_from_va_list@C_J@?$positional_parameter_base@DV?$string_output_adapter@D@__crt_stdio_output@@@__crt_stdio_output@@IEAA_NAEA_J@Z 0000000180043d4c f i libucrt:output.obj
 0001:00042e40       ??$extract_argument_from_va_list@C_J@?$positional_parameter_base@_WV?$stream_output_adapter@_W@__crt_stdio_output@@@__crt_stdio_output@@IEAA_NAEA_J@Z 0000000180043e40 f i libucrt:output.obj
 0001:00042f38       ??$extract_argument_from_va_list@C_J@?$positional_parameter_base@_WV?$string_output_adapter@_W@__crt_stdio_output@@@__crt_stdio_output@@IEAA_NAEA_J@Z 0000000180043f38 f i libucrt:output.obj
 0001:00043030       ??$extract_argument_from_va_list@C_J@?$standard_base@DV?$stream_output_adapter@D@__crt_stdio_output@@@__crt_stdio_output@@IEAA_NAEA_J@Z 0000000180044030 f i libucrt:output.obj
 0001:0004304c       ??$extract_argument_from_va_list@C_J@?$standard_base@DV?$string_output_adapter@D@__crt_stdio_output@@@__crt_stdio_output@@IEAA_NAEA_J@Z 000000018004404c f i libucrt:output.obj
 0001:00043068       ??$extract_argument_from_va_list@C_J@?$standard_base@_WV?$stream_output_adapter@_W@__crt_stdio_output@@@__crt_stdio_output@@IEAA_NAEA_J@Z 0000000180044068 f i libucrt:output.obj
 0001:00043084       ??$extract_argument_from_va_list@C_J@?$standard_base@_WV?$string_output_adapter@_W@__crt_stdio_output@@@__crt_stdio_output@@IEAA_NAEA_J@Z 0000000180044084 f i libucrt:output.obj
 0001:000430a0       ??$extract_argument_from_va_list@E_J@?$positional_parameter_base@DV?$stream_output_adapter@D@__crt_stdio_output@@@__crt_stdio_output@@IEAA_NAEA_J@Z 00000001800440a0 f i libucrt:output.obj
 0001:00043194       ??$extract_argument_from_va_list@E_J@?$positional_parameter_base@DV?$string_output_adapter@D@__crt_stdio_output@@@__crt_stdio_output@@IEAA_NAEA_J@Z 0000000180044194 f i libucrt:output.obj
 0001:00043288       ??$extract_argument_from_va_list@E_J@?$positional_parameter_base@_WV?$stream_output_adapter@_W@__crt_stdio_output@@@__crt_stdio_output@@IEAA_NAEA_J@Z 0000000180044288 f i libucrt:output.obj
 0001:00043380       ??$extract_argument_from_va_list@E_J@?$positional_parameter_base@_WV?$string_output_adapter@_W@__crt_stdio_output@@@__crt_stdio_output@@IEAA_NAEA_J@Z 0000000180044380 f i libucrt:output.obj
 0001:00043478       ??$extract_argument_from_va_list@E_J@?$standard_base@DV?$stream_output_adapter@D@__crt_stdio_output@@@__crt_stdio_output@@IEAA_NAEA_J@Z 0000000180044478 f i libucrt:output.obj
 0001:00043490       ??$extract_argument_from_va_list@E_J@?$standard_base@DV?$string_output_adapter@D@__crt_stdio_output@@@__crt_stdio_output@@IEAA_NAEA_J@Z 0000000180044490 f i libucrt:output.obj
 0001:000434a8       ??$extract_argument_from_va_list@E_J@?$standard_base@_WV?$stream_output_adapter@_W@__crt_stdio_output@@@__crt_stdio_output@@IEAA_NAEA_J@Z 00000001800444a8 f i libucrt:output.obj
 0001:000434c0       ??$extract_argument_from_va_list@E_J@?$standard_base@_WV?$string_output_adapter@_W@__crt_stdio_output@@@__crt_stdio_output@@IEAA_NAEA_J@Z 00000001800444c0 f i libucrt:output.obj
 0001:000434d8       ??$extract_argument_from_va_list@F_J@?$positional_parameter_base@DV?$stream_output_adapter@D@__crt_stdio_output@@@__crt_stdio_output@@IEAA_NAEA_J@Z 00000001800444d8 f i libucrt:output.obj
 0001:000435cc       ??$extract_argument_from_va_list@F_J@?$positional_parameter_base@DV?$string_output_adapter@D@__crt_stdio_output@@@__crt_stdio_output@@IEAA_NAEA_J@Z 00000001800445cc f i libucrt:output.obj
 0001:000436c0       ??$extract_argument_from_va_list@F_J@?$positional_parameter_base@_WV?$stream_output_adapter@_W@__crt_stdio_output@@@__crt_stdio_output@@IEAA_NAEA_J@Z 00000001800446c0 f i libucrt:output.obj
 0001:000437b8       ??$extract_argument_from_va_list@F_J@?$positional_parameter_base@_WV?$string_output_adapter@_W@__crt_stdio_output@@@__crt_stdio_output@@IEAA_NAEA_J@Z 00000001800447b8 f i libucrt:output.obj
 0001:000438b0       ??$extract_argument_from_va_list@F_J@?$standard_base@DV?$stream_output_adapter@D@__crt_stdio_output@@@__crt_stdio_output@@IEAA_NAEA_J@Z 00000001800448b0 f i libucrt:output.obj
 0001:000438cc       ??$extract_argument_from_va_list@F_J@?$standard_base@DV?$string_output_adapter@D@__crt_stdio_output@@@__crt_stdio_output@@IEAA_NAEA_J@Z 00000001800448cc f i libucrt:output.obj
 0001:000438e8       ??$extract_argument_from_va_list@F_J@?$standard_base@_WV?$stream_output_adapter@_W@__crt_stdio_output@@@__crt_stdio_output@@IEAA_NAEA_J@Z 00000001800448e8 f i libucrt:output.obj
 0001:00043904       ??$extract_argument_from_va_list@F_J@?$standard_base@_WV?$string_output_adapter@_W@__crt_stdio_output@@@__crt_stdio_output@@IEAA_NAEA_J@Z 0000000180044904 f i libucrt:output.obj
 0001:00043920       ??$extract_argument_from_va_list@GD@?$positional_parameter_base@DV?$stream_output_adapter@D@__crt_stdio_output@@@__crt_stdio_output@@IEAA_NAEAD@Z 0000000180044920 f i libucrt:output.obj
 0001:00043a10       ??$extract_argument_from_va_list@GD@?$positional_parameter_base@DV?$string_output_adapter@D@__crt_stdio_output@@@__crt_stdio_output@@IEAA_NAEAD@Z 0000000180044a10 f i libucrt:output.obj
 0001:00043b00       ??$extract_argument_from_va_list@GD@?$standard_base@DV?$stream_output_adapter@D@__crt_stdio_output@@@__crt_stdio_output@@IEAA_NAEAD@Z 0000000180044b00 f i libucrt:output.obj
 0001:00043b18       ??$extract_argument_from_va_list@GD@?$standard_base@DV?$string_output_adapter@D@__crt_stdio_output@@@__crt_stdio_output@@IEAA_NAEAD@Z 0000000180044b18 f i libucrt:output.obj
 0001:00043b30       ??$extract_argument_from_va_list@G_J@?$positional_parameter_base@DV?$stream_output_adapter@D@__crt_stdio_output@@@__crt_stdio_output@@IEAA_NAEA_J@Z 0000000180044b30 f i libucrt:output.obj
 0001:00043c24       ??$extract_argument_from_va_list@G_J@?$positional_parameter_base@DV?$string_output_adapter@D@__crt_stdio_output@@@__crt_stdio_output@@IEAA_NAEA_J@Z 0000000180044c24 f i libucrt:output.obj
 0001:00043d18       ??$extract_argument_from_va_list@G_J@?$positional_parameter_base@_WV?$stream_output_adapter@_W@__crt_stdio_output@@@__crt_stdio_output@@IEAA_NAEA_J@Z 0000000180044d18 f i libucrt:output.obj
 0001:00043e10       ??$extract_argument_from_va_list@G_J@?$positional_parameter_base@_WV?$string_output_adapter@_W@__crt_stdio_output@@@__crt_stdio_output@@IEAA_NAEA_J@Z 0000000180044e10 f i libucrt:output.obj
 0001:00043f08       ??$extract_argument_from_va_list@G_J@?$standard_base@DV?$stream_output_adapter@D@__crt_stdio_output@@@__crt_stdio_output@@IEAA_NAEA_J@Z 0000000180044f08 f i libucrt:output.obj
 0001:00043f20       ??$extract_argument_from_va_list@G_J@?$standard_base@DV?$string_output_adapter@D@__crt_stdio_output@@@__crt_stdio_output@@IEAA_NAEA_J@Z 0000000180044f20 f i libucrt:output.obj
 0001:00043f38       ??$extract_argument_from_va_list@G_J@?$standard_base@_WV?$stream_output_adapter@_W@__crt_stdio_output@@@__crt_stdio_output@@IEAA_NAEA_J@Z 0000000180044f38 f i libucrt:output.obj
 0001:00043f50       ??$extract_argument_from_va_list@G_J@?$standard_base@_WV?$string_output_adapter@_W@__crt_stdio_output@@@__crt_stdio_output@@IEAA_NAEA_J@Z 0000000180044f50 f i libucrt:output.obj
 0001:00043f68       ??$extract_argument_from_va_list@H_J@?$positional_parameter_base@DV?$stream_output_adapter@D@__crt_stdio_output@@@__crt_stdio_output@@IEAA_NAEA_J@Z 0000000180044f68 f i libucrt:output.obj
 0001:0004405c       ??$extract_argument_from_va_list@H_J@?$positional_parameter_base@DV?$string_output_adapter@D@__crt_stdio_output@@@__crt_stdio_output@@IEAA_NAEA_J@Z 000000018004505c f i libucrt:output.obj
 0001:00044150       ??$extract_argument_from_va_list@H_J@?$positional_parameter_base@_WV?$stream_output_adapter@_W@__crt_stdio_output@@@__crt_stdio_output@@IEAA_NAEA_J@Z 0000000180045150 f i libucrt:output.obj
 0001:00044244       ??$extract_argument_from_va_list@H_J@?$positional_parameter_base@_WV?$string_output_adapter@_W@__crt_stdio_output@@@__crt_stdio_output@@IEAA_NAEA_J@Z 0000000180045244 f i libucrt:output.obj
 0001:00044338       ??$extract_argument_from_va_list@H_J@?$standard_base@DV?$stream_output_adapter@D@__crt_stdio_output@@@__crt_stdio_output@@IEAA_NAEA_J@Z 0000000180045338 f i libucrt:output.obj
 0001:00044350       ??$extract_argument_from_va_list@H_J@?$standard_base@DV?$string_output_adapter@D@__crt_stdio_output@@@__crt_stdio_output@@IEAA_NAEA_J@Z 0000000180045350 f i libucrt:output.obj
 0001:00044368       ??$extract_argument_from_va_list@H_J@?$standard_base@_WV?$stream_output_adapter@_W@__crt_stdio_output@@@__crt_stdio_output@@IEAA_NAEA_J@Z 0000000180045368 f i libucrt:output.obj
 0001:00044380       ??$extract_argument_from_va_list@H_J@?$standard_base@_WV?$string_output_adapter@_W@__crt_stdio_output@@@__crt_stdio_output@@IEAA_NAEA_J@Z 0000000180045380 f i libucrt:output.obj
 0001:00044398       ??$extract_argument_from_va_list@I_J@?$positional_parameter_base@DV?$stream_output_adapter@D@__crt_stdio_output@@@__crt_stdio_output@@IEAA_NAEA_J@Z 0000000180045398 f i libucrt:output.obj
 0001:00044488       ??$extract_argument_from_va_list@I_J@?$positional_parameter_base@DV?$string_output_adapter@D@__crt_stdio_output@@@__crt_stdio_output@@IEAA_NAEA_J@Z 0000000180045488 f i libucrt:output.obj
 0001:00044578       ??$extract_argument_from_va_list@I_J@?$positional_parameter_base@_WV?$stream_output_adapter@_W@__crt_stdio_output@@@__crt_stdio_output@@IEAA_NAEA_J@Z 0000000180045578 f i libucrt:output.obj
 0001:0004466c       ??$extract_argument_from_va_list@I_J@?$positional_parameter_base@_WV?$string_output_adapter@_W@__crt_stdio_output@@@__crt_stdio_output@@IEAA_NAEA_J@Z 000000018004566c f i libucrt:output.obj
 0001:00044760       ??$extract_argument_from_va_list@I_J@?$standard_base@DV?$stream_output_adapter@D@__crt_stdio_output@@@__crt_stdio_output@@IEAA_NAEA_J@Z 0000000180045760 f i libucrt:output.obj
 0001:00044778       ??$extract_argument_from_va_list@I_J@?$standard_base@DV?$string_output_adapter@D@__crt_stdio_output@@@__crt_stdio_output@@IEAA_NAEA_J@Z 0000000180045778 f i libucrt:output.obj
 0001:00044790       ??$extract_argument_from_va_list@I_J@?$standard_base@_WV?$stream_output_adapter@_W@__crt_stdio_output@@@__crt_stdio_output@@IEAA_NAEA_J@Z 0000000180045790 f i libucrt:output.obj
 0001:000447a8       ??$extract_argument_from_va_list@I_J@?$standard_base@_WV?$string_output_adapter@_W@__crt_stdio_output@@@__crt_stdio_output@@IEAA_NAEA_J@Z 00000001800457a8 f i libucrt:output.obj
 0001:000447c0       ??$extract_argument_from_va_list@PEADPEAD@?$positional_parameter_base@DV?$stream_output_adapter@D@__crt_stdio_output@@@__crt_stdio_output@@IEAA_NAEAPEAD@Z 00000001800457c0 f i libucrt:output.obj
 0001:000448b4       ??$extract_argument_from_va_list@PEADPEAD@?$positional_parameter_base@DV?$string_output_adapter@D@__crt_stdio_output@@@__crt_stdio_output@@IEAA_NAEAPEAD@Z 00000001800458b4 f i libucrt:output.obj
 0001:000449a8       ??$extract_argument_from_va_list@PEADPEAD@?$positional_parameter_base@_WV?$stream_output_adapter@_W@__crt_stdio_output@@@__crt_stdio_output@@IEAA_NAEAPEAD@Z 00000001800459a8 f i libucrt:output.obj
 0001:00044a9c       ??$extract_argument_from_va_list@PEADPEAD@?$positional_parameter_base@_WV?$string_output_adapter@_W@__crt_stdio_output@@@__crt_stdio_output@@IEAA_NAEAPEAD@Z 0000000180045a9c f i libucrt:output.obj
 0001:00044b90       ??$extract_argument_from_va_list@PEADPEAD@?$standard_base@DV?$stream_output_adapter@D@__crt_stdio_output@@@__crt_stdio_output@@IEAA_NAEAPEAD@Z 0000000180045b90 f i libucrt:output.obj
 0001:00044ba8       ??$extract_argument_from_va_list@PEADPEAD@?$standard_base@DV?$string_output_adapter@D@__crt_stdio_output@@@__crt_stdio_output@@IEAA_NAEAPEAD@Z 0000000180045ba8 f i libucrt:output.obj
 0001:00044bc0       ??$extract_argument_from_va_list@PEADPEAD@?$standard_base@_WV?$stream_output_adapter@_W@__crt_stdio_output@@@__crt_stdio_output@@IEAA_NAEAPEAD@Z 0000000180045bc0 f i libucrt:output.obj
 0001:00044bd8       ??$extract_argument_from_va_list@PEADPEAD@?$standard_base@_WV?$string_output_adapter@_W@__crt_stdio_output@@@__crt_stdio_output@@IEAA_NAEAPEAD@Z 0000000180045bd8 f i libucrt:output.obj
 0001:00044bf0       ??$extract_argument_from_va_list@PEAUansi_string@?1??type_case_Z@?$output_processor@DV?$stream_output_adapter@D@__crt_stdio_output@@V?$format_validation_base@DV?$stream_output_adapter@D@__crt_stdio_output@@@2@@__crt_stdio_output@@AEAA_NXZ@PEAU1?1??234@AEAA_NXZ@@?$standard_base@DV?$stream_output_adapter@D@__crt_stdio_output@@@__crt_stdio_output@@IEAA_NAEAPEAUansi_string@?1??type_case_Z@?$output_processor@DV?$stream_output_adapter@D@__crt_stdio_output@@V?$format_validation_base@DV?$stream_output_adapter@D@__crt_stdio_output@@@2@@1@AEAA_NXZ@@Z 0000000180045bf0 f i libucrt:output.obj
 0001:00044c08       ??$extract_argument_from_va_list@PEAUansi_string@?1??type_case_Z@?$output_processor@DV?$stream_output_adapter@D@__crt_stdio_output@@V?$positional_parameter_base@DV?$stream_output_adapter@D@__crt_stdio_output@@@2@@__crt_stdio_output@@AEAA_NXZ@PEAU1?1??234@AEAA_NXZ@@?$positional_parameter_base@DV?$stream_output_adapter@D@__crt_stdio_output@@@__crt_stdio_output@@IEAA_NAEAPEAUansi_string@?1??type_case_Z@?$output_processor@DV?$stream_output_adapter@D@__crt_stdio_output@@V?$positional_parameter_base@DV?$stream_output_adapter@D@__crt_stdio_output@@@2@@1@AEAA_NXZ@@Z 0000000180045c08 f i libucrt:output.obj
 0001:00044cfc       ??$extract_argument_from_va_list@PEAUansi_string@?1??type_case_Z@?$output_processor@DV?$stream_output_adapter@D@__crt_stdio_output@@V?$positional_parameter_base@DV?$stream_output_adapter@D@__crt_stdio_output@@@2@@__crt_stdio_output@@AEAA_NXZ@PEAU1?1??234@AEAA_NXZ@@?$standard_base@DV?$stream_output_adapter@D@__crt_stdio_output@@@__crt_stdio_output@@IEAA_NAEAPEAUansi_string@?1??type_case_Z@?$output_processor@DV?$stream_output_adapter@D@__crt_stdio_output@@V?$positional_parameter_base@DV?$stream_output_adapter@D@__crt_stdio_output@@@2@@1@AEAA_NXZ@@Z 0000000180045cfc f i libucrt:output.obj
 0001:00044d14       ??$extract_argument_from_va_list@PEAUansi_string@?1??type_case_Z@?$output_processor@DV?$stream_output_adapter@D@__crt_stdio_output@@V?$standard_base@DV?$stream_output_adapter@D@__crt_stdio_output@@@2@@__crt_stdio_output@@AEAA_NXZ@PEAU1?1??234@AEAA_NXZ@@?$standard_base@DV?$stream_output_adapter@D@__crt_stdio_output@@@__crt_stdio_output@@IEAA_NAEAPEAUansi_string@?1??type_case_Z@?$output_processor@DV?$stream_output_adapter@D@__crt_stdio_output@@V?$standard_base@DV?$stream_output_adapter@D@__crt_stdio_output@@@2@@1@AEAA_NXZ@@Z 0000000180045d14 f i libucrt:output.obj
 0001:00044d2c       ??$extract_argument_from_va_list@PEAUansi_string@?1??type_case_Z@?$output_processor@DV?$string_output_adapter@D@__crt_stdio_output@@V?$format_validation_base@DV?$string_output_adapter@D@__crt_stdio_output@@@2@@__crt_stdio_output@@AEAA_NXZ@PEAU1?1??234@AEAA_NXZ@@?$standard_base@DV?$string_output_adapter@D@__crt_stdio_output@@@__crt_stdio_output@@IEAA_NAEAPEAUansi_string@?1??type_case_Z@?$output_processor@DV?$string_output_adapter@D@__crt_stdio_output@@V?$format_validation_base@DV?$string_output_adapter@D@__crt_stdio_output@@@2@@1@AEAA_NXZ@@Z 0000000180045d2c f i libucrt:output.obj
 0001:00044d44       ??$extract_argument_from_va_list@PEAUansi_string@?1??type_case_Z@?$output_processor@DV?$string_output_adapter@D@__crt_stdio_output@@V?$positional_parameter_base@DV?$string_output_adapter@D@__crt_stdio_output@@@2@@__crt_stdio_output@@AEAA_NXZ@PEAU1?1??234@AEAA_NXZ@@?$positional_parameter_base@DV?$string_output_adapter@D@__crt_stdio_output@@@__crt_stdio_output@@IEAA_NAEAPEAUansi_string@?1??type_case_Z@?$output_processor@DV?$string_output_adapter@D@__crt_stdio_output@@V?$positional_parameter_base@DV?$string_output_adapter@D@__crt_stdio_output@@@2@@1@AEAA_NXZ@@Z 0000000180045d44 f i libucrt:output.obj
 0001:00044e38       ??$extract_argument_from_va_list@PEAUansi_string@?1??type_case_Z@?$output_processor@DV?$string_output_adapter@D@__crt_stdio_output@@V?$positional_parameter_base@DV?$string_output_adapter@D@__crt_stdio_output@@@2@@__crt_stdio_output@@AEAA_NXZ@PEAU1?1??234@AEAA_NXZ@@?$standard_base@DV?$string_output_adapter@D@__crt_stdio_output@@@__crt_stdio_output@@IEAA_NAEAPEAUansi_string@?1??type_case_Z@?$output_processor@DV?$string_output_adapter@D@__crt_stdio_output@@V?$positional_parameter_base@DV?$string_output_adapter@D@__crt_stdio_output@@@2@@1@AEAA_NXZ@@Z 0000000180045e38 f i libucrt:output.obj
 0001:00044e50       ??$extract_argument_from_va_list@PEAUansi_string@?1??type_case_Z@?$output_processor@DV?$string_output_adapter@D@__crt_stdio_output@@V?$standard_base@DV?$string_output_adapter@D@__crt_stdio_output@@@2@@__crt_stdio_output@@AEAA_NXZ@PEAU1?1??234@AEAA_NXZ@@?$standard_base@DV?$string_output_adapter@D@__crt_stdio_output@@@__crt_stdio_output@@IEAA_NAEAPEAUansi_string@?1??type_case_Z@?$output_processor@DV?$string_output_adapter@D@__crt_stdio_output@@V?$standard_base@DV?$string_output_adapter@D@__crt_stdio_output@@@2@@1@AEAA_NXZ@@Z 0000000180045e50 f i libucrt:output.obj
 0001:00044e68       ??$extract_argument_from_va_list@PEAUansi_string@?1??type_case_Z@?$output_processor@_WV?$stream_output_adapter@_W@__crt_stdio_output@@V?$format_validation_base@_WV?$stream_output_adapter@_W@__crt_stdio_output@@@2@@__crt_stdio_output@@AEAA_NXZ@PEAU1?1??234@AEAA_NXZ@@?$standard_base@_WV?$stream_output_adapter@_W@__crt_stdio_output@@@__crt_stdio_output@@IEAA_NAEAPEAUansi_string@?1??type_case_Z@?$output_processor@_WV?$stream_output_adapter@_W@__crt_stdio_output@@V?$format_validation_base@_WV?$stream_output_adapter@_W@__crt_stdio_output@@@2@@1@AEAA_NXZ@@Z 0000000180045e68 f i libucrt:output.obj
 0001:00044e80       ??$extract_argument_from_va_list@PEAUansi_string@?1??type_case_Z@?$output_processor@_WV?$stream_output_adapter@_W@__crt_stdio_output@@V?$positional_parameter_base@_WV?$stream_output_adapter@_W@__crt_stdio_output@@@2@@__crt_stdio_output@@AEAA_NXZ@PEAU1?1??234@AEAA_NXZ@@?$positional_parameter_base@_WV?$stream_output_adapter@_W@__crt_stdio_output@@@__crt_stdio_output@@IEAA_NAEAPEAUansi_string@?1??type_case_Z@?$output_processor@_WV?$stream_output_adapter@_W@__crt_stdio_output@@V?$positional_parameter_base@_WV?$stream_output_adapter@_W@__crt_stdio_output@@@2@@1@AEAA_NXZ@@Z 0000000180045e80 f i libucrt:output.obj
 0001:00044f74       ??$extract_argument_from_va_list@PEAUansi_string@?1??type_case_Z@?$output_processor@_WV?$stream_output_adapter@_W@__crt_stdio_output@@V?$positional_parameter_base@_WV?$stream_output_adapter@_W@__crt_stdio_output@@@2@@__crt_stdio_output@@AEAA_NXZ@PEAU1?1??234@AEAA_NXZ@@?$standard_base@_WV?$stream_output_adapter@_W@__crt_stdio_output@@@__crt_stdio_output@@IEAA_NAEAPEAUansi_string@?1??type_case_Z@?$output_processor@_WV?$stream_output_adapter@_W@__crt_stdio_output@@V?$positional_parameter_base@_WV?$stream_output_adapter@_W@__crt_stdio_output@@@2@@1@AEAA_NXZ@@Z 0000000180045f74 f i libucrt:output.obj
 0001:00044f8c       ??$extract_argument_from_va_list@PEAUansi_string@?1??type_case_Z@?$output_processor@_WV?$stream_output_adapter@_W@__crt_stdio_output@@V?$standard_base@_WV?$stream_output_adapter@_W@__crt_stdio_output@@@2@@__crt_stdio_output@@AEAA_NXZ@PEAU1?1??234@AEAA_NXZ@@?$standard_base@_WV?$stream_output_adapter@_W@__crt_stdio_output@@@__crt_stdio_output@@IEAA_NAEAPEAUansi_string@?1??type_case_Z@?$output_processor@_WV?$stream_output_adapter@_W@__crt_stdio_output@@V?$standard_base@_WV?$stream_output_adapter@_W@__crt_stdio_output@@@2@@1@AEAA_NXZ@@Z 0000000180045f8c f i libucrt:output.obj
 0001:00044fa4       ??$extract_argument_from_va_list@PEAUansi_string@?1??type_case_Z@?$output_processor@_WV?$string_output_adapter@_W@__crt_stdio_output@@V?$format_validation_base@_WV?$string_output_adapter@_W@__crt_stdio_output@@@2@@__crt_stdio_output@@AEAA_NXZ@PEAU1?1??234@AEAA_NXZ@@?$standard_base@_WV?$string_output_adapter@_W@__crt_stdio_output@@@__crt_stdio_output@@IEAA_NAEAPEAUansi_string@?1??type_case_Z@?$output_processor@_WV?$string_output_adapter@_W@__crt_stdio_output@@V?$format_validation_base@_WV?$string_output_adapter@_W@__crt_stdio_output@@@2@@1@AEAA_NXZ@@Z 0000000180045fa4 f i libucrt:output.obj
 0001:00044fbc       ??$extract_argument_from_va_list@PEAUansi_string@?1??type_case_Z@?$output_processor@_WV?$string_output_adapter@_W@__crt_stdio_output@@V?$positional_parameter_base@_WV?$string_output_adapter@_W@__crt_stdio_output@@@2@@__crt_stdio_output@@AEAA_NXZ@PEAU1?1??234@AEAA_NXZ@@?$positional_parameter_base@_WV?$string_output_adapter@_W@__crt_stdio_output@@@__crt_stdio_output@@IEAA_NAEAPEAUansi_string@?1??type_case_Z@?$output_processor@_WV?$string_output_adapter@_W@__crt_stdio_output@@V?$positional_parameter_base@_WV?$string_output_adapter@_W@__crt_stdio_output@@@2@@1@AEAA_NXZ@@Z 0000000180045fbc f i libucrt:output.obj
 0001:000450b0       ??$extract_argument_from_va_list@PEAUansi_string@?1??type_case_Z@?$output_processor@_WV?$string_output_adapter@_W@__crt_stdio_output@@V?$positional_parameter_base@_WV?$string_output_adapter@_W@__crt_stdio_output@@@2@@__crt_stdio_output@@AEAA_NXZ@PEAU1?1??234@AEAA_NXZ@@?$standard_base@_WV?$string_output_adapter@_W@__crt_stdio_output@@@__crt_stdio_output@@IEAA_NAEAPEAUansi_string@?1??type_case_Z@?$output_processor@_WV?$string_output_adapter@_W@__crt_stdio_output@@V?$positional_parameter_base@_WV?$string_output_adapter@_W@__crt_stdio_output@@@2@@1@AEAA_NXZ@@Z 00000001800460b0 f i libucrt:output.obj
 0001:000450c8       ??$extract_argument_from_va_list@PEAUansi_string@?1??type_case_Z@?$output_processor@_WV?$string_output_adapter@_W@__crt_stdio_output@@V?$standard_base@_WV?$string_output_adapter@_W@__crt_stdio_output@@@2@@__crt_stdio_output@@AEAA_NXZ@PEAU1?1??234@AEAA_NXZ@@?$standard_base@_WV?$string_output_adapter@_W@__crt_stdio_output@@@__crt_stdio_output@@IEAA_NAEAPEAUansi_string@?1??type_case_Z@?$output_processor@_WV?$string_output_adapter@_W@__crt_stdio_output@@V?$standard_base@_WV?$string_output_adapter@_W@__crt_stdio_output@@@2@@1@AEAA_NXZ@@Z 00000001800460c8 f i libucrt:output.obj
 0001:000450e0       ??$extract_argument_from_va_list@PEAXPEAX@?$positional_parameter_base@DV?$stream_output_adapter@D@__crt_stdio_output@@@__crt_stdio_output@@IEAA_NAEAPEAX@Z 00000001800460e0 f i libucrt:output.obj
 0001:000451d4       ??$extract_argument_from_va_list@PEAXPEAX@?$positional_parameter_base@DV?$string_output_adapter@D@__crt_stdio_output@@@__crt_stdio_output@@IEAA_NAEAPEAX@Z 00000001800461d4 f i libucrt:output.obj
 0001:000452c8       ??$extract_argument_from_va_list@PEAXPEAX@?$positional_parameter_base@_WV?$stream_output_adapter@_W@__crt_stdio_output@@@__crt_stdio_output@@IEAA_NAEAPEAX@Z 00000001800462c8 f i libucrt:output.obj
 0001:000453bc       ??$extract_argument_from_va_list@PEAXPEAX@?$positional_parameter_base@_WV?$string_output_adapter@_W@__crt_stdio_output@@@__crt_stdio_output@@IEAA_NAEAPEAX@Z 00000001800463bc f i libucrt:output.obj
 0001:000454b0       ??$extract_argument_from_va_list@PEAXPEAX@?$standard_base@DV?$stream_output_adapter@D@__crt_stdio_output@@@__crt_stdio_output@@IEAA_NAEAPEAX@Z 00000001800464b0 f i libucrt:output.obj
 0001:000454c8       ??$extract_argument_from_va_list@PEAXPEAX@?$standard_base@DV?$string_output_adapter@D@__crt_stdio_output@@@__crt_stdio_output@@IEAA_NAEAPEAX@Z 00000001800464c8 f i libucrt:output.obj
 0001:000454e0       ??$extract_argument_from_va_list@PEAXPEAX@?$standard_base@_WV?$stream_output_adapter@_W@__crt_stdio_output@@@__crt_stdio_output@@IEAA_NAEAPEAX@Z 00000001800464e0 f i libucrt:output.obj
 0001:000454f8       ??$extract_argument_from_va_list@PEAXPEAX@?$standard_base@_WV?$string_output_adapter@_W@__crt_stdio_output@@@__crt_stdio_output@@IEAA_NAEAPEAX@Z 00000001800464f8 f i libucrt:output.obj
 0001:00045510       ??$extract_argument_from_va_list@U_CRT_DOUBLE@@U1@@?$positional_parameter_base@DV?$stream_output_adapter@D@__crt_stdio_output@@@__crt_stdio_output@@IEAA_NAEAU_CRT_DOUBLE@@@Z 0000000180046510 f i libucrt:output.obj
 0001:00045608       ??$extract_argument_from_va_list@U_CRT_DOUBLE@@U1@@?$positional_parameter_base@DV?$string_output_adapter@D@__crt_stdio_output@@@__crt_stdio_output@@IEAA_NAEAU_CRT_DOUBLE@@@Z 0000000180046608 f i libucrt:output.obj
 0001:00045700       ??$extract_argument_from_va_list@U_CRT_DOUBLE@@U1@@?$positional_parameter_base@_WV?$stream_output_adapter@_W@__crt_stdio_output@@@__crt_stdio_output@@IEAA_NAEAU_CRT_DOUBLE@@@Z 0000000180046700 f i libucrt:output.obj
 0001:000457fc       ??$extract_argument_from_va_list@U_CRT_DOUBLE@@U1@@?$positional_parameter_base@_WV?$string_output_adapter@_W@__crt_stdio_output@@@__crt_stdio_output@@IEAA_NAEAU_CRT_DOUBLE@@@Z 00000001800467fc f i libucrt:output.obj
 0001:000458f8       ??$extract_argument_from_va_list@U_CRT_DOUBLE@@U1@@?$standard_base@DV?$stream_output_adapter@D@__crt_stdio_output@@@__crt_stdio_output@@IEAA_NAEAU_CRT_DOUBLE@@@Z 00000001800468f8 f i libucrt:output.obj
 0001:00045914       ??$extract_argument_from_va_list@U_CRT_DOUBLE@@U1@@?$standard_base@DV?$string_output_adapter@D@__crt_stdio_output@@@__crt_stdio_output@@IEAA_NAEAU_CRT_DOUBLE@@@Z 0000000180046914 f i libucrt:output.obj
 0001:00045930       ??$extract_argument_from_va_list@U_CRT_DOUBLE@@U1@@?$standard_base@_WV?$stream_output_adapter@_W@__crt_stdio_output@@@__crt_stdio_output@@IEAA_NAEAU_CRT_DOUBLE@@@Z 0000000180046930 f i libucrt:output.obj
 0001:0004594c       ??$extract_argument_from_va_list@U_CRT_DOUBLE@@U1@@?$standard_base@_WV?$string_output_adapter@_W@__crt_stdio_output@@@__crt_stdio_output@@IEAA_NAEAU_CRT_DOUBLE@@@Z 000000018004694c f i libucrt:output.obj
 0001:00045968       ??$extract_argument_from_va_list@_J_J@?$positional_parameter_base@DV?$stream_output_adapter@D@__crt_stdio_output@@@__crt_stdio_output@@IEAA_NAEA_J@Z 0000000180046968 f i libucrt:output.obj
 0001:00045a5c       ??$extract_argument_from_va_list@_J_J@?$positional_parameter_base@DV?$string_output_adapter@D@__crt_stdio_output@@@__crt_stdio_output@@IEAA_NAEA_J@Z 0000000180046a5c f i libucrt:output.obj
 0001:00045b50       ??$extract_argument_from_va_list@_J_J@?$positional_parameter_base@_WV?$stream_output_adapter@_W@__crt_stdio_output@@@__crt_stdio_output@@IEAA_NAEA_J@Z 0000000180046b50 f i libucrt:output.obj
 0001:00045c44       ??$extract_argument_from_va_list@_J_J@?$positional_parameter_base@_WV?$string_output_adapter@_W@__crt_stdio_output@@@__crt_stdio_output@@IEAA_NAEA_J@Z 0000000180046c44 f i libucrt:output.obj
 0001:00045d38       ??$extract_argument_from_va_list@_J_J@?$standard_base@DV?$stream_output_adapter@D@__crt_stdio_output@@@__crt_stdio_output@@IEAA_NAEA_J@Z 0000000180046d38 f i libucrt:output.obj
 0001:00045d50       ??$extract_argument_from_va_list@_J_J@?$standard_base@DV?$string_output_adapter@D@__crt_stdio_output@@@__crt_stdio_output@@IEAA_NAEA_J@Z 0000000180046d50 f i libucrt:output.obj
 0001:00045d68       ??$extract_argument_from_va_list@_J_J@?$standard_base@_WV?$stream_output_adapter@_W@__crt_stdio_output@@@__crt_stdio_output@@IEAA_NAEA_J@Z 0000000180046d68 f i libucrt:output.obj
 0001:00045d80       ??$extract_argument_from_va_list@_J_J@?$standard_base@_WV?$string_output_adapter@_W@__crt_stdio_output@@@__crt_stdio_output@@IEAA_NAEA_J@Z 0000000180046d80 f i libucrt:output.obj
 0001:00045d98       ??$extract_argument_from_va_list@_K_J@?$positional_parameter_base@DV?$stream_output_adapter@D@__crt_stdio_output@@@__crt_stdio_output@@IEAA_NAEA_J@Z 0000000180046d98 f i libucrt:output.obj
 0001:00045e8c       ??$extract_argument_from_va_list@_K_J@?$positional_parameter_base@DV?$string_output_adapter@D@__crt_stdio_output@@@__crt_stdio_output@@IEAA_NAEA_J@Z 0000000180046e8c f i libucrt:output.obj
 0001:00045f80       ??$extract_argument_from_va_list@_K_J@?$positional_parameter_base@_WV?$stream_output_adapter@_W@__crt_stdio_output@@@__crt_stdio_output@@IEAA_NAEA_J@Z 0000000180046f80 f i libucrt:output.obj
 0001:00046074       ??$extract_argument_from_va_list@_K_J@?$positional_parameter_base@_WV?$string_output_adapter@_W@__crt_stdio_output@@@__crt_stdio_output@@IEAA_NAEA_J@Z 0000000180047074 f i libucrt:output.obj
 0001:00046168       ??$extract_argument_from_va_list@_K_J@?$standard_base@DV?$stream_output_adapter@D@__crt_stdio_output@@@__crt_stdio_output@@IEAA_NAEA_J@Z 0000000180047168 f i libucrt:output.obj
 0001:00046180       ??$extract_argument_from_va_list@_K_J@?$standard_base@DV?$string_output_adapter@D@__crt_stdio_output@@@__crt_stdio_output@@IEAA_NAEA_J@Z 0000000180047180 f i libucrt:output.obj
 0001:00046198       ??$extract_argument_from_va_list@_K_J@?$standard_base@_WV?$stream_output_adapter@_W@__crt_stdio_output@@@__crt_stdio_output@@IEAA_NAEA_J@Z 0000000180047198 f i libucrt:output.obj
 0001:000461b0       ??$extract_argument_from_va_list@_K_J@?$standard_base@_WV?$string_output_adapter@_W@__crt_stdio_output@@@__crt_stdio_output@@IEAA_NAEA_J@Z 00000001800471b0 f i libucrt:output.obj
 0001:000461c8       ??$extract_argument_from_va_list@_W_W@?$positional_parameter_base@DV?$stream_output_adapter@D@__crt_stdio_output@@@__crt_stdio_output@@IEAA_NAEA_W@Z 00000001800471c8 f i libucrt:output.obj
 0001:000462bc       ??$extract_argument_from_va_list@_W_W@?$positional_parameter_base@DV?$string_output_adapter@D@__crt_stdio_output@@@__crt_stdio_output@@IEAA_NAEA_W@Z 00000001800472bc f i libucrt:output.obj
 0001:000463b0       ??$extract_argument_from_va_list@_W_W@?$positional_parameter_base@_WV?$stream_output_adapter@_W@__crt_stdio_output@@@__crt_stdio_output@@IEAA_NAEA_W@Z 00000001800473b0 f i libucrt:output.obj
 0001:000464a8       ??$extract_argument_from_va_list@_W_W@?$positional_parameter_base@_WV?$string_output_adapter@_W@__crt_stdio_output@@@__crt_stdio_output@@IEAA_NAEA_W@Z 00000001800474a8 f i libucrt:output.obj
 0001:000465a0       ??$extract_argument_from_va_list@_W_W@?$standard_base@DV?$stream_output_adapter@D@__crt_stdio_output@@@__crt_stdio_output@@IEAA_NAEA_W@Z 00000001800475a0 f i libucrt:output.obj
 0001:000465b8       ??$extract_argument_from_va_list@_W_W@?$standard_base@DV?$string_output_adapter@D@__crt_stdio_output@@@__crt_stdio_output@@IEAA_NAEA_W@Z 00000001800475b8 f i libucrt:output.obj
 0001:000465d0       ??$extract_argument_from_va_list@_W_W@?$standard_base@_WV?$stream_output_adapter@_W@__crt_stdio_output@@@__crt_stdio_output@@IEAA_NAEA_W@Z 00000001800475d0 f i libucrt:output.obj
 0001:000465e8       ??$extract_argument_from_va_list@_W_W@?$standard_base@_WV?$string_output_adapter@_W@__crt_stdio_output@@@__crt_stdio_output@@IEAA_NAEA_W@Z 00000001800475e8 f i libucrt:output.obj
 0001:00046600       ??$get_parameter_type@D@?$positional_parameter_base@DV?$stream_output_adapter@D@__crt_stdio_output@@@__crt_stdio_output@@CA?AW4parameter_type@01@PEAD@Z 0000000180047600 f i libucrt:output.obj
 0001:00046608       ??$get_parameter_type@D@?$positional_parameter_base@DV?$string_output_adapter@D@__crt_stdio_output@@@__crt_stdio_output@@CA?AW4parameter_type@01@PEAD@Z 0000000180047608 f i libucrt:output.obj
 0001:00046610       ??$get_parameter_type@D@?$positional_parameter_base@_WV?$stream_output_adapter@_W@__crt_stdio_output@@@__crt_stdio_output@@CA?AW4parameter_type@01@PEAD@Z 0000000180047610 f i libucrt:output.obj
 0001:00046618       ??$get_parameter_type@D@?$positional_parameter_base@_WV?$string_output_adapter@_W@__crt_stdio_output@@@__crt_stdio_output@@CA?AW4parameter_type@01@PEAD@Z 0000000180047618 f i libucrt:output.obj
 0001:00046620       ??$get_parameter_type@Uansi_string@?1??type_case_Z@?$output_processor@DV?$stream_output_adapter@D@__crt_stdio_output@@V?$positional_parameter_base@DV?$stream_output_adapter@D@__crt_stdio_output@@@2@@__crt_stdio_output@@AEAA_NXZ@@?$positional_parameter_base@DV?$stream_output_adapter@D@__crt_stdio_output@@@__crt_stdio_output@@CA?AW4parameter_type@01@PEAUansi_string@?1??type_case_Z@?$output_processor@DV?$stream_output_adapter@D@__crt_stdio_output@@V?$positional_parameter_base@DV?$stream_output_adapter@D@__crt_stdio_output@@@2@@1@AEAA_NXZ@@Z 0000000180047620 f i libucrt:output.obj
 0001:00046628       ??$get_parameter_type@Uansi_string@?1??type_case_Z@?$output_processor@DV?$string_output_adapter@D@__crt_stdio_output@@V?$positional_parameter_base@DV?$string_output_adapter@D@__crt_stdio_output@@@2@@__crt_stdio_output@@AEAA_NXZ@@?$positional_parameter_base@DV?$string_output_adapter@D@__crt_stdio_output@@@__crt_stdio_output@@CA?AW4parameter_type@01@PEAUansi_string@?1??type_case_Z@?$output_processor@DV?$string_output_adapter@D@__crt_stdio_output@@V?$positional_parameter_base@DV?$string_output_adapter@D@__crt_stdio_output@@@2@@1@AEAA_NXZ@@Z 0000000180047628 f i libucrt:output.obj
 0001:00046630       ??$get_parameter_type@Uansi_string@?1??type_case_Z@?$output_processor@_WV?$stream_output_adapter@_W@__crt_stdio_output@@V?$positional_parameter_base@_WV?$stream_output_adapter@_W@__crt_stdio_output@@@2@@__crt_stdio_output@@AEAA_NXZ@@?$positional_parameter_base@_WV?$stream_output_adapter@_W@__crt_stdio_output@@@__crt_stdio_output@@CA?AW4parameter_type@01@PEAUansi_string@?1??type_case_Z@?$output_processor@_WV?$stream_output_adapter@_W@__crt_stdio_output@@V?$positional_parameter_base@_WV?$stream_output_adapter@_W@__crt_stdio_output@@@2@@1@AEAA_NXZ@@Z 0000000180047630 f i libucrt:output.obj
 0001:00046638       ??$get_parameter_type@Uansi_string@?1??type_case_Z@?$output_processor@_WV?$string_output_adapter@_W@__crt_stdio_output@@V?$positional_parameter_base@_WV?$string_output_adapter@_W@__crt_stdio_output@@@2@@__crt_stdio_output@@AEAA_NXZ@@?$positional_parameter_base@_WV?$string_output_adapter@_W@__crt_stdio_output@@@__crt_stdio_output@@CA?AW4parameter_type@01@PEAUansi_string@?1??type_case_Z@?$output_processor@_WV?$string_output_adapter@_W@__crt_stdio_output@@V?$positional_parameter_base@_WV?$string_output_adapter@_W@__crt_stdio_output@@@2@@1@AEAA_NXZ@@Z 0000000180047638 f i libucrt:output.obj
 0001:00046640       ??$get_parameter_type@X@?$positional_parameter_base@DV?$stream_output_adapter@D@__crt_stdio_output@@@__crt_stdio_output@@CA?AW4parameter_type@01@PEAX@Z 0000000180047640 f i libucrt:output.obj
 0001:00046648       ??$get_parameter_type@X@?$positional_parameter_base@DV?$string_output_adapter@D@__crt_stdio_output@@@__crt_stdio_output@@CA?AW4parameter_type@01@PEAX@Z 0000000180047648 f i libucrt:output.obj
 0001:00046650       ??$get_parameter_type@X@?$positional_parameter_base@_WV?$stream_output_adapter@_W@__crt_stdio_output@@@__crt_stdio_output@@CA?AW4parameter_type@01@PEAX@Z 0000000180047650 f i libucrt:output.obj
 0001:00046658       ??$get_parameter_type@X@?$positional_parameter_base@_WV?$string_output_adapter@_W@__crt_stdio_output@@@__crt_stdio_output@@CA?AW4parameter_type@01@PEAX@Z 0000000180047658 f i libucrt:output.obj
 0001:00046660       ??$is_character_specifier@D@?$positional_parameter_base@DV?$stream_output_adapter@D@__crt_stdio_output@@@__crt_stdio_output@@CA_ND@Z 0000000180047660 f i libucrt:output.obj
 0001:0004666c       ??$is_character_specifier@D@?$positional_parameter_base@DV?$string_output_adapter@D@__crt_stdio_output@@@__crt_stdio_output@@CA_ND@Z 000000018004766c f i libucrt:output.obj
 0001:00046678       ??$is_character_specifier@_W@?$positional_parameter_base@_WV?$stream_output_adapter@_W@__crt_stdio_output@@@__crt_stdio_output@@CA_N_W@Z 0000000180047678 f i libucrt:output.obj
 0001:0004668c       ??$is_character_specifier@_W@?$positional_parameter_base@_WV?$string_output_adapter@_W@__crt_stdio_output@@@__crt_stdio_output@@CA_N_W@Z 000000018004768c f i libucrt:output.obj
 0001:000466a0       ??$is_integral_specifier@D@?$positional_parameter_base@DV?$stream_output_adapter@D@__crt_stdio_output@@@__crt_stdio_output@@CA_ND@Z 00000001800476a0 f i libucrt:output.obj
 0001:000466d0       ??$is_integral_specifier@D@?$positional_parameter_base@DV?$string_output_adapter@D@__crt_stdio_output@@@__crt_stdio_output@@CA_ND@Z 00000001800476d0 f i libucrt:output.obj
 0001:00046700       ??$is_integral_specifier@_W@?$positional_parameter_base@_WV?$stream_output_adapter@_W@__crt_stdio_output@@@__crt_stdio_output@@CA_N_W@Z 0000000180047700 f i libucrt:output.obj
 0001:00046734       ??$is_integral_specifier@_W@?$positional_parameter_base@_WV?$string_output_adapter@_W@__crt_stdio_output@@@__crt_stdio_output@@CA_N_W@Z 0000000180047734 f i libucrt:output.obj
 0001:00046768       ??$is_pointer_specifier@D@?$positional_parameter_base@DV?$stream_output_adapter@D@__crt_stdio_output@@@__crt_stdio_output@@CA_ND@Z 0000000180047768 f i libucrt:output.obj
 0001:00046770       ??$is_pointer_specifier@D@?$positional_parameter_base@DV?$string_output_adapter@D@__crt_stdio_output@@@__crt_stdio_output@@CA_ND@Z 0000000180047770 f i libucrt:output.obj
 0001:00046778       ??$is_pointer_specifier@_W@?$positional_parameter_base@_WV?$stream_output_adapter@_W@__crt_stdio_output@@@__crt_stdio_output@@CA_N_W@Z 0000000180047778 f i libucrt:output.obj
 0001:00046784       ??$is_pointer_specifier@_W@?$positional_parameter_base@_WV?$string_output_adapter@_W@__crt_stdio_output@@@__crt_stdio_output@@CA_N_W@Z 0000000180047784 f i libucrt:output.obj
 0001:00046790       ??$is_string_specifier@D@?$positional_parameter_base@DV?$stream_output_adapter@D@__crt_stdio_output@@@__crt_stdio_output@@CA_ND@Z 0000000180047790 f i libucrt:output.obj
 0001:0004679c       ??$is_string_specifier@D@?$positional_parameter_base@DV?$string_output_adapter@D@__crt_stdio_output@@@__crt_stdio_output@@CA_ND@Z 000000018004779c f i libucrt:output.obj
 0001:000467a8       ??$is_string_specifier@_W@?$positional_parameter_base@_WV?$stream_output_adapter@_W@__crt_stdio_output@@@__crt_stdio_output@@CA_N_W@Z 00000001800477a8 f i libucrt:output.obj
 0001:000467bc       ??$is_string_specifier@_W@?$positional_parameter_base@_WV?$string_output_adapter@_W@__crt_stdio_output@@@__crt_stdio_output@@CA_N_W@Z 00000001800477bc f i libucrt:output.obj
 0001:000467d0       ??$is_wide_character_specifier@D@__crt_stdio_output@@YA_N_KDW4length_modifier@0@@Z 00000001800477d0 f i libucrt:output.obj
 0001:0004680c       ??$is_wide_character_specifier@_W@__crt_stdio_output@@YA_N_K_WW4length_modifier@0@@Z 000000018004780c f i libucrt:output.obj
 0001:00046864       ??$peek_va_arg@C@__crt_stdio_output@@YACPEAD@Z 0000000180047864 f i libucrt:output.obj
 0001:00046868       ??$peek_va_arg@E@__crt_stdio_output@@YAEPEAD@Z 0000000180047868 f i libucrt:output.obj
 0001:0004686c       ??$peek_va_arg@F@__crt_stdio_output@@YAFPEAD@Z 000000018004786c f i libucrt:output.obj
 0001:00046870       ??$peek_va_arg@G@__crt_stdio_output@@YAGPEAD@Z 0000000180047870 f i libucrt:output.obj
 0001:00046874       ??$peek_va_arg@H@__crt_stdio_output@@YAHPEAD@Z 0000000180047874 f i libucrt:output.obj
 0001:00046878       ??$peek_va_arg@I@__crt_stdio_output@@YAIPEAD@Z 0000000180047878 f i libucrt:output.obj
 0001:0004687c       ??$peek_va_arg@PEAD@__crt_stdio_output@@YAPEADPEAD@Z 000000018004787c f i libucrt:output.obj
 0001:00046880       ??$peek_va_arg@PEAUansi_string@?1??type_case_Z@?$output_processor@DV?$stream_output_adapter@D@__crt_stdio_output@@V?$positional_parameter_base@DV?$stream_output_adapter@D@__crt_stdio_output@@@2@@__crt_stdio_output@@AEAA_NXZ@@__crt_stdio_output@@YAPEAUansi_string@?1??type_case_Z@?$output_processor@DV?$stream_output_adapter@D@__crt_stdio_output@@V?$positional_parameter_base@DV?$stream_output_adapter@D@__crt_stdio_output@@@2@@0@AEAA_NXZ@PEAD@Z 0000000180047880 f i libucrt:output.obj
 0001:00046884       ??$peek_va_arg@PEAUansi_string@?1??type_case_Z@?$output_processor@DV?$string_output_adapter@D@__crt_stdio_output@@V?$positional_parameter_base@DV?$string_output_adapter@D@__crt_stdio_output@@@2@@__crt_stdio_output@@AEAA_NXZ@@__crt_stdio_output@@YAPEAUansi_string@?1??type_case_Z@?$output_processor@DV?$string_output_adapter@D@__crt_stdio_output@@V?$positional_parameter_base@DV?$string_output_adapter@D@__crt_stdio_output@@@2@@0@AEAA_NXZ@PEAD@Z 0000000180047884 f i libucrt:output.obj
 0001:00046888       ??$peek_va_arg@PEAUansi_string@?1??type_case_Z@?$output_processor@_WV?$stream_output_adapter@_W@__crt_stdio_output@@V?$positional_parameter_base@_WV?$stream_output_adapter@_W@__crt_stdio_output@@@2@@__crt_stdio_output@@AEAA_NXZ@@__crt_stdio_output@@YAPEAUansi_string@?1??type_case_Z@?$output_processor@_WV?$stream_output_adapter@_W@__crt_stdio_output@@V?$positional_parameter_base@_WV?$stream_output_adapter@_W@__crt_stdio_output@@@2@@0@AEAA_NXZ@PEAD@Z 0000000180047888 f i libucrt:output.obj
 0001:0004688c       ??$peek_va_arg@PEAUansi_string@?1??type_case_Z@?$output_processor@_WV?$string_output_adapter@_W@__crt_stdio_output@@V?$positional_parameter_base@_WV?$string_output_adapter@_W@__crt_stdio_output@@@2@@__crt_stdio_output@@AEAA_NXZ@@__crt_stdio_output@@YAPEAUansi_string@?1??type_case_Z@?$output_processor@_WV?$string_output_adapter@_W@__crt_stdio_output@@V?$positional_parameter_base@_WV?$string_output_adapter@_W@__crt_stdio_output@@@2@@0@AEAA_NXZ@PEAD@Z 000000018004788c f i libucrt:output.obj
 0001:00046890       ??$peek_va_arg@PEAX@__crt_stdio_output@@YAPEAXPEAD@Z 0000000180047890 f i libucrt:output.obj
 0001:00046894       ??$peek_va_arg@U_CRT_DOUBLE@@@__crt_stdio_output@@YA?AU_CRT_DOUBLE@@PEAD@Z 0000000180047894 f i libucrt:output.obj
 0001:00046898       ??$peek_va_arg@_J@__crt_stdio_output@@YA_JPEAD@Z 0000000180047898 f i libucrt:output.obj
 0001:0004689c       ??$peek_va_arg@_K@__crt_stdio_output@@YA_KPEAD@Z 000000018004789c f i libucrt:output.obj
 0001:000468a0       ??$peek_va_arg@_W@__crt_stdio_output@@YA_WPEAD@Z 00000001800478a0 f i libucrt:output.obj
 0001:000468a4       ??$puttc_nolock@AEBDPEAU_iobuf@@@?$__crt_char_traits@D@@SAHAEBD$$QEAPEAU_iobuf@@@Z 00000001800478a4 f i libucrt:output.obj
 0001:000468b4       ??$puttc_nolock@AEB_WPEAU_iobuf@@@?$__crt_char_traits@_W@@SAGAEB_W$$QEAPEAU_iobuf@@@Z 00000001800478b4 f i libucrt:output.obj
 0001:000468c4       ??$read_va_arg@C@__crt_stdio_output@@YACAEAPEAD@Z 00000001800478c4 f i libucrt:output.obj
 0001:000468d4       ??$read_va_arg@E@__crt_stdio_output@@YAEAEAPEAD@Z 00000001800478d4 f i libucrt:output.obj
 0001:000468e4       ??$read_va_arg@F@__crt_stdio_output@@YAFAEAPEAD@Z 00000001800478e4 f i libucrt:output.obj
 0001:000468f4       ??$read_va_arg@G@__crt_stdio_output@@YAGAEAPEAD@Z 00000001800478f4 f i libucrt:output.obj
 0001:00046904       ??$read_va_arg@H@__crt_stdio_output@@YAHAEAPEAD@Z 0000000180047904 f i libucrt:output.obj
 0001:00046914       ??$read_va_arg@I@__crt_stdio_output@@YAIAEAPEAD@Z 0000000180047914 f i libucrt:output.obj
 0001:00046924       ??$read_va_arg@PEAD@__crt_stdio_output@@YAPEADAEAPEAD@Z 0000000180047924 f i libucrt:output.obj
 0001:00046934       ??$read_va_arg@PEAUansi_string@?1??type_case_Z@?$output_processor@DV?$stream_output_adapter@D@__crt_stdio_output@@V?$format_validation_base@DV?$stream_output_adapter@D@__crt_stdio_output@@@2@@__crt_stdio_output@@AEAA_NXZ@@__crt_stdio_output@@YAPEAUansi_string@?1??type_case_Z@?$output_processor@DV?$stream_output_adapter@D@__crt_stdio_output@@V?$format_validation_base@DV?$stream_output_adapter@D@__crt_stdio_output@@@2@@0@AEAA_NXZ@AEAPEAD@Z 0000000180047934 f i libucrt:output.obj
 0001:00046944       ??$read_va_arg@PEAUansi_string@?1??type_case_Z@?$output_processor@DV?$stream_output_adapter@D@__crt_stdio_output@@V?$positional_parameter_base@DV?$stream_output_adapter@D@__crt_stdio_output@@@2@@__crt_stdio_output@@AEAA_NXZ@@__crt_stdio_output@@YAPEAUansi_string@?1??type_case_Z@?$output_processor@DV?$stream_output_adapter@D@__crt_stdio_output@@V?$positional_parameter_base@DV?$stream_output_adapter@D@__crt_stdio_output@@@2@@0@AEAA_NXZ@AEAPEAD@Z 0000000180047944 f i libucrt:output.obj
 0001:00046954       ??$read_va_arg@PEAUansi_string@?1??type_case_Z@?$output_processor@DV?$stream_output_adapter@D@__crt_stdio_output@@V?$standard_base@DV?$stream_output_adapter@D@__crt_stdio_output@@@2@@__crt_stdio_output@@AEAA_NXZ@@__crt_stdio_output@@YAPEAUansi_string@?1??type_case_Z@?$output_processor@DV?$stream_output_adapter@D@__crt_stdio_output@@V?$standard_base@DV?$stream_output_adapter@D@__crt_stdio_output@@@2@@0@AEAA_NXZ@AEAPEAD@Z 0000000180047954 f i libucrt:output.obj
 0001:00046964       ??$read_va_arg@PEAUansi_string@?1??type_case_Z@?$output_processor@DV?$string_output_adapter@D@__crt_stdio_output@@V?$format_validation_base@DV?$string_output_adapter@D@__crt_stdio_output@@@2@@__crt_stdio_output@@AEAA_NXZ@@__crt_stdio_output@@YAPEAUansi_string@?1??type_case_Z@?$output_processor@DV?$string_output_adapter@D@__crt_stdio_output@@V?$format_validation_base@DV?$string_output_adapter@D@__crt_stdio_output@@@2@@0@AEAA_NXZ@AEAPEAD@Z 0000000180047964 f i libucrt:output.obj
 0001:00046974       ??$read_va_arg@PEAUansi_string@?1??type_case_Z@?$output_processor@DV?$string_output_adapter@D@__crt_stdio_output@@V?$positional_parameter_base@DV?$string_output_adapter@D@__crt_stdio_output@@@2@@__crt_stdio_output@@AEAA_NXZ@@__crt_stdio_output@@YAPEAUansi_string@?1??type_case_Z@?$output_processor@DV?$string_output_adapter@D@__crt_stdio_output@@V?$positional_parameter_base@DV?$string_output_adapter@D@__crt_stdio_output@@@2@@0@AEAA_NXZ@AEAPEAD@Z 0000000180047974 f i libucrt:output.obj
 0001:00046984       ??$read_va_arg@PEAUansi_string@?1??type_case_Z@?$output_processor@DV?$string_output_adapter@D@__crt_stdio_output@@V?$standard_base@DV?$string_output_adapter@D@__crt_stdio_output@@@2@@__crt_stdio_output@@AEAA_NXZ@@__crt_stdio_output@@YAPEAUansi_string@?1??type_case_Z@?$output_processor@DV?$string_output_adapter@D@__crt_stdio_output@@V?$standard_base@DV?$string_output_adapter@D@__crt_stdio_output@@@2@@0@AEAA_NXZ@AEAPEAD@Z 0000000180047984 f i libucrt:output.obj
 0001:00046994       ??$read_va_arg@PEAUansi_string@?1??type_case_Z@?$output_processor@_WV?$stream_output_adapter@_W@__crt_stdio_output@@V?$format_validation_base@_WV?$stream_output_adapter@_W@__crt_stdio_output@@@2@@__crt_stdio_output@@AEAA_NXZ@@__crt_stdio_output@@YAPEAUansi_string@?1??type_case_Z@?$output_processor@_WV?$stream_output_adapter@_W@__crt_stdio_output@@V?$format_validation_base@_WV?$stream_output_adapter@_W@__crt_stdio_output@@@2@@0@AEAA_NXZ@AEAPEAD@Z 0000000180047994 f i libucrt:output.obj
 0001:000469a4       ??$read_va_arg@PEAUansi_string@?1??type_case_Z@?$output_processor@_WV?$stream_output_adapter@_W@__crt_stdio_output@@V?$positional_parameter_base@_WV?$stream_output_adapter@_W@__crt_stdio_output@@@2@@__crt_stdio_output@@AEAA_NXZ@@__crt_stdio_output@@YAPEAUansi_string@?1??type_case_Z@?$output_processor@_WV?$stream_output_adapter@_W@__crt_stdio_output@@V?$positional_parameter_base@_WV?$stream_output_adapter@_W@__crt_stdio_output@@@2@@0@AEAA_NXZ@AEAPEAD@Z 00000001800479a4 f i libucrt:output.obj
 0001:000469b4       ??$read_va_arg@PEAUansi_string@?1??type_case_Z@?$output_processor@_WV?$stream_output_adapter@_W@__crt_stdio_output@@V?$standard_base@_WV?$stream_output_adapter@_W@__crt_stdio_output@@@2@@__crt_stdio_output@@AEAA_NXZ@@__crt_stdio_output@@YAPEAUansi_string@?1??type_case_Z@?$output_processor@_WV?$stream_output_adapter@_W@__crt_stdio_output@@V?$standard_base@_WV?$stream_output_adapter@_W@__crt_stdio_output@@@2@@0@AEAA_NXZ@AEAPEAD@Z 00000001800479b4 f i libucrt:output.obj
 0001:000469c4       ??$read_va_arg@PEAUansi_string@?1??type_case_Z@?$output_processor@_WV?$string_output_adapter@_W@__crt_stdio_output@@V?$format_validation_base@_WV?$string_output_adapter@_W@__crt_stdio_output@@@2@@__crt_stdio_output@@AEAA_NXZ@@__crt_stdio_output@@YAPEAUansi_string@?1??type_case_Z@?$output_processor@_WV?$string_output_adapter@_W@__crt_stdio_output@@V?$format_validation_base@_WV?$string_output_adapter@_W@__crt_stdio_output@@@2@@0@AEAA_NXZ@AEAPEAD@Z 00000001800479c4 f i libucrt:output.obj
 0001:000469d4       ??$read_va_arg@PEAUansi_string@?1??type_case_Z@?$output_processor@_WV?$string_output_adapter@_W@__crt_stdio_output@@V?$positional_parameter_base@_WV?$string_output_adapter@_W@__crt_stdio_output@@@2@@__crt_stdio_output@@AEAA_NXZ@@__crt_stdio_output@@YAPEAUansi_string@?1??type_case_Z@?$output_processor@_WV?$string_output_adapter@_W@__crt_stdio_output@@V?$positional_parameter_base@_WV?$string_output_adapter@_W@__crt_stdio_output@@@2@@0@AEAA_NXZ@AEAPEAD@Z 00000001800479d4 f i libucrt:output.obj
 0001:000469e4       ??$read_va_arg@PEAUansi_string@?1??type_case_Z@?$output_processor@_WV?$string_output_adapter@_W@__crt_stdio_output@@V?$standard_base@_WV?$string_output_adapter@_W@__crt_stdio_output@@@2@@__crt_stdio_output@@AEAA_NXZ@@__crt_stdio_output@@YAPEAUansi_string@?1??type_case_Z@?$output_processor@_WV?$string_output_adapter@_W@__crt_stdio_output@@V?$standard_base@_WV?$string_output_adapter@_W@__crt_stdio_output@@@2@@0@AEAA_NXZ@AEAPEAD@Z 00000001800479e4 f i libucrt:output.obj
 0001:000469f4       ??$read_va_arg@PEAX@__crt_stdio_output@@YAPEAXAEAPEAD@Z 00000001800479f4 f i libucrt:output.obj
 0001:00046a04       ??$read_va_arg@U_CRT_DOUBLE@@@__crt_stdio_output@@YA?AU_CRT_DOUBLE@@AEAPEAD@Z 0000000180047a04 f i libucrt:output.obj
 0001:00046a14       ??$read_va_arg@_J@__crt_stdio_output@@YA_JAEAPEAD@Z 0000000180047a14 f i libucrt:output.obj
 0001:00046a24       ??$read_va_arg@_K@__crt_stdio_output@@YA_KAEAPEAD@Z 0000000180047a24 f i libucrt:output.obj
 0001:00046a34       ??$read_va_arg@_W@__crt_stdio_output@@YA_WAEAPEAD@Z 0000000180047a34 f i libucrt:output.obj
 0001:00046a44       ??$scratch_count@D@formatting_buffer@__crt_stdio_output@@QEBA_KXZ 0000000180047a44 f i libucrt:output.obj
 0001:00046a68       ??$scratch_data@D@formatting_buffer@__crt_stdio_output@@QEAAPEADXZ 0000000180047a68 f i libucrt:output.obj
 0001:00046a94       ??$tcstol@AEAPEBDPEAPEADH@?$__crt_char_traits@D@@SAJAEAPEBD$$QEAPEAPEAD$$QEAH@Z 0000000180047a94 f i libucrt:output.obj
 0001:00046aa8       ??$tcstol@AEAPEB_WPEAPEA_WH@?$__crt_char_traits@_W@@SAJAEAPEB_W$$QEAPEAPEA_W$$QEAH@Z 0000000180047aa8 f i libucrt:output.obj
 0001:00046abc       ??$tcstol@PEBDPEAPEADH@?$__crt_char_traits@D@@SAJ$$QEAPEBD$$QEAPEAPEAD$$QEAH@Z 0000000180047abc f i libucrt:output.obj
 0001:00046ad0       ??$tcstol@PEB_WPEAPEA_WH@?$__crt_char_traits@_W@@SAJ$$QEAPEB_W$$QEAPEAPEA_W$$QEAH@Z 0000000180047ad0 f i libucrt:output.obj
 0001:00046ae4       ??$type_case_integer_parse_into_buffer@I@?$output_processor@DV?$stream_output_adapter@D@__crt_stdio_output@@V?$format_validation_base@DV?$stream_output_adapter@D@__crt_stdio_output@@@2@@__crt_stdio_output@@AEAAXII_N@Z 0000000180047ae4 f i libucrt:output.obj
 0001:00046ba8       ??$type_case_integer_parse_into_buffer@I@?$output_processor@DV?$stream_output_adapter@D@__crt_stdio_output@@V?$positional_parameter_base@DV?$stream_output_adapter@D@__crt_stdio_output@@@2@@__crt_stdio_output@@AEAAXII_N@Z 0000000180047ba8 f i libucrt:output.obj
 0001:00046c6c       ??$type_case_integer_parse_into_buffer@I@?$output_processor@DV?$stream_output_adapter@D@__crt_stdio_output@@V?$standard_base@DV?$stream_output_adapter@D@__crt_stdio_output@@@2@@__crt_stdio_output@@AEAAXII_N@Z 0000000180047c6c f i libucrt:output.obj
 0001:00046d30       ??$type_case_integer_parse_into_buffer@I@?$output_processor@DV?$string_output_adapter@D@__crt_stdio_output@@V?$format_validation_base@DV?$string_output_adapter@D@__crt_stdio_output@@@2@@__crt_stdio_output@@AEAAXII_N@Z 0000000180047d30 f i libucrt:output.obj
 0001:00046df4       ??$type_case_integer_parse_into_buffer@I@?$output_processor@DV?$string_output_adapter@D@__crt_stdio_output@@V?$positional_parameter_base@DV?$string_output_adapter@D@__crt_stdio_output@@@2@@__crt_stdio_output@@AEAAXII_N@Z 0000000180047df4 f i libucrt:output.obj
 0001:00046eb8       ??$type_case_integer_parse_into_buffer@I@?$output_processor@DV?$string_output_adapter@D@__crt_stdio_output@@V?$standard_base@DV?$string_output_adapter@D@__crt_stdio_output@@@2@@__crt_stdio_output@@AEAAXII_N@Z 0000000180047eb8 f i libucrt:output.obj
 0001:00046f7c       ??$type_case_integer_parse_into_buffer@I@?$output_processor@_WV?$stream_output_adapter@_W@__crt_stdio_output@@V?$format_validation_base@_WV?$stream_output_adapter@_W@__crt_stdio_output@@@2@@__crt_stdio_output@@AEAAXII_N@Z 0000000180047f7c f i libucrt:output.obj
 0001:00047040       ??$type_case_integer_parse_into_buffer@I@?$output_processor@_WV?$stream_output_adapter@_W@__crt_stdio_output@@V?$positional_parameter_base@_WV?$stream_output_adapter@_W@__crt_stdio_output@@@2@@__crt_stdio_output@@AEAAXII_N@Z 0000000180048040 f i libucrt:output.obj
 0001:00047104       ??$type_case_integer_parse_into_buffer@I@?$output_processor@_WV?$stream_output_adapter@_W@__crt_stdio_output@@V?$standard_base@_WV?$stream_output_adapter@_W@__crt_stdio_output@@@2@@__crt_stdio_output@@AEAAXII_N@Z 0000000180048104 f i libucrt:output.obj
 0001:000471c8       ??$type_case_integer_parse_into_buffer@I@?$output_processor@_WV?$string_output_adapter@_W@__crt_stdio_output@@V?$format_validation_base@_WV?$string_output_adapter@_W@__crt_stdio_output@@@2@@__crt_stdio_output@@AEAAXII_N@Z 00000001800481c8 f i libucrt:output.obj
 0001:0004728c       ??$type_case_integer_parse_into_buffer@I@?$output_processor@_WV?$string_output_adapter@_W@__crt_stdio_output@@V?$positional_parameter_base@_WV?$string_output_adapter@_W@__crt_stdio_output@@@2@@__crt_stdio_output@@AEAAXII_N@Z 000000018004828c f i libucrt:output.obj
 0001:00047350       ??$type_case_integer_parse_into_buffer@I@?$output_processor@_WV?$string_output_adapter@_W@__crt_stdio_output@@V?$standard_base@_WV?$string_output_adapter@_W@__crt_stdio_output@@@2@@__crt_stdio_output@@AEAAXII_N@Z 0000000180048350 f i libucrt:output.obj
 0001:00047414       ??$type_case_integer_parse_into_buffer@_K@?$output_processor@DV?$stream_output_adapter@D@__crt_stdio_output@@V?$format_validation_base@DV?$stream_output_adapter@D@__crt_stdio_output@@@2@@__crt_stdio_output@@AEAAX_KI_N@Z 0000000180048414 f i libucrt:output.obj
 0001:000474d8       ??$type_case_integer_parse_into_buffer@_K@?$output_processor@DV?$stream_output_adapter@D@__crt_stdio_output@@V?$positional_parameter_base@DV?$stream_output_adapter@D@__crt_stdio_output@@@2@@__crt_stdio_output@@AEAAX_KI_N@Z 00000001800484d8 f i libucrt:output.obj
 0001:0004759c       ??$type_case_integer_parse_into_buffer@_K@?$output_processor@DV?$stream_output_adapter@D@__crt_stdio_output@@V?$standard_base@DV?$stream_output_adapter@D@__crt_stdio_output@@@2@@__crt_stdio_output@@AEAAX_KI_N@Z 000000018004859c f i libucrt:output.obj
 0001:00047660       ??$type_case_integer_parse_into_buffer@_K@?$output_processor@DV?$string_output_adapter@D@__crt_stdio_output@@V?$format_validation_base@DV?$string_output_adapter@D@__crt_stdio_output@@@2@@__crt_stdio_output@@AEAAX_KI_N@Z 0000000180048660 f i libucrt:output.obj
 0001:00047724       ??$type_case_integer_parse_into_buffer@_K@?$output_processor@DV?$string_output_adapter@D@__crt_stdio_output@@V?$positional_parameter_base@DV?$string_output_adapter@D@__crt_stdio_output@@@2@@__crt_stdio_output@@AEAAX_KI_N@Z 0000000180048724 f i libucrt:output.obj
 0001:000477e8       ??$type_case_integer_parse_into_buffer@_K@?$output_processor@DV?$string_output_adapter@D@__crt_stdio_output@@V?$standard_base@DV?$string_output_adapter@D@__crt_stdio_output@@@2@@__crt_stdio_output@@AEAAX_KI_N@Z 00000001800487e8 f i libucrt:output.obj
 0001:000478ac       ??$type_case_integer_parse_into_buffer@_K@?$output_processor@_WV?$stream_output_adapter@_W@__crt_stdio_output@@V?$format_validation_base@_WV?$stream_output_adapter@_W@__crt_stdio_output@@@2@@__crt_stdio_output@@AEAAX_KI_N@Z 00000001800488ac f i libucrt:output.obj
 0001:00047970       ??$type_case_integer_parse_into_buffer@_K@?$output_processor@_WV?$stream_output_adapter@_W@__crt_stdio_output@@V?$positional_parameter_base@_WV?$stream_output_adapter@_W@__crt_stdio_output@@@2@@__crt_stdio_output@@AEAAX_KI_N@Z 0000000180048970 f i libucrt:output.obj
 0001:00047a34       ??$type_case_integer_parse_into_buffer@_K@?$output_processor@_WV?$stream_output_adapter@_W@__crt_stdio_output@@V?$standard_base@_WV?$stream_output_adapter@_W@__crt_stdio_output@@@2@@__crt_stdio_output@@AEAAX_KI_N@Z 0000000180048a34 f i libucrt:output.obj
 0001:00047af8       ??$type_case_integer_parse_into_buffer@_K@?$output_processor@_WV?$string_output_adapter@_W@__crt_stdio_output@@V?$format_validation_base@_WV?$string_output_adapter@_W@__crt_stdio_output@@@2@@__crt_stdio_output@@AEAAX_KI_N@Z 0000000180048af8 f i libucrt:output.obj
 0001:00047bbc       ??$type_case_integer_parse_into_buffer@_K@?$output_processor@_WV?$string_output_adapter@_W@__crt_stdio_output@@V?$positional_parameter_base@_WV?$string_output_adapter@_W@__crt_stdio_output@@@2@@__crt_stdio_output@@AEAAX_KI_N@Z 0000000180048bbc f i libucrt:output.obj
 0001:00047c80       ??$type_case_integer_parse_into_buffer@_K@?$output_processor@_WV?$string_output_adapter@_W@__crt_stdio_output@@V?$standard_base@_WV?$string_output_adapter@_W@__crt_stdio_output@@@2@@__crt_stdio_output@@AEAAX_KI_N@Z 0000000180048c80 f i libucrt:output.obj
 0001:00047d44       ??$write_multiple_characters@V?$stream_output_adapter@D@__crt_stdio_output@@D@__crt_stdio_output@@YAXAEBV?$stream_output_adapter@D@0@DHQEAH@Z 0000000180048d44 f i libucrt:output.obj
 0001:00047dec       ??$write_multiple_characters@V?$stream_output_adapter@_W@__crt_stdio_output@@D@__crt_stdio_output@@YAXAEBV?$stream_output_adapter@_W@0@DHQEAH@Z 0000000180048dec f i libucrt:output.obj
 0001:00047ea0       ??$write_multiple_characters@V?$string_output_adapter@D@__crt_stdio_output@@D@__crt_stdio_output@@YAXAEBV?$string_output_adapter@D@0@DHQEAH@Z 0000000180048ea0 f i libucrt:output.obj
 0001:00047f14       ??$write_multiple_characters@V?$string_output_adapter@_W@__crt_stdio_output@@D@__crt_stdio_output@@YAXAEBV?$string_output_adapter@_W@0@DHQEAH@Z 0000000180048f14 f i libucrt:output.obj
 0001:00048138       ??0?$common_data@D@__crt_stdio_output@@IEAA@XZ 0000000180049138 f i libucrt:output.obj
 0001:00048184       ??0?$common_data@_W@__crt_stdio_output@@IEAA@XZ 0000000180049184 f i libucrt:output.obj
 0001:000481d4       ??0?$output_adapter_data@DV?$stream_output_adapter@D@__crt_stdio_output@@@__crt_stdio_output@@IEAA@AEBV?$stream_output_adapter@D@1@_KQEBDQEAU__crt_locale_pointers@@QEAD@Z 00000001800491d4 f i libucrt:output.obj
 0001:0004824c       ??0?$output_adapter_data@DV?$string_output_adapter@D@__crt_stdio_output@@@__crt_stdio_output@@IEAA@AEBV?$string_output_adapter@D@1@_KQEBDQEAU__crt_locale_pointers@@QEAD@Z 000000018004924c f i libucrt:output.obj
 0001:000482c4       ??0?$output_adapter_data@_WV?$stream_output_adapter@_W@__crt_stdio_output@@@__crt_stdio_output@@IEAA@AEBV?$stream_output_adapter@_W@1@_KQEB_WQEAU__crt_locale_pointers@@QEAD@Z 00000001800492c4 f i libucrt:output.obj
 0001:00048340       ??0?$output_adapter_data@_WV?$string_output_adapter@_W@__crt_stdio_output@@@__crt_stdio_output@@IEAA@AEBV?$string_output_adapter@_W@1@_KQEB_WQEAU__crt_locale_pointers@@QEAD@Z 0000000180049340 f i libucrt:output.obj
 0001:000483bc       ??0?$output_processor@DV?$stream_output_adapter@D@__crt_stdio_output@@V?$format_validation_base@DV?$stream_output_adapter@D@__crt_stdio_output@@@2@@__crt_stdio_output@@QEAA@AEBV?$stream_output_adapter@D@1@_KQEBDQEAU__crt_locale_pointers@@QEAD@Z 00000001800493bc f i libucrt:output.obj
 0001:00048458       ??0?$output_processor@DV?$stream_output_adapter@D@__crt_stdio_output@@V?$positional_parameter_base@DV?$stream_output_adapter@D@__crt_stdio_output@@@2@@__crt_stdio_output@@QEAA@AEBV?$stream_output_adapter@D@1@_KQEBDQEAU__crt_locale_pointers@@QEAD@Z 0000000180049458 f i libucrt:output.obj
 0001:00048518       ??0?$output_processor@DV?$stream_output_adapter@D@__crt_stdio_output@@V?$standard_base@DV?$stream_output_adapter@D@__crt_stdio_output@@@2@@__crt_stdio_output@@QEAA@AEBV?$stream_output_adapter@D@1@_KQEBDQEAU__crt_locale_pointers@@QEAD@Z 0000000180049518 f i libucrt:output.obj
 0001:000485b4       ??0?$output_processor@DV?$string_output_adapter@D@__crt_stdio_output@@V?$format_validation_base@DV?$string_output_adapter@D@__crt_stdio_output@@@2@@__crt_stdio_output@@QEAA@AEBV?$string_output_adapter@D@1@_KQEBDQEAU__crt_locale_pointers@@QEAD@Z 00000001800495b4 f i libucrt:output.obj
 0001:00048650       ??0?$output_processor@DV?$string_output_adapter@D@__crt_stdio_output@@V?$positional_parameter_base@DV?$string_output_adapter@D@__crt_stdio_output@@@2@@__crt_stdio_output@@QEAA@AEBV?$string_output_adapter@D@1@_KQEBDQEAU__crt_locale_pointers@@QEAD@Z 0000000180049650 f i libucrt:output.obj
 0001:00048710       ??0?$output_processor@DV?$string_output_adapter@D@__crt_stdio_output@@V?$standard_base@DV?$string_output_adapter@D@__crt_stdio_output@@@2@@__crt_stdio_output@@QEAA@AEBV?$string_output_adapter@D@1@_KQEBDQEAU__crt_locale_pointers@@QEAD@Z 0000000180049710 f i libucrt:output.obj
 0001:000487ac       ??0?$output_processor@_WV?$stream_output_adapter@_W@__crt_stdio_output@@V?$format_validation_base@_WV?$stream_output_adapter@_W@__crt_stdio_output@@@2@@__crt_stdio_output@@QEAA@AEBV?$stream_output_adapter@_W@1@_KQEB_WQEAU__crt_locale_pointers@@QEAD@Z 00000001800497ac f i libucrt:output.obj
 0001:0004884c       ??0?$output_processor@_WV?$stream_output_adapter@_W@__crt_stdio_output@@V?$positional_parameter_base@_WV?$stream_output_adapter@_W@__crt_stdio_output@@@2@@__crt_stdio_output@@QEAA@AEBV?$stream_output_adapter@_W@1@_KQEB_WQEAU__crt_locale_pointers@@QEAD@Z 000000018004984c f i libucrt:output.obj
 0001:00048910       ??0?$output_processor@_WV?$stream_output_adapter@_W@__crt_stdio_output@@V?$standard_base@_WV?$stream_output_adapter@_W@__crt_stdio_output@@@2@@__crt_stdio_output@@QEAA@AEBV?$stream_output_adapter@_W@1@_KQEB_WQEAU__crt_locale_pointers@@QEAD@Z 0000000180049910 f i libucrt:output.obj
 0001:000489b0       ??0?$output_processor@_WV?$string_output_adapter@_W@__crt_stdio_output@@V?$format_validation_base@_WV?$string_output_adapter@_W@__crt_stdio_output@@@2@@__crt_stdio_output@@QEAA@AEBV?$string_output_adapter@_W@1@_KQEB_WQEAU__crt_locale_pointers@@QEAD@Z 00000001800499b0 f i libucrt:output.obj
 0001:00048a50       ??0?$output_processor@_WV?$string_output_adapter@_W@__crt_stdio_output@@V?$positional_parameter_base@_WV?$string_output_adapter@_W@__crt_stdio_output@@@2@@__crt_stdio_output@@QEAA@AEBV?$string_output_adapter@_W@1@_KQEB_WQEAU__crt_locale_pointers@@QEAD@Z 0000000180049a50 f i libucrt:output.obj
 0001:00048b14       ??0?$output_processor@_WV?$string_output_adapter@_W@__crt_stdio_output@@V?$standard_base@_WV?$string_output_adapter@_W@__crt_stdio_output@@@2@@__crt_stdio_output@@QEAA@AEBV?$string_output_adapter@_W@1@_KQEB_WQEAU__crt_locale_pointers@@QEAD@Z 0000000180049b14 f i libucrt:output.obj
 0001:00048bb4       ??0?$stream_output_adapter@D@__crt_stdio_output@@QEAA@QEAU_iobuf@@@Z 0000000180049bb4 f i libucrt:output.obj
 0001:00048bbc       ??0?$stream_output_adapter@_W@__crt_stdio_output@@QEAA@QEAU_iobuf@@@Z 0000000180049bbc f i libucrt:output.obj
 0001:00048bc4       ??0?$string_output_adapter@D@__crt_stdio_output@@QEAA@QEAU?$string_output_adapter_context@D@1@@Z 0000000180049bc4 f i libucrt:output.obj
 0001:00048bcc       ??0?$string_output_adapter@_W@__crt_stdio_output@@QEAA@QEAU?$string_output_adapter_context@_W@1@@Z 0000000180049bcc f i libucrt:output.obj
 0001:00048bd4       ??0_LocaleUpdate@@QEAA@QEAU__crt_locale_pointers@@@Z 0000000180049bd4 f i libucrt:output.obj
 0001:00048c88       ??0__acrt_stdio_temporary_buffering_guard@@QEAA@QEAU_iobuf@@@Z 0000000180049c88 f i libucrt:output.obj
 0001:00048cb0       ??0__crt_errno_guard@@QEAA@QEAH@Z 0000000180049cb0 f i libucrt:output.obj
 0001:00048cc4       ??0__crt_stdio_stream@@QEAA@QEAU_iobuf@@@Z 0000000180049cc4 f i libucrt:output.obj
 0001:00048ccc       ??0formatting_buffer@__crt_stdio_output@@QEAA@XZ 0000000180049ccc f i libucrt:output.obj
 0001:00048ce8       ??1?$common_data@D@__crt_stdio_output@@QEAA@XZ 0000000180049ce8 f i libucrt:output.obj
 0001:00048d14       ??1?$common_data@_W@__crt_stdio_output@@QEAA@XZ 0000000180049d14 f i libucrt:output.obj
 0001:00048d40       ??1?$format_validation_base@DV?$stream_output_adapter@D@__crt_stdio_output@@@__crt_stdio_output@@QEAA@XZ 0000000180049d40 f i libucrt:output.obj
 0001:00048d6c       ??1?$format_validation_base@DV?$string_output_adapter@D@__crt_stdio_output@@@__crt_stdio_output@@QEAA@XZ 0000000180049d6c f i libucrt:output.obj
 0001:00048d98       ??1?$format_validation_base@_WV?$stream_output_adapter@_W@__crt_stdio_output@@@__crt_stdio_output@@QEAA@XZ 0000000180049d98 f i libucrt:output.obj
 0001:00048dc4       ??1?$format_validation_base@_WV?$string_output_adapter@_W@__crt_stdio_output@@@__crt_stdio_output@@QEAA@XZ 0000000180049dc4 f i libucrt:output.obj
 0001:00048df0       ??1?$output_adapter_data@DV?$stream_output_adapter@D@__crt_stdio_output@@@__crt_stdio_output@@QEAA@XZ 0000000180049df0 f i libucrt:output.obj
 0001:00048e1c       ??1?$output_adapter_data@DV?$string_output_adapter@D@__crt_stdio_output@@@__crt_stdio_output@@QEAA@XZ 0000000180049e1c f i libucrt:output.obj
 0001:00048e48       ??1?$output_adapter_data@_WV?$stream_output_adapter@_W@__crt_stdio_output@@@__crt_stdio_output@@QEAA@XZ 0000000180049e48 f i libucrt:output.obj
 0001:00048e74       ??1?$output_adapter_data@_WV?$string_output_adapter@_W@__crt_stdio_output@@@__crt_stdio_output@@QEAA@XZ 0000000180049e74 f i libucrt:output.obj
 0001:00048ea0       ??1?$output_processor@DV?$stream_output_adapter@D@__crt_stdio_output@@V?$format_validation_base@DV?$stream_output_adapter@D@__crt_stdio_output@@@2@@__crt_stdio_output@@QEAA@XZ 0000000180049ea0 f i libucrt:output.obj
 0001:00048ecc       ??1?$output_processor@DV?$stream_output_adapter@D@__crt_stdio_output@@V?$positional_parameter_base@DV?$stream_output_adapter@D@__crt_stdio_output@@@2@@__crt_stdio_output@@QEAA@XZ 0000000180049ecc f i libucrt:output.obj
 0001:00048ef8       ??1?$output_processor@DV?$stream_output_adapter@D@__crt_stdio_output@@V?$standard_base@DV?$stream_output_adapter@D@__crt_stdio_output@@@2@@__crt_stdio_output@@QEAA@XZ 0000000180049ef8 f i libucrt:output.obj
 0001:00048f24       ??1?$output_processor@DV?$string_output_adapter@D@__crt_stdio_output@@V?$format_validation_base@DV?$string_output_adapter@D@__crt_stdio_output@@@2@@__crt_stdio_output@@QEAA@XZ 0000000180049f24 f i libucrt:output.obj
 0001:00048f50       ??1?$output_processor@DV?$string_output_adapter@D@__crt_stdio_output@@V?$positional_parameter_base@DV?$string_output_adapter@D@__crt_stdio_output@@@2@@__crt_stdio_output@@QEAA@XZ 0000000180049f50 f i libucrt:output.obj
 0001:00048f7c       ??1?$output_processor@DV?$string_output_adapter@D@__crt_stdio_output@@V?$standard_base@DV?$string_output_adapter@D@__crt_stdio_output@@@2@@__crt_stdio_output@@QEAA@XZ 0000000180049f7c f i libucrt:output.obj
 0001:00048fa8       ??1?$output_processor@_WV?$stream_output_adapter@_W@__crt_stdio_output@@V?$format_validation_base@_WV?$stream_output_adapter@_W@__crt_stdio_output@@@2@@__crt_stdio_output@@QEAA@XZ 0000000180049fa8 f i libucrt:output.obj
 0001:00048fd4       ??1?$output_processor@_WV?$stream_output_adapter@_W@__crt_stdio_output@@V?$positional_parameter_base@_WV?$stream_output_adapter@_W@__crt_stdio_output@@@2@@__crt_stdio_output@@QEAA@XZ 0000000180049fd4 f i libucrt:output.obj
 0001:00049000       ??1?$output_processor@_WV?$stream_output_adapter@_W@__crt_stdio_output@@V?$standard_base@_WV?$stream_output_adapter@_W@__crt_stdio_output@@@2@@__crt_stdio_output@@QEAA@XZ 000000018004a000 f i libucrt:output.obj
 0001:0004902c       ??1?$output_processor@_WV?$string_output_adapter@_W@__crt_stdio_output@@V?$format_validation_base@_WV?$string_output_adapter@_W@__crt_stdio_output@@@2@@__crt_stdio_output@@QEAA@XZ 000000018004a02c f i libucrt:output.obj
 0001:00049058       ??1?$output_processor@_WV?$string_output_adapter@_W@__crt_stdio_output@@V?$positional_parameter_base@_WV?$string_output_adapter@_W@__crt_stdio_output@@@2@@__crt_stdio_output@@QEAA@XZ 000000018004a058 f i libucrt:output.obj
 0001:00049084       ??1?$output_processor@_WV?$string_output_adapter@_W@__crt_stdio_output@@V?$standard_base@_WV?$string_output_adapter@_W@__crt_stdio_output@@@2@@__crt_stdio_output@@QEAA@XZ 000000018004a084 f i libucrt:output.obj
 0001:000490b0       ??1?$positional_parameter_base@DV?$stream_output_adapter@D@__crt_stdio_output@@@__crt_stdio_output@@QEAA@XZ 000000018004a0b0 f i libucrt:output.obj
 0001:000490dc       ??1?$positional_parameter_base@DV?$string_output_adapter@D@__crt_stdio_output@@@__crt_stdio_output@@QEAA@XZ 000000018004a0dc f i libucrt:output.obj
 0001:00049108       ??1?$positional_parameter_base@_WV?$stream_output_adapter@_W@__crt_stdio_output@@@__crt_stdio_output@@QEAA@XZ 000000018004a108 f i libucrt:output.obj
 0001:00049134       ??1?$positional_parameter_base@_WV?$string_output_adapter@_W@__crt_stdio_output@@@__crt_stdio_output@@QEAA@XZ 000000018004a134 f i libucrt:output.obj
 0001:00049160       ??1?$standard_base@DV?$stream_output_adapter@D@__crt_stdio_output@@@__crt_stdio_output@@QEAA@XZ 000000018004a160 f i libucrt:output.obj
 0001:0004918c       ??1?$standard_base@DV?$string_output_adapter@D@__crt_stdio_output@@@__crt_stdio_output@@QEAA@XZ 000000018004a18c f i libucrt:output.obj
 0001:000491b8       ??1?$standard_base@_WV?$stream_output_adapter@_W@__crt_stdio_output@@@__crt_stdio_output@@QEAA@XZ 000000018004a1b8 f i libucrt:output.obj
 0001:000491e4       ??1?$standard_base@_WV?$string_output_adapter@_W@__crt_stdio_output@@@__crt_stdio_output@@QEAA@XZ 000000018004a1e4 f i libucrt:output.obj
 0001:00049210       ??1_LocaleUpdate@@QEAA@XZ  000000018004a210 f i libucrt:output.obj
 0001:00049228       ??1__acrt_stdio_temporary_buffering_guard@@QEAA@XZ 000000018004a228 f i libucrt:output.obj
 0001:00049238       ??1__crt_errno_guard@@QEAA@XZ 000000018004a238 f i libucrt:output.obj
 0001:00049250       ??1formatting_buffer@__crt_stdio_output@@QEAA@XZ 000000018004a250 f i libucrt:output.obj
 0001:0004927c       ??4?$__crt_unique_heap_ptr@DU__crt_internal_free_policy@@@@QEAAAEAV0@$$QEAV0@@Z 000000018004a27c f i libucrt:output.obj
 0001:000492c0       ??C__crt_stdio_stream@@QEBAPEAU__crt_stdio_stream_data@@XZ 000000018004a2c0 f i libucrt:output.obj
 0001:00049a5c       ?GetLocaleT@_LocaleUpdate@@QEAAPEAU__crt_locale_pointers@@XZ 000000018004aa5c f i libucrt:output.obj
 0001:00049a64       ?adjust_hexit@?$output_processor@DV?$stream_output_adapter@D@__crt_stdio_output@@V?$format_validation_base@DV?$stream_output_adapter@D@__crt_stdio_output@@@2@@__crt_stdio_output@@CADH_N@Z 000000018004aa64 f i libucrt:output.obj
 0001:00049a74       ?adjust_hexit@?$output_processor@DV?$stream_output_adapter@D@__crt_stdio_output@@V?$positional_parameter_base@DV?$stream_output_adapter@D@__crt_stdio_output@@@2@@__crt_stdio_output@@CADH_N@Z 000000018004aa74 f i libucrt:output.obj
 0001:00049a84       ?adjust_hexit@?$output_processor@DV?$stream_output_adapter@D@__crt_stdio_output@@V?$standard_base@DV?$stream_output_adapter@D@__crt_stdio_output@@@2@@__crt_stdio_output@@CADH_N@Z 000000018004aa84 f i libucrt:output.obj
 0001:00049a94       ?adjust_hexit@?$output_processor@DV?$string_output_adapter@D@__crt_stdio_output@@V?$format_validation_base@DV?$string_output_adapter@D@__crt_stdio_output@@@2@@__crt_stdio_output@@CADH_N@Z 000000018004aa94 f i libucrt:output.obj
 0001:00049aa4       ?adjust_hexit@?$output_processor@DV?$string_output_adapter@D@__crt_stdio_output@@V?$positional_parameter_base@DV?$string_output_adapter@D@__crt_stdio_output@@@2@@__crt_stdio_output@@CADH_N@Z 000000018004aaa4 f i libucrt:output.obj
 0001:00049ab4       ?adjust_hexit@?$output_processor@DV?$string_output_adapter@D@__crt_stdio_output@@V?$standard_base@DV?$string_output_adapter@D@__crt_stdio_output@@@2@@__crt_stdio_output@@CADH_N@Z 000000018004aab4 f i libucrt:output.obj
 0001:00049ac4       ?adjust_hexit@?$output_processor@_WV?$stream_output_adapter@_W@__crt_stdio_output@@V?$format_validation_base@_WV?$stream_output_adapter@_W@__crt_stdio_output@@@2@@__crt_stdio_output@@CADH_N@Z 000000018004aac4 f i libucrt:output.obj
 0001:00049ad4       ?adjust_hexit@?$output_processor@_WV?$stream_output_adapter@_W@__crt_stdio_output@@V?$positional_parameter_base@_WV?$stream_output_adapter@_W@__crt_stdio_output@@@2@@__crt_stdio_output@@CADH_N@Z 000000018004aad4 f i libucrt:output.obj
 0001:00049ae4       ?adjust_hexit@?$output_processor@_WV?$stream_output_adapter@_W@__crt_stdio_output@@V?$standard_base@_WV?$stream_output_adapter@_W@__crt_stdio_output@@@2@@__crt_stdio_output@@CADH_N@Z 000000018004aae4 f i libucrt:output.obj
 0001:00049af4       ?adjust_hexit@?$output_processor@_WV?$string_output_adapter@_W@__crt_stdio_output@@V?$format_validation_base@_WV?$string_output_adapter@_W@__crt_stdio_output@@@2@@__crt_stdio_output@@CADH_N@Z 000000018004aaf4 f i libucrt:output.obj
 0001:00049b04       ?adjust_hexit@?$output_processor@_WV?$string_output_adapter@_W@__crt_stdio_output@@V?$positional_parameter_base@_WV?$string_output_adapter@_W@__crt_stdio_output@@@2@@__crt_stdio_output@@CADH_N@Z 000000018004ab04 f i libucrt:output.obj
 0001:00049b14       ?adjust_hexit@?$output_processor@_WV?$string_output_adapter@_W@__crt_stdio_output@@V?$standard_base@_WV?$string_output_adapter@_W@__crt_stdio_output@@@2@@__crt_stdio_output@@CADH_N@Z 000000018004ab14 f i libucrt:output.obj
 0001:00049b24       ?advance_to_next_pass@?$positional_parameter_base@DV?$stream_output_adapter@D@__crt_stdio_output@@@__crt_stdio_output@@IEAA_NXZ 000000018004ab24 f i libucrt:output.obj
 0001:00049b88       ?advance_to_next_pass@?$positional_parameter_base@DV?$string_output_adapter@D@__crt_stdio_output@@@__crt_stdio_output@@IEAA_NXZ 000000018004ab88 f i libucrt:output.obj
 0001:00049bec       ?advance_to_next_pass@?$positional_parameter_base@_WV?$stream_output_adapter@_W@__crt_stdio_output@@@__crt_stdio_output@@IEAA_NXZ 000000018004abec f i libucrt:output.obj
 0001:00049c50       ?advance_to_next_pass@?$positional_parameter_base@_WV?$string_output_adapter@_W@__crt_stdio_output@@@__crt_stdio_output@@IEAA_NXZ 000000018004ac50 f i libucrt:output.obj
 0001:00049cb4       ?advance_to_next_pass@?$standard_base@DV?$stream_output_adapter@D@__crt_stdio_output@@@__crt_stdio_output@@IEAA_NXZ 000000018004acb4 f i libucrt:output.obj
 0001:00049ccc       ?advance_to_next_pass@?$standard_base@DV?$string_output_adapter@D@__crt_stdio_output@@@__crt_stdio_output@@IEAA_NXZ 000000018004accc f i libucrt:output.obj
 0001:00049ce4       ?advance_to_next_pass@?$standard_base@_WV?$stream_output_adapter@_W@__crt_stdio_output@@@__crt_stdio_output@@IEAA_NXZ 000000018004ace4 f i libucrt:output.obj
 0001:00049cfc       ?advance_to_next_pass@?$standard_base@_WV?$string_output_adapter@_W@__crt_stdio_output@@@__crt_stdio_output@@IEAA_NXZ 000000018004acfc f i libucrt:output.obj
 0001:00049d14       ?crop_zeroes@__crt_stdio_output@@YAXPEADQEAU__crt_locale_pointers@@@Z 000000018004ad14 f i libucrt:output.obj
 0001:00049d88       ?find_next_state@?$output_processor@DV?$stream_output_adapter@D@__crt_stdio_output@@V?$format_validation_base@DV?$stream_output_adapter@D@__crt_stdio_output@@@2@@__crt_stdio_output@@AEBA?AW4state@2@DW432@@Z 000000018004ad88 f i libucrt:output.obj
 0001:00049dc4       ?find_next_state@?$output_processor@DV?$stream_output_adapter@D@__crt_stdio_output@@V?$positional_parameter_base@DV?$stream_output_adapter@D@__crt_stdio_output@@@2@@__crt_stdio_output@@AEBA?AW4state@2@DW432@@Z 000000018004adc4 f i libucrt:output.obj
 0001:00049e00       ?find_next_state@?$output_processor@DV?$stream_output_adapter@D@__crt_stdio_output@@V?$standard_base@DV?$stream_output_adapter@D@__crt_stdio_output@@@2@@__crt_stdio_output@@AEBA?AW4state@2@DW432@@Z 000000018004ae00 f i libucrt:output.obj
 0001:00049e38       ?find_next_state@?$output_processor@DV?$string_output_adapter@D@__crt_stdio_output@@V?$format_validation_base@DV?$string_output_adapter@D@__crt_stdio_output@@@2@@__crt_stdio_output@@AEBA?AW4state@2@DW432@@Z 000000018004ae38 f i libucrt:output.obj
 0001:00049e74       ?find_next_state@?$output_processor@DV?$string_output_adapter@D@__crt_stdio_output@@V?$positional_parameter_base@DV?$string_output_adapter@D@__crt_stdio_output@@@2@@__crt_stdio_output@@AEBA?AW4state@2@DW432@@Z 000000018004ae74 f i libucrt:output.obj
 0001:00049eb0       ?find_next_state@?$output_processor@DV?$string_output_adapter@D@__crt_stdio_output@@V?$standard_base@DV?$string_output_adapter@D@__crt_stdio_output@@@2@@__crt_stdio_output@@AEBA?AW4state@2@DW432@@Z 000000018004aeb0 f i libucrt:output.obj
 0001:00049ee8       ?find_next_state@?$output_processor@_WV?$stream_output_adapter@_W@__crt_stdio_output@@V?$format_validation_base@_WV?$stream_output_adapter@_W@__crt_stdio_output@@@2@@__crt_stdio_output@@AEBA?AW4state@2@_WW432@@Z 000000018004aee8 f i libucrt:output.obj
 0001:00049f24       ?find_next_state@?$output_processor@_WV?$stream_output_adapter@_W@__crt_stdio_output@@V?$positional_parameter_base@_WV?$stream_output_adapter@_W@__crt_stdio_output@@@2@@__crt_stdio_output@@AEBA?AW4state@2@_WW432@@Z 000000018004af24 f i libucrt:output.obj
 0001:00049f60       ?find_next_state@?$output_processor@_WV?$stream_output_adapter@_W@__crt_stdio_output@@V?$standard_base@_WV?$stream_output_adapter@_W@__crt_stdio_output@@@2@@__crt_stdio_output@@AEBA?AW4state@2@_WW432@@Z 000000018004af60 f i libucrt:output.obj
 0001:00049f98       ?find_next_state@?$output_processor@_WV?$string_output_adapter@_W@__crt_stdio_output@@V?$format_validation_base@_WV?$string_output_adapter@_W@__crt_stdio_output@@@2@@__crt_stdio_output@@AEBA?AW4state@2@_WW432@@Z 000000018004af98 f i libucrt:output.obj
 0001:00049fd4       ?find_next_state@?$output_processor@_WV?$string_output_adapter@_W@__crt_stdio_output@@V?$positional_parameter_base@_WV?$string_output_adapter@_W@__crt_stdio_output@@@2@@__crt_stdio_output@@AEBA?AW4state@2@_WW432@@Z 000000018004afd4 f i libucrt:output.obj
 0001:0004a010       ?find_next_state@?$output_processor@_WV?$string_output_adapter@_W@__crt_stdio_output@@V?$standard_base@_WV?$string_output_adapter@_W@__crt_stdio_output@@@2@@__crt_stdio_output@@AEBA?AW4state@2@_WW432@@Z 000000018004b010 f i libucrt:output.obj
 0001:0004a048       ?force_decimal_point@__crt_stdio_output@@YAXPEADQEAU__crt_locale_pointers@@@Z 000000018004b048 f i libucrt:output.obj
 0001:0004a0d0       ?get_flags@__crt_stdio_stream@@QEBAJXZ 000000018004b0d0 f i libucrt:output.obj
 0001:0004a0d8       ?get_parameter_type@?$positional_parameter_base@DV?$stream_output_adapter@D@__crt_stdio_output@@@__crt_stdio_output@@CA?AW4parameter_type@12@F@Z 000000018004b0d8 f i libucrt:output.obj
 0001:0004a0e0       ?get_parameter_type@?$positional_parameter_base@DV?$stream_output_adapter@D@__crt_stdio_output@@@__crt_stdio_output@@CA?AW4parameter_type@12@G@Z 000000018004b0e0 f i libucrt:output.obj
 0001:0004a0e8       ?get_parameter_type@?$positional_parameter_base@DV?$stream_output_adapter@D@__crt_stdio_output@@@__crt_stdio_output@@CA?AW4parameter_type@12@H@Z 000000018004b0e8 f i libucrt:output.obj
 0001:0004a0f0       ?get_parameter_type@?$positional_parameter_base@DV?$stream_output_adapter@D@__crt_stdio_output@@@__crt_stdio_output@@CA?AW4parameter_type@12@I@Z 000000018004b0f0 f i libucrt:output.obj
 0001:0004a0f8       ?get_parameter_type@?$positional_parameter_base@DV?$stream_output_adapter@D@__crt_stdio_output@@@__crt_stdio_output@@CA?AW4parameter_type@12@U_CRT_DOUBLE@@@Z 000000018004b0f8 f i libucrt:output.obj
 0001:0004a100       ?get_parameter_type@?$positional_parameter_base@DV?$stream_output_adapter@D@__crt_stdio_output@@@__crt_stdio_output@@CA?AW4parameter_type@12@_J@Z 000000018004b100 f i libucrt:output.obj
 0001:0004a108       ?get_parameter_type@?$positional_parameter_base@DV?$stream_output_adapter@D@__crt_stdio_output@@@__crt_stdio_output@@CA?AW4parameter_type@12@_K@Z 000000018004b108 f i libucrt:output.obj
 0001:0004a110       ?get_parameter_type@?$positional_parameter_base@DV?$stream_output_adapter@D@__crt_stdio_output@@@__crt_stdio_output@@CA?AW4parameter_type@12@_W@Z 000000018004b110 f i libucrt:output.obj
 0001:0004a118       ?get_parameter_type@?$positional_parameter_base@DV?$string_output_adapter@D@__crt_stdio_output@@@__crt_stdio_output@@CA?AW4parameter_type@12@F@Z 000000018004b118 f i libucrt:output.obj
 0001:0004a120       ?get_parameter_type@?$positional_parameter_base@DV?$string_output_adapter@D@__crt_stdio_output@@@__crt_stdio_output@@CA?AW4parameter_type@12@G@Z 000000018004b120 f i libucrt:output.obj
 0001:0004a128       ?get_parameter_type@?$positional_parameter_base@DV?$string_output_adapter@D@__crt_stdio_output@@@__crt_stdio_output@@CA?AW4parameter_type@12@H@Z 000000018004b128 f i libucrt:output.obj
 0001:0004a130       ?get_parameter_type@?$positional_parameter_base@DV?$string_output_adapter@D@__crt_stdio_output@@@__crt_stdio_output@@CA?AW4parameter_type@12@I@Z 000000018004b130 f i libucrt:output.obj
 0001:0004a138       ?get_parameter_type@?$positional_parameter_base@DV?$string_output_adapter@D@__crt_stdio_output@@@__crt_stdio_output@@CA?AW4parameter_type@12@U_CRT_DOUBLE@@@Z 000000018004b138 f i libucrt:output.obj
 0001:0004a140       ?get_parameter_type@?$positional_parameter_base@DV?$string_output_adapter@D@__crt_stdio_output@@@__crt_stdio_output@@CA?AW4parameter_type@12@_J@Z 000000018004b140 f i libucrt:output.obj
 0001:0004a148       ?get_parameter_type@?$positional_parameter_base@DV?$string_output_adapter@D@__crt_stdio_output@@@__crt_stdio_output@@CA?AW4parameter_type@12@_K@Z 000000018004b148 f i libucrt:output.obj
 0001:0004a150       ?get_parameter_type@?$positional_parameter_base@DV?$string_output_adapter@D@__crt_stdio_output@@@__crt_stdio_output@@CA?AW4parameter_type@12@_W@Z 000000018004b150 f i libucrt:output.obj
 0001:0004a158       ?get_parameter_type@?$positional_parameter_base@_WV?$stream_output_adapter@_W@__crt_stdio_output@@@__crt_stdio_output@@CA?AW4parameter_type@12@F@Z 000000018004b158 f i libucrt:output.obj
 0001:0004a160       ?get_parameter_type@?$positional_parameter_base@_WV?$stream_output_adapter@_W@__crt_stdio_output@@@__crt_stdio_output@@CA?AW4parameter_type@12@G@Z 000000018004b160 f i libucrt:output.obj
 0001:0004a168       ?get_parameter_type@?$positional_parameter_base@_WV?$stream_output_adapter@_W@__crt_stdio_output@@@__crt_stdio_output@@CA?AW4parameter_type@12@H@Z 000000018004b168 f i libucrt:output.obj
 0001:0004a170       ?get_parameter_type@?$positional_parameter_base@_WV?$stream_output_adapter@_W@__crt_stdio_output@@@__crt_stdio_output@@CA?AW4parameter_type@12@I@Z 000000018004b170 f i libucrt:output.obj
 0001:0004a178       ?get_parameter_type@?$positional_parameter_base@_WV?$stream_output_adapter@_W@__crt_stdio_output@@@__crt_stdio_output@@CA?AW4parameter_type@12@U_CRT_DOUBLE@@@Z 000000018004b178 f i libucrt:output.obj
 0001:0004a180       ?get_parameter_type@?$positional_parameter_base@_WV?$stream_output_adapter@_W@__crt_stdio_output@@@__crt_stdio_output@@CA?AW4parameter_type@12@_J@Z 000000018004b180 f i libucrt:output.obj
 0001:0004a188       ?get_parameter_type@?$positional_parameter_base@_WV?$stream_output_adapter@_W@__crt_stdio_output@@@__crt_stdio_output@@CA?AW4parameter_type@12@_K@Z 000000018004b188 f i libucrt:output.obj
 0001:0004a190       ?get_parameter_type@?$positional_parameter_base@_WV?$stream_output_adapter@_W@__crt_stdio_output@@@__crt_stdio_output@@CA?AW4parameter_type@12@_W@Z 000000018004b190 f i libucrt:output.obj
 0001:0004a198       ?get_parameter_type@?$positional_parameter_base@_WV?$string_output_adapter@_W@__crt_stdio_output@@@__crt_stdio_output@@CA?AW4parameter_type@12@F@Z 000000018004b198 f i libucrt:output.obj
 0001:0004a1a0       ?get_parameter_type@?$positional_parameter_base@_WV?$string_output_adapter@_W@__crt_stdio_output@@@__crt_stdio_output@@CA?AW4parameter_type@12@G@Z 000000018004b1a0 f i libucrt:output.obj
 0001:0004a1a8       ?get_parameter_type@?$positional_parameter_base@_WV?$string_output_adapter@_W@__crt_stdio_output@@@__crt_stdio_output@@CA?AW4parameter_type@12@H@Z 000000018004b1a8 f i libucrt:output.obj
 0001:0004a1b0       ?get_parameter_type@?$positional_parameter_base@_WV?$string_output_adapter@_W@__crt_stdio_output@@@__crt_stdio_output@@CA?AW4parameter_type@12@I@Z 000000018004b1b0 f i libucrt:output.obj
 0001:0004a1b8       ?get_parameter_type@?$positional_parameter_base@_WV?$string_output_adapter@_W@__crt_stdio_output@@@__crt_stdio_output@@CA?AW4parameter_type@12@U_CRT_DOUBLE@@@Z 000000018004b1b8 f i libucrt:output.obj
 0001:0004a1c0       ?get_parameter_type@?$positional_parameter_base@_WV?$string_output_adapter@_W@__crt_stdio_output@@@__crt_stdio_output@@CA?AW4parameter_type@12@_J@Z 000000018004b1c0 f i libucrt:output.obj
 0001:0004a1c8       ?get_parameter_type@?$positional_parameter_base@_WV?$string_output_adapter@_W@__crt_stdio_output@@@__crt_stdio_output@@CA?AW4parameter_type@12@_K@Z 000000018004b1c8 f i libucrt:output.obj
 0001:0004a1d0       ?get_parameter_type@?$positional_parameter_base@_WV?$string_output_adapter@_W@__crt_stdio_output@@@__crt_stdio_output@@CA?AW4parameter_type@12@_W@Z 000000018004b1d0 f i libucrt:output.obj
 0001:0004a1d8       ?has_flag@?$output_processor@DV?$stream_output_adapter@D@__crt_stdio_output@@V?$format_validation_base@DV?$stream_output_adapter@D@__crt_stdio_output@@@2@@__crt_stdio_output@@AEBA_NI@Z 000000018004b1d8 f i libucrt:output.obj
 0001:0004a1e0       ?has_flag@?$output_processor@DV?$stream_output_adapter@D@__crt_stdio_output@@V?$positional_parameter_base@DV?$stream_output_adapter@D@__crt_stdio_output@@@2@@__crt_stdio_output@@AEBA_NI@Z 000000018004b1e0 f i libucrt:output.obj
 0001:0004a1e8       ?has_flag@?$output_processor@DV?$stream_output_adapter@D@__crt_stdio_output@@V?$standard_base@DV?$stream_output_adapter@D@__crt_stdio_output@@@2@@__crt_stdio_output@@AEBA_NI@Z 000000018004b1e8 f i libucrt:output.obj
 0001:0004a1f0       ?has_flag@?$output_processor@DV?$string_output_adapter@D@__crt_stdio_output@@V?$format_validation_base@DV?$string_output_adapter@D@__crt_stdio_output@@@2@@__crt_stdio_output@@AEBA_NI@Z 000000018004b1f0 f i libucrt:output.obj
 0001:0004a1f8       ?has_flag@?$output_processor@DV?$string_output_adapter@D@__crt_stdio_output@@V?$positional_parameter_base@DV?$string_output_adapter@D@__crt_stdio_output@@@2@@__crt_stdio_output@@AEBA_NI@Z 000000018004b1f8 f i libucrt:output.obj
 0001:0004a200       ?has_flag@?$output_processor@DV?$string_output_adapter@D@__crt_stdio_output@@V?$standard_base@DV?$string_output_adapter@D@__crt_stdio_output@@@2@@__crt_stdio_output@@AEBA_NI@Z 000000018004b200 f i libucrt:output.obj
 0001:0004a208       ?has_flag@?$output_processor@_WV?$stream_output_adapter@_W@__crt_stdio_output@@V?$format_validation_base@_WV?$stream_output_adapter@_W@__crt_stdio_output@@@2@@__crt_stdio_output@@AEBA_NI@Z 000000018004b208 f i libucrt:output.obj
 0001:0004a210       ?has_flag@?$output_processor@_WV?$stream_output_adapter@_W@__crt_stdio_output@@V?$positional_parameter_base@_WV?$stream_output_adapter@_W@__crt_stdio_output@@@2@@__crt_stdio_output@@AEBA_NI@Z 000000018004b210 f i libucrt:output.obj
 0001:0004a218       ?has_flag@?$output_processor@_WV?$stream_output_adapter@_W@__crt_stdio_output@@V?$standard_base@_WV?$stream_output_adapter@_W@__crt_stdio_output@@@2@@__crt_stdio_output@@AEBA_NI@Z 000000018004b218 f i libucrt:output.obj
 0001:0004a220       ?has_flag@?$output_processor@_WV?$string_output_adapter@_W@__crt_stdio_output@@V?$format_validation_base@_WV?$string_output_adapter@_W@__crt_stdio_output@@@2@@__crt_stdio_output@@AEBA_NI@Z 000000018004b220 f i libucrt:output.obj
 0001:0004a228       ?has_flag@?$output_processor@_WV?$string_output_adapter@_W@__crt_stdio_output@@V?$positional_parameter_base@_WV?$string_output_adapter@_W@__crt_stdio_output@@@2@@__crt_stdio_output@@AEBA_NI@Z 000000018004b228 f i libucrt:output.obj
 0001:0004a230       ?has_flag@?$output_processor@_WV?$string_output_adapter@_W@__crt_stdio_output@@V?$standard_base@_WV?$string_output_adapter@_W@__crt_stdio_output@@@2@@__crt_stdio_output@@AEBA_NI@Z 000000018004b230 f i libucrt:output.obj
 0001:0004a238       ?is_positional_parameter_reappearance_consistent@?$positional_parameter_base@DV?$stream_output_adapter@D@__crt_stdio_output@@@__crt_stdio_output@@AEAA_NAEBUparameter_data@12@W4parameter_type@12@DW4length_modifier@2@@Z 000000018004b238 f i libucrt:output.obj
 0001:0004a4a0       ?is_positional_parameter_reappearance_consistent@?$positional_parameter_base@DV?$string_output_adapter@D@__crt_stdio_output@@@__crt_stdio_output@@AEAA_NAEBUparameter_data@12@W4parameter_type@12@DW4length_modifier@2@@Z 000000018004b4a0 f i libucrt:output.obj
 0001:0004a708       ?is_positional_parameter_reappearance_consistent@?$positional_parameter_base@_WV?$stream_output_adapter@_W@__crt_stdio_output@@@__crt_stdio_output@@AEAA_NAEBUparameter_data@12@W4parameter_type@12@_WW4length_modifier@2@@Z 000000018004b708 f i libucrt:output.obj
 0001:0004a990       ?is_positional_parameter_reappearance_consistent@?$positional_parameter_base@_WV?$string_output_adapter@_W@__crt_stdio_output@@@__crt_stdio_output@@AEAA_NAEBUparameter_data@12@W4parameter_type@12@_WW4length_modifier@2@@Z 000000018004b990 f i libucrt:output.obj
 0001:0004ac18       ?is_string_backed@__crt_stdio_stream@@QEBA_NXZ 000000018004bc18 f i libucrt:output.obj
 0001:0004ac28       ?narrow_null_string@?$output_processor@DV?$stream_output_adapter@D@__crt_stdio_output@@V?$format_validation_base@DV?$stream_output_adapter@D@__crt_stdio_output@@@2@@__crt_stdio_output@@CAPEADXZ 000000018004bc28 f i libucrt:output.obj
 0001:0004ac34       ?narrow_null_string@?$output_processor@DV?$stream_output_adapter@D@__crt_stdio_output@@V?$positional_parameter_base@DV?$stream_output_adapter@D@__crt_stdio_output@@@2@@__crt_stdio_output@@CAPEADXZ 000000018004bc34 f i libucrt:output.obj
 0001:0004ac40       ?narrow_null_string@?$output_processor@DV?$stream_output_adapter@D@__crt_stdio_output@@V?$standard_base@DV?$stream_output_adapter@D@__crt_stdio_output@@@2@@__crt_stdio_output@@CAPEADXZ 000000018004bc40 f i libucrt:output.obj
 0001:0004ac4c       ?narrow_null_string@?$output_processor@DV?$string_output_adapter@D@__crt_stdio_output@@V?$format_validation_base@DV?$string_output_adapter@D@__crt_stdio_output@@@2@@__crt_stdio_output@@CAPEADXZ 000000018004bc4c f i libucrt:output.obj
 0001:0004ac58       ?narrow_null_string@?$output_processor@DV?$string_output_adapter@D@__crt_stdio_output@@V?$positional_parameter_base@DV?$string_output_adapter@D@__crt_stdio_output@@@2@@__crt_stdio_output@@CAPEADXZ 000000018004bc58 f i libucrt:output.obj
 0001:0004ac64       ?narrow_null_string@?$output_processor@DV?$string_output_adapter@D@__crt_stdio_output@@V?$standard_base@DV?$string_output_adapter@D@__crt_stdio_output@@@2@@__crt_stdio_output@@CAPEADXZ 000000018004bc64 f i libucrt:output.obj
 0001:0004ac70       ?narrow_null_string@?$output_processor@_WV?$stream_output_adapter@_W@__crt_stdio_output@@V?$format_validation_base@_WV?$stream_output_adapter@_W@__crt_stdio_output@@@2@@__crt_stdio_output@@CAPEADXZ 000000018004bc70 f i libucrt:output.obj
 0001:0004ac7c       ?narrow_null_string@?$output_processor@_WV?$stream_output_adapter@_W@__crt_stdio_output@@V?$positional_parameter_base@_WV?$stream_output_adapter@_W@__crt_stdio_output@@@2@@__crt_stdio_output@@CAPEADXZ 000000018004bc7c f i libucrt:output.obj
 0001:0004ac88       ?narrow_null_string@?$output_processor@_WV?$stream_output_adapter@_W@__crt_stdio_output@@V?$standard_base@_WV?$stream_output_adapter@_W@__crt_stdio_output@@@2@@__crt_stdio_output@@CAPEADXZ 000000018004bc88 f i libucrt:output.obj
 0001:0004ac94       ?narrow_null_string@?$output_processor@_WV?$string_output_adapter@_W@__crt_stdio_output@@V?$format_validation_base@_WV?$string_output_adapter@_W@__crt_stdio_output@@@2@@__crt_stdio_output@@CAPEADXZ 000000018004bc94 f i libucrt:output.obj
 0001:0004aca0       ?narrow_null_string@?$output_processor@_WV?$string_output_adapter@_W@__crt_stdio_output@@V?$positional_parameter_base@_WV?$string_output_adapter@_W@__crt_stdio_output@@@2@@__crt_stdio_output@@CAPEADXZ 000000018004bca0 f i libucrt:output.obj
 0001:0004acac       ?narrow_null_string@?$output_processor@_WV?$string_output_adapter@_W@__crt_stdio_output@@V?$standard_base@_WV?$string_output_adapter@_W@__crt_stdio_output@@@2@@__crt_stdio_output@@CAPEADXZ 000000018004bcac f i libucrt:output.obj
 0001:0004acb8       ?parse_int_from_format_string@?$output_processor@DV?$stream_output_adapter@D@__crt_stdio_output@@V?$format_validation_base@DV?$stream_output_adapter@D@__crt_stdio_output@@@2@@__crt_stdio_output@@AEAA_NQEAH@Z 000000018004bcb8 f i libucrt:output.obj
 0001:0004ad5c       ?parse_int_from_format_string@?$output_processor@DV?$stream_output_adapter@D@__crt_stdio_output@@V?$positional_parameter_base@DV?$stream_output_adapter@D@__crt_stdio_output@@@2@@__crt_stdio_output@@AEAA_NQEAH@Z 000000018004bd5c f i libucrt:output.obj
 0001:0004ae00       ?parse_int_from_format_string@?$output_processor@DV?$stream_output_adapter@D@__crt_stdio_output@@V?$standard_base@DV?$stream_output_adapter@D@__crt_stdio_output@@@2@@__crt_stdio_output@@AEAA_NQEAH@Z 000000018004be00 f i libucrt:output.obj
 0001:0004aea4       ?parse_int_from_format_string@?$output_processor@DV?$string_output_adapter@D@__crt_stdio_output@@V?$format_validation_base@DV?$string_output_adapter@D@__crt_stdio_output@@@2@@__crt_stdio_output@@AEAA_NQEAH@Z 000000018004bea4 f i libucrt:output.obj
 0001:0004af48       ?parse_int_from_format_string@?$output_processor@DV?$string_output_adapter@D@__crt_stdio_output@@V?$positional_parameter_base@DV?$string_output_adapter@D@__crt_stdio_output@@@2@@__crt_stdio_output@@AEAA_NQEAH@Z 000000018004bf48 f i libucrt:output.obj
 0001:0004afec       ?parse_int_from_format_string@?$output_processor@DV?$string_output_adapter@D@__crt_stdio_output@@V?$standard_base@DV?$string_output_adapter@D@__crt_stdio_output@@@2@@__crt_stdio_output@@AEAA_NQEAH@Z 000000018004bfec f i libucrt:output.obj
 0001:0004b090       ?parse_int_from_format_string@?$output_processor@_WV?$stream_output_adapter@_W@__crt_stdio_output@@V?$format_validation_base@_WV?$stream_output_adapter@_W@__crt_stdio_output@@@2@@__crt_stdio_output@@AEAA_NQEAH@Z 000000018004c090 f i libucrt:output.obj
 0001:0004b130       ?parse_int_from_format_string@?$output_processor@_WV?$stream_output_adapter@_W@__crt_stdio_output@@V?$positional_parameter_base@_WV?$stream_output_adapter@_W@__crt_stdio_output@@@2@@__crt_stdio_output@@AEAA_NQEAH@Z 000000018004c130 f i libucrt:output.obj
 0001:0004b1d0       ?parse_int_from_format_string@?$output_processor@_WV?$stream_output_adapter@_W@__crt_stdio_output@@V?$standard_base@_WV?$stream_output_adapter@_W@__crt_stdio_output@@@2@@__crt_stdio_output@@AEAA_NQEAH@Z 000000018004c1d0 f i libucrt:output.obj
 0001:0004b270       ?parse_int_from_format_string@?$output_processor@_WV?$string_output_adapter@_W@__crt_stdio_output@@V?$format_validation_base@_WV?$string_output_adapter@_W@__crt_stdio_output@@@2@@__crt_stdio_output@@AEAA_NQEAH@Z 000000018004c270 f i libucrt:output.obj
 0001:0004b310       ?parse_int_from_format_string@?$output_processor@_WV?$string_output_adapter@_W@__crt_stdio_output@@V?$positional_parameter_base@_WV?$string_output_adapter@_W@__crt_stdio_output@@@2@@__crt_stdio_output@@AEAA_NQEAH@Z 000000018004c310 f i libucrt:output.obj
 0001:0004b3b0       ?parse_int_from_format_string@?$output_processor@_WV?$string_output_adapter@_W@__crt_stdio_output@@V?$standard_base@_WV?$string_output_adapter@_W@__crt_stdio_output@@@2@@__crt_stdio_output@@AEAA_NQEAH@Z 000000018004c3b0 f i libucrt:output.obj
 0001:0004b450       ?process@?$output_processor@DV?$stream_output_adapter@D@__crt_stdio_output@@V?$format_validation_base@DV?$stream_output_adapter@D@__crt_stdio_output@@@2@@__crt_stdio_output@@QEAAHXZ 000000018004c450 f i libucrt:output.obj
 0001:0004b6f8       ?process@?$output_processor@DV?$stream_output_adapter@D@__crt_stdio_output@@V?$positional_parameter_base@DV?$stream_output_adapter@D@__crt_stdio_output@@@2@@__crt_stdio_output@@QEAAHXZ 000000018004c6f8 f i libucrt:output.obj
 0001:0004ba3c       ?process@?$output_processor@DV?$stream_output_adapter@D@__crt_stdio_output@@V?$standard_base@DV?$stream_output_adapter@D@__crt_stdio_output@@@2@@__crt_stdio_output@@QEAAHXZ 000000018004ca3c f i libucrt:output.obj
 0001:0004bcd0       ?process@?$output_processor@DV?$string_output_adapter@D@__crt_stdio_output@@V?$format_validation_base@DV?$string_output_adapter@D@__crt_stdio_output@@@2@@__crt_stdio_output@@QEAAHXZ 000000018004ccd0 f i libucrt:output.obj
 0001:0004bf68       ?process@?$output_processor@DV?$string_output_adapter@D@__crt_stdio_output@@V?$positional_parameter_base@DV?$string_output_adapter@D@__crt_stdio_output@@@2@@__crt_stdio_output@@QEAAHXZ 000000018004cf68 f i libucrt:output.obj
 0001:0004c29c       ?process@?$output_processor@DV?$string_output_adapter@D@__crt_stdio_output@@V?$standard_base@DV?$string_output_adapter@D@__crt_stdio_output@@@2@@__crt_stdio_output@@QEAAHXZ 000000018004d29c f i libucrt:output.obj
 0001:0004c520       ?process@?$output_processor@_WV?$stream_output_adapter@_W@__crt_stdio_output@@V?$format_validation_base@_WV?$stream_output_adapter@_W@__crt_stdio_output@@@2@@__crt_stdio_output@@QEAAHXZ 000000018004d520 f i libucrt:output.obj
 0001:0004c844       ?process@?$output_processor@_WV?$stream_output_adapter@_W@__crt_stdio_output@@V?$positional_parameter_base@_WV?$stream_output_adapter@_W@__crt_stdio_output@@@2@@__crt_stdio_output@@QEAAHXZ 000000018004d844 f i libucrt:output.obj
 0001:0004cba4       ?process@?$output_processor@_WV?$stream_output_adapter@_W@__crt_stdio_output@@V?$standard_base@_WV?$stream_output_adapter@_W@__crt_stdio_output@@@2@@__crt_stdio_output@@QEAAHXZ 000000018004dba4 f i libucrt:output.obj
 0001:0004ceb8       ?process@?$output_processor@_WV?$string_output_adapter@_W@__crt_stdio_output@@V?$format_validation_base@_WV?$string_output_adapter@_W@__crt_stdio_output@@@2@@__crt_stdio_output@@QEAAHXZ 000000018004deb8 f i libucrt:output.obj
 0001:0004d1e0       ?process@?$output_processor@_WV?$string_output_adapter@_W@__crt_stdio_output@@V?$positional_parameter_base@_WV?$string_output_adapter@_W@__crt_stdio_output@@@2@@__crt_stdio_output@@QEAAHXZ 000000018004e1e0 f i libucrt:output.obj
 0001:0004d540       ?process@?$output_processor@_WV?$string_output_adapter@_W@__crt_stdio_output@@V?$standard_base@_WV?$string_output_adapter@_W@__crt_stdio_output@@@2@@__crt_stdio_output@@QEAAHXZ 000000018004e540 f i libucrt:output.obj
 0001:0004d858       ?public_stream@__crt_stdio_stream@@QEBAPEAU_iobuf@@XZ 000000018004e858 f i libucrt:output.obj
 0001:0004d85c       ?set_flag@?$output_processor@DV?$stream_output_adapter@D@__crt_stdio_output@@V?$format_validation_base@DV?$stream_output_adapter@D@__crt_stdio_output@@@2@@__crt_stdio_output@@AEAAXI@Z 000000018004e85c f i libucrt:output.obj
 0001:0004d860       ?set_flag@?$output_processor@DV?$stream_output_adapter@D@__crt_stdio_output@@V?$positional_parameter_base@DV?$stream_output_adapter@D@__crt_stdio_output@@@2@@__crt_stdio_output@@AEAAXI@Z 000000018004e860 f i libucrt:output.obj
 0001:0004d864       ?set_flag@?$output_processor@DV?$stream_output_adapter@D@__crt_stdio_output@@V?$standard_base@DV?$stream_output_adapter@D@__crt_stdio_output@@@2@@__crt_stdio_output@@AEAAXI@Z 000000018004e864 f i libucrt:output.obj
 0001:0004d868       ?set_flag@?$output_processor@DV?$string_output_adapter@D@__crt_stdio_output@@V?$format_validation_base@DV?$string_output_adapter@D@__crt_stdio_output@@@2@@__crt_stdio_output@@AEAAXI@Z 000000018004e868 f i libucrt:output.obj
 0001:0004d86c       ?set_flag@?$output_processor@DV?$string_output_adapter@D@__crt_stdio_output@@V?$positional_parameter_base@DV?$string_output_adapter@D@__crt_stdio_output@@@2@@__crt_stdio_output@@AEAAXI@Z 000000018004e86c f i libucrt:output.obj
 0001:0004d870       ?set_flag@?$output_processor@DV?$string_output_adapter@D@__crt_stdio_output@@V?$standard_base@DV?$string_output_adapter@D@__crt_stdio_output@@@2@@__crt_stdio_output@@AEAAXI@Z 000000018004e870 f i libucrt:output.obj
 0001:0004d874       ?set_flag@?$output_processor@_WV?$stream_output_adapter@_W@__crt_stdio_output@@V?$format_validation_base@_WV?$stream_output_adapter@_W@__crt_stdio_output@@@2@@__crt_stdio_output@@AEAAXI@Z 000000018004e874 f i libucrt:output.obj
 0001:0004d878       ?set_flag@?$output_processor@_WV?$stream_output_adapter@_W@__crt_stdio_output@@V?$positional_parameter_base@_WV?$stream_output_adapter@_W@__crt_stdio_output@@@2@@__crt_stdio_output@@AEAAXI@Z 000000018004e878 f i libucrt:output.obj
 0001:0004d87c       ?set_flag@?$output_processor@_WV?$stream_output_adapter@_W@__crt_stdio_output@@V?$standard_base@_WV?$stream_output_adapter@_W@__crt_stdio_output@@@2@@__crt_stdio_output@@AEAAXI@Z 000000018004e87c f i libucrt:output.obj
 0001:0004d880       ?set_flag@?$output_processor@_WV?$string_output_adapter@_W@__crt_stdio_output@@V?$format_validation_base@_WV?$string_output_adapter@_W@__crt_stdio_output@@@2@@__crt_stdio_output@@AEAAXI@Z 000000018004e880 f i libucrt:output.obj
 0001:0004d884       ?set_flag@?$output_processor@_WV?$string_output_adapter@_W@__crt_stdio_output@@V?$positional_parameter_base@_WV?$string_output_adapter@_W@__crt_stdio_output@@@2@@__crt_stdio_output@@AEAAXI@Z 000000018004e884 f i libucrt:output.obj
 0001:0004d888       ?set_flag@?$output_processor@_WV?$string_output_adapter@_W@__crt_stdio_output@@V?$standard_base@_WV?$string_output_adapter@_W@__crt_stdio_output@@@2@@__crt_stdio_output@@AEAAXI@Z 000000018004e888 f i libucrt:output.obj
 0001:0004d88c       ?should_format@?$positional_parameter_base@DV?$stream_output_adapter@D@__crt_stdio_output@@@__crt_stdio_output@@IEAA_NXZ 000000018004e88c f i libucrt:output.obj
 0001:0004d8ac       ?should_format@?$positional_parameter_base@DV?$string_output_adapter@D@__crt_stdio_output@@@__crt_stdio_output@@IEAA_NXZ 000000018004e8ac f i libucrt:output.obj
 0001:0004d8cc       ?should_format@?$positional_parameter_base@_WV?$stream_output_adapter@_W@__crt_stdio_output@@@__crt_stdio_output@@IEAA_NXZ 000000018004e8cc f i libucrt:output.obj
 0001:0004d8ec       ?should_format@?$positional_parameter_base@_WV?$string_output_adapter@_W@__crt_stdio_output@@@__crt_stdio_output@@IEAA_NXZ 000000018004e8ec f i libucrt:output.obj
 0001:0004d90c       ?should_format@?$standard_base@DV?$stream_output_adapter@D@__crt_stdio_output@@@__crt_stdio_output@@IEAA_NXZ 000000018004e90c f i libucrt:output.obj
 0001:0004d910       ?should_format@?$standard_base@DV?$string_output_adapter@D@__crt_stdio_output@@@__crt_stdio_output@@IEAA_NXZ 000000018004e910 f i libucrt:output.obj
 0001:0004d914       ?should_format@?$standard_base@_WV?$stream_output_adapter@_W@__crt_stdio_output@@@__crt_stdio_output@@IEAA_NXZ 000000018004e914 f i libucrt:output.obj
 0001:0004d918       ?should_format@?$standard_base@_WV?$string_output_adapter@_W@__crt_stdio_output@@@__crt_stdio_output@@IEAA_NXZ 000000018004e918 f i libucrt:output.obj
 0001:0004d91c       ?should_skip_normal_state_processing@?$positional_parameter_base@DV?$stream_output_adapter@D@__crt_stdio_output@@@__crt_stdio_output@@IEAA_NXZ 000000018004e91c f i libucrt:output.obj
 0001:0004d950       ?should_skip_normal_state_processing@?$positional_parameter_base@DV?$string_output_adapter@D@__crt_stdio_output@@@__crt_stdio_output@@IEAA_NXZ 000000018004e950 f i libucrt:output.obj
 0001:0004d984       ?should_skip_normal_state_processing@?$positional_parameter_base@_WV?$stream_output_adapter@_W@__crt_stdio_output@@@__crt_stdio_output@@IEAA_NXZ 000000018004e984 f i libucrt:output.obj
 0001:0004d9b8       ?should_skip_normal_state_processing@?$positional_parameter_base@_WV?$string_output_adapter@_W@__crt_stdio_output@@@__crt_stdio_output@@IEAA_NXZ 000000018004e9b8 f i libucrt:output.obj
 0001:0004d9ec       ?should_skip_normal_state_processing@?$standard_base@DV?$stream_output_adapter@D@__crt_stdio_output@@@__crt_stdio_output@@IEAA_NXZ 000000018004e9ec f i libucrt:output.obj
 0001:0004d9f0       ?should_skip_normal_state_processing@?$standard_base@DV?$string_output_adapter@D@__crt_stdio_output@@@__crt_stdio_output@@IEAA_NXZ 000000018004e9f0 f i libucrt:output.obj
 0001:0004d9f4       ?should_skip_normal_state_processing@?$standard_base@_WV?$stream_output_adapter@_W@__crt_stdio_output@@@__crt_stdio_output@@IEAA_NXZ 000000018004e9f4 f i libucrt:output.obj
 0001:0004d9f8       ?should_skip_normal_state_processing@?$standard_base@_WV?$string_output_adapter@_W@__crt_stdio_output@@@__crt_stdio_output@@IEAA_NXZ 000000018004e9f8 f i libucrt:output.obj
 0001:0004d9fc       ?should_skip_type_state_output@?$positional_parameter_base@DV?$stream_output_adapter@D@__crt_stdio_output@@@__crt_stdio_output@@IEBA_NXZ 000000018004e9fc f i libucrt:output.obj
 0001:0004da1c       ?should_skip_type_state_output@?$positional_parameter_base@DV?$string_output_adapter@D@__crt_stdio_output@@@__crt_stdio_output@@IEBA_NXZ 000000018004ea1c f i libucrt:output.obj
 0001:0004da3c       ?should_skip_type_state_output@?$positional_parameter_base@_WV?$stream_output_adapter@_W@__crt_stdio_output@@@__crt_stdio_output@@IEBA_NXZ 000000018004ea3c f i libucrt:output.obj
 0001:0004da5c       ?should_skip_type_state_output@?$positional_parameter_base@_WV?$string_output_adapter@_W@__crt_stdio_output@@@__crt_stdio_output@@IEBA_NXZ 000000018004ea5c f i libucrt:output.obj
 0001:0004da7c       ?should_skip_type_state_output@?$standard_base@DV?$stream_output_adapter@D@__crt_stdio_output@@@__crt_stdio_output@@IEBA_NXZ 000000018004ea7c f i libucrt:output.obj
 0001:0004da80       ?should_skip_type_state_output@?$standard_base@DV?$string_output_adapter@D@__crt_stdio_output@@@__crt_stdio_output@@IEBA_NXZ 000000018004ea80 f i libucrt:output.obj
 0001:0004da84       ?should_skip_type_state_output@?$standard_base@_WV?$stream_output_adapter@_W@__crt_stdio_output@@@__crt_stdio_output@@IEBA_NXZ 000000018004ea84 f i libucrt:output.obj
 0001:0004da88       ?should_skip_type_state_output@?$standard_base@_WV?$string_output_adapter@_W@__crt_stdio_output@@@__crt_stdio_output@@IEBA_NXZ 000000018004ea88 f i libucrt:output.obj
 0001:0004da8c       ?state_case_dot@?$output_processor@DV?$stream_output_adapter@D@__crt_stdio_output@@V?$format_validation_base@DV?$stream_output_adapter@D@__crt_stdio_output@@@2@@__crt_stdio_output@@AEAA_NXZ 000000018004ea8c f i libucrt:output.obj
 0001:0004da94       ?state_case_dot@?$output_processor@DV?$stream_output_adapter@D@__crt_stdio_output@@V?$positional_parameter_base@DV?$stream_output_adapter@D@__crt_stdio_output@@@2@@__crt_stdio_output@@AEAA_NXZ 000000018004ea94 f i libucrt:output.obj
 0001:0004da9c       ?state_case_dot@?$output_processor@DV?$stream_output_adapter@D@__crt_stdio_output@@V?$standard_base@DV?$stream_output_adapter@D@__crt_stdio_output@@@2@@__crt_stdio_output@@AEAA_NXZ 000000018004ea9c f i libucrt:output.obj
 0001:0004daa4       ?state_case_dot@?$output_processor@DV?$string_output_adapter@D@__crt_stdio_output@@V?$format_validation_base@DV?$string_output_adapter@D@__crt_stdio_output@@@2@@__crt_stdio_output@@AEAA_NXZ 000000018004eaa4 f i libucrt:output.obj
 0001:0004daac       ?state_case_dot@?$output_processor@DV?$string_output_adapter@D@__crt_stdio_output@@V?$positional_parameter_base@DV?$string_output_adapter@D@__crt_stdio_output@@@2@@__crt_stdio_output@@AEAA_NXZ 000000018004eaac f i libucrt:output.obj
 0001:0004dab4       ?state_case_dot@?$output_processor@DV?$string_output_adapter@D@__crt_stdio_output@@V?$standard_base@DV?$string_output_adapter@D@__crt_stdio_output@@@2@@__crt_stdio_output@@AEAA_NXZ 000000018004eab4 f i libucrt:output.obj
 0001:0004dabc       ?state_case_dot@?$output_processor@_WV?$stream_output_adapter@_W@__crt_stdio_output@@V?$format_validation_base@_WV?$stream_output_adapter@_W@__crt_stdio_output@@@2@@__crt_stdio_output@@AEAA_NXZ 000000018004eabc f i libucrt:output.obj
 0001:0004dac4       ?state_case_dot@?$output_processor@_WV?$stream_output_adapter@_W@__crt_stdio_output@@V?$positional_parameter_base@_WV?$stream_output_adapter@_W@__crt_stdio_output@@@2@@__crt_stdio_output@@AEAA_NXZ 000000018004eac4 f i libucrt:output.obj
 0001:0004dacc       ?state_case_dot@?$output_processor@_WV?$stream_output_adapter@_W@__crt_stdio_output@@V?$standard_base@_WV?$stream_output_adapter@_W@__crt_stdio_output@@@2@@__crt_stdio_output@@AEAA_NXZ 000000018004eacc f i libucrt:output.obj
 0001:0004dad4       ?state_case_dot@?$output_processor@_WV?$string_output_adapter@_W@__crt_stdio_output@@V?$format_validation_base@_WV?$string_output_adapter@_W@__crt_stdio_output@@@2@@__crt_stdio_output@@AEAA_NXZ 000000018004ead4 f i libucrt:output.obj
 0001:0004dadc       ?state_case_dot@?$output_processor@_WV?$string_output_adapter@_W@__crt_stdio_output@@V?$positional_parameter_base@_WV?$string_output_adapter@_W@__crt_stdio_output@@@2@@__crt_stdio_output@@AEAA_NXZ 000000018004eadc f i libucrt:output.obj
 0001:0004dae4       ?state_case_dot@?$output_processor@_WV?$string_output_adapter@_W@__crt_stdio_output@@V?$standard_base@_WV?$string_output_adapter@_W@__crt_stdio_output@@@2@@__crt_stdio_output@@AEAA_NXZ 000000018004eae4 f i libucrt:output.obj
 0001:0004daec       ?state_case_flag@?$output_processor@DV?$stream_output_adapter@D@__crt_stdio_output@@V?$format_validation_base@DV?$stream_output_adapter@D@__crt_stdio_output@@@2@@__crt_stdio_output@@AEAA_NXZ 000000018004eaec f i libucrt:output.obj
 0001:0004db30       ?state_case_flag@?$output_processor@DV?$stream_output_adapter@D@__crt_stdio_output@@V?$positional_parameter_base@DV?$stream_output_adapter@D@__crt_stdio_output@@@2@@__crt_stdio_output@@AEAA_NXZ 000000018004eb30 f i libucrt:output.obj
 0001:0004db74       ?state_case_flag@?$output_processor@DV?$stream_output_adapter@D@__crt_stdio_output@@V?$standard_base@DV?$stream_output_adapter@D@__crt_stdio_output@@@2@@__crt_stdio_output@@AEAA_NXZ 000000018004eb74 f i libucrt:output.obj
 0001:0004dbb8       ?state_case_flag@?$output_processor@DV?$string_output_adapter@D@__crt_stdio_output@@V?$format_validation_base@DV?$string_output_adapter@D@__crt_stdio_output@@@2@@__crt_stdio_output@@AEAA_NXZ 000000018004ebb8 f i libucrt:output.obj
 0001:0004dbfc       ?state_case_flag@?$output_processor@DV?$string_output_adapter@D@__crt_stdio_output@@V?$positional_parameter_base@DV?$string_output_adapter@D@__crt_stdio_output@@@2@@__crt_stdio_output@@AEAA_NXZ 000000018004ebfc f i libucrt:output.obj
 0001:0004dc40       ?state_case_flag@?$output_processor@DV?$string_output_adapter@D@__crt_stdio_output@@V?$standard_base@DV?$string_output_adapter@D@__crt_stdio_output@@@2@@__crt_stdio_output@@AEAA_NXZ 000000018004ec40 f i libucrt:output.obj
 0001:0004dc84       ?state_case_flag@?$output_processor@_WV?$stream_output_adapter@_W@__crt_stdio_output@@V?$format_validation_base@_WV?$stream_output_adapter@_W@__crt_stdio_output@@@2@@__crt_stdio_output@@AEAA_NXZ 000000018004ec84 f i libucrt:output.obj
 0001:0004dcd0       ?state_case_flag@?$output_processor@_WV?$stream_output_adapter@_W@__crt_stdio_output@@V?$positional_parameter_base@_WV?$stream_output_adapter@_W@__crt_stdio_output@@@2@@__crt_stdio_output@@AEAA_NXZ 000000018004ecd0 f i libucrt:output.obj
 0001:0004dd1c       ?state_case_flag@?$output_processor@_WV?$stream_output_adapter@_W@__crt_stdio_output@@V?$standard_base@_WV?$stream_output_adapter@_W@__crt_stdio_output@@@2@@__crt_stdio_output@@AEAA_NXZ 000000018004ed1c f i libucrt:output.obj
 0001:0004dd68       ?state_case_flag@?$output_processor@_WV?$string_output_adapter@_W@__crt_stdio_output@@V?$format_validation_base@_WV?$string_output_adapter@_W@__crt_stdio_output@@@2@@__crt_stdio_output@@AEAA_NXZ 000000018004ed68 f i libucrt:output.obj
 0001:0004ddb4       ?state_case_flag@?$output_processor@_WV?$string_output_adapter@_W@__crt_stdio_output@@V?$positional_parameter_base@_WV?$string_output_adapter@_W@__crt_stdio_output@@@2@@__crt_stdio_output@@AEAA_NXZ 000000018004edb4 f i libucrt:output.obj
 0001:0004de00       ?state_case_flag@?$output_processor@_WV?$string_output_adapter@_W@__crt_stdio_output@@V?$standard_base@_WV?$string_output_adapter@_W@__crt_stdio_output@@@2@@__crt_stdio_output@@AEAA_NXZ 000000018004ee00 f i libucrt:output.obj
 0001:0004de4c       ?state_case_normal@?$output_processor@DV?$stream_output_adapter@D@__crt_stdio_output@@V?$format_validation_base@DV?$stream_output_adapter@D@__crt_stdio_output@@@2@@__crt_stdio_output@@AEAA_NXZ 000000018004ee4c f i libucrt:output.obj
 0001:0004ded8       ?state_case_normal@?$output_processor@DV?$stream_output_adapter@D@__crt_stdio_output@@V?$positional_parameter_base@DV?$stream_output_adapter@D@__crt_stdio_output@@@2@@__crt_stdio_output@@AEAA_NXZ 000000018004eed8 f i libucrt:output.obj
 0001:0004df94       ?state_case_normal@?$output_processor@DV?$stream_output_adapter@D@__crt_stdio_output@@V?$standard_base@DV?$stream_output_adapter@D@__crt_stdio_output@@@2@@__crt_stdio_output@@AEAA_NXZ 000000018004ef94 f i libucrt:output.obj
 0001:0004e020       ?state_case_normal@?$output_processor@DV?$string_output_adapter@D@__crt_stdio_output@@V?$format_validation_base@DV?$string_output_adapter@D@__crt_stdio_output@@@2@@__crt_stdio_output@@AEAA_NXZ 000000018004f020 f i libucrt:output.obj
 0001:0004e0b4       ?state_case_normal@?$output_processor@DV?$string_output_adapter@D@__crt_stdio_output@@V?$positional_parameter_base@DV?$string_output_adapter@D@__crt_stdio_output@@@2@@__crt_stdio_output@@AEAA_NXZ 000000018004f0b4 f i libucrt:output.obj
 0001:0004e174       ?state_case_normal@?$output_processor@DV?$string_output_adapter@D@__crt_stdio_output@@V?$standard_base@DV?$string_output_adapter@D@__crt_stdio_output@@@2@@__crt_stdio_output@@AEAA_NXZ 000000018004f174 f i libucrt:output.obj
 0001:0004e208       ?state_case_normal@?$output_processor@_WV?$stream_output_adapter@_W@__crt_stdio_output@@V?$format_validation_base@_WV?$stream_output_adapter@_W@__crt_stdio_output@@@2@@__crt_stdio_output@@AEAA_NXZ 000000018004f208 f i libucrt:output.obj
 0001:0004e278       ?state_case_normal@?$output_processor@_WV?$stream_output_adapter@_W@__crt_stdio_output@@V?$positional_parameter_base@_WV?$stream_output_adapter@_W@__crt_stdio_output@@@2@@__crt_stdio_output@@AEAA_NXZ 000000018004f278 f i libucrt:output.obj
 0001:0004e318       ?state_case_normal@?$output_processor@_WV?$stream_output_adapter@_W@__crt_stdio_output@@V?$standard_base@_WV?$stream_output_adapter@_W@__crt_stdio_output@@@2@@__crt_stdio_output@@AEAA_NXZ 000000018004f318 f i libucrt:output.obj
 0001:0004e388       ?state_case_normal@?$output_processor@_WV?$string_output_adapter@_W@__crt_stdio_output@@V?$format_validation_base@_WV?$string_output_adapter@_W@__crt_stdio_output@@@2@@__crt_stdio_output@@AEAA_NXZ 000000018004f388 f i libucrt:output.obj
 0001:0004e3f4       ?state_case_normal@?$output_processor@_WV?$string_output_adapter@_W@__crt_stdio_output@@V?$positional_parameter_base@_WV?$string_output_adapter@_W@__crt_stdio_output@@@2@@__crt_stdio_output@@AEAA_NXZ 000000018004f3f4 f i libucrt:output.obj
 0001:0004e484       ?state_case_normal@?$output_processor@_WV?$string_output_adapter@_W@__crt_stdio_output@@V?$standard_base@_WV?$string_output_adapter@_W@__crt_stdio_output@@@2@@__crt_stdio_output@@AEAA_NXZ 000000018004f484 f i libucrt:output.obj
 0001:0004e4f0       ?state_case_normal_common@?$output_processor@DV?$stream_output_adapter@D@__crt_stdio_output@@V?$format_validation_base@DV?$stream_output_adapter@D@__crt_stdio_output@@@2@@__crt_stdio_output@@AEAA_NXZ 000000018004f4f0 f i libucrt:output.obj
 0001:0004e564       ?state_case_normal_common@?$output_processor@DV?$stream_output_adapter@D@__crt_stdio_output@@V?$positional_parameter_base@DV?$stream_output_adapter@D@__crt_stdio_output@@@2@@__crt_stdio_output@@AEAA_NXZ 000000018004f564 f i libucrt:output.obj
 0001:0004e5d8       ?state_case_normal_common@?$output_processor@DV?$stream_output_adapter@D@__crt_stdio_output@@V?$standard_base@DV?$stream_output_adapter@D@__crt_stdio_output@@@2@@__crt_stdio_output@@AEAA_NXZ 000000018004f5d8 f i libucrt:output.obj
 0001:0004e64c       ?state_case_normal_common@?$output_processor@DV?$string_output_adapter@D@__crt_stdio_output@@V?$format_validation_base@DV?$string_output_adapter@D@__crt_stdio_output@@@2@@__crt_stdio_output@@AEAA_NXZ 000000018004f64c f i libucrt:output.obj
 0001:0004e6c4       ?state_case_normal_common@?$output_processor@DV?$string_output_adapter@D@__crt_stdio_output@@V?$positional_parameter_base@DV?$string_output_adapter@D@__crt_stdio_output@@@2@@__crt_stdio_output@@AEAA_NXZ 000000018004f6c4 f i libucrt:output.obj
 0001:0004e73c       ?state_case_normal_common@?$output_processor@DV?$string_output_adapter@D@__crt_stdio_output@@V?$standard_base@DV?$string_output_adapter@D@__crt_stdio_output@@@2@@__crt_stdio_output@@AEAA_NXZ 000000018004f73c f i libucrt:output.obj
 0001:0004e7b4       ?state_case_normal_common@?$output_processor@_WV?$stream_output_adapter@_W@__crt_stdio_output@@V?$format_validation_base@_WV?$stream_output_adapter@_W@__crt_stdio_output@@@2@@__crt_stdio_output@@AEAA_NXZ 000000018004f7b4 f i libucrt:output.obj
 0001:0004e824       ?state_case_normal_common@?$output_processor@_WV?$stream_output_adapter@_W@__crt_stdio_output@@V?$positional_parameter_base@_WV?$stream_output_adapter@_W@__crt_stdio_output@@@2@@__crt_stdio_output@@AEAA_NXZ 000000018004f824 f i libucrt:output.obj
 0001:0004e894       ?state_case_normal_common@?$output_processor@_WV?$stream_output_adapter@_W@__crt_stdio_output@@V?$standard_base@_WV?$stream_output_adapter@_W@__crt_stdio_output@@@2@@__crt_stdio_output@@AEAA_NXZ 000000018004f894 f i libucrt:output.obj
 0001:0004e904       ?state_case_normal_common@?$output_processor@_WV?$string_output_adapter@_W@__crt_stdio_output@@V?$format_validation_base@_WV?$string_output_adapter@_W@__crt_stdio_output@@@2@@__crt_stdio_output@@AEAA_NXZ 000000018004f904 f i libucrt:output.obj
 0001:0004e970       ?state_case_normal_common@?$output_processor@_WV?$string_output_adapter@_W@__crt_stdio_output@@V?$positional_parameter_base@_WV?$string_output_adapter@_W@__crt_stdio_output@@@2@@__crt_stdio_output@@AEAA_NXZ 000000018004f970 f i libucrt:output.obj
 0001:0004e9dc       ?state_case_normal_common@?$output_processor@_WV?$string_output_adapter@_W@__crt_stdio_output@@V?$standard_base@_WV?$string_output_adapter@_W@__crt_stdio_output@@@2@@__crt_stdio_output@@AEAA_NXZ 000000018004f9dc f i libucrt:output.obj
 0001:0004ea48       ?state_case_normal_tchar@?$output_processor@DV?$stream_output_adapter@D@__crt_stdio_output@@V?$format_validation_base@DV?$stream_output_adapter@D@__crt_stdio_output@@@2@@__crt_stdio_output@@AEAA_ND@Z 000000018004fa48 f i libucrt:output.obj
 0001:0004eb00       ?state_case_normal_tchar@?$output_processor@DV?$stream_output_adapter@D@__crt_stdio_output@@V?$positional_parameter_base@DV?$stream_output_adapter@D@__crt_stdio_output@@@2@@__crt_stdio_output@@AEAA_ND@Z 000000018004fb00 f i libucrt:output.obj
 0001:0004ebb8       ?state_case_normal_tchar@?$output_processor@DV?$stream_output_adapter@D@__crt_stdio_output@@V?$standard_base@DV?$stream_output_adapter@D@__crt_stdio_output@@@2@@__crt_stdio_output@@AEAA_ND@Z 000000018004fbb8 f i libucrt:output.obj
 0001:0004ec70       ?state_case_normal_tchar@?$output_processor@DV?$string_output_adapter@D@__crt_stdio_output@@V?$format_validation_base@DV?$string_output_adapter@D@__crt_stdio_output@@@2@@__crt_stdio_output@@AEAA_ND@Z 000000018004fc70 f i libucrt:output.obj
 0001:0004ed2c       ?state_case_normal_tchar@?$output_processor@DV?$string_output_adapter@D@__crt_stdio_output@@V?$positional_parameter_base@DV?$string_output_adapter@D@__crt_stdio_output@@@2@@__crt_stdio_output@@AEAA_ND@Z 000000018004fd2c f i libucrt:output.obj
 0001:0004ede8       ?state_case_normal_tchar@?$output_processor@DV?$string_output_adapter@D@__crt_stdio_output@@V?$standard_base@DV?$string_output_adapter@D@__crt_stdio_output@@@2@@__crt_stdio_output@@AEAA_ND@Z 000000018004fde8 f i libucrt:output.obj
 0001:0004eea4       ?state_case_normal_tchar@?$output_processor@_WV?$stream_output_adapter@_W@__crt_stdio_output@@V?$format_validation_base@_WV?$stream_output_adapter@_W@__crt_stdio_output@@@2@@__crt_stdio_output@@AEAA_N_W@Z 000000018004fea4 f i libucrt:output.obj
 0001:0004eeac       ?state_case_normal_tchar@?$output_processor@_WV?$stream_output_adapter@_W@__crt_stdio_output@@V?$positional_parameter_base@_WV?$stream_output_adapter@_W@__crt_stdio_output@@@2@@__crt_stdio_output@@AEAA_N_W@Z 000000018004feac f i libucrt:output.obj
 0001:0004eeb4       ?state_case_normal_tchar@?$output_processor@_WV?$stream_output_adapter@_W@__crt_stdio_output@@V?$standard_base@_WV?$stream_output_adapter@_W@__crt_stdio_output@@@2@@__crt_stdio_output@@AEAA_N_W@Z 000000018004feb4 f i libucrt:output.obj
 0001:0004eebc       ?state_case_normal_tchar@?$output_processor@_WV?$string_output_adapter@_W@__crt_stdio_output@@V?$format_validation_base@_WV?$string_output_adapter@_W@__crt_stdio_output@@@2@@__crt_stdio_output@@AEAA_N_W@Z 000000018004febc f i libucrt:output.obj
 0001:0004eec4       ?state_case_normal_tchar@?$output_processor@_WV?$string_output_adapter@_W@__crt_stdio_output@@V?$positional_parameter_base@_WV?$string_output_adapter@_W@__crt_stdio_output@@@2@@__crt_stdio_output@@AEAA_N_W@Z 000000018004fec4 f i libucrt:output.obj
 0001:0004eecc       ?state_case_normal_tchar@?$output_processor@_WV?$string_output_adapter@_W@__crt_stdio_output@@V?$standard_base@_WV?$string_output_adapter@_W@__crt_stdio_output@@@2@@__crt_stdio_output@@AEAA_N_W@Z 000000018004fecc f i libucrt:output.obj
 0001:0004eed4       ?state_case_percent@?$output_processor@DV?$stream_output_adapter@D@__crt_stdio_output@@V?$format_validation_base@DV?$stream_output_adapter@D@__crt_stdio_output@@@2@@__crt_stdio_output@@AEAA_NXZ 000000018004fed4 f i libucrt:output.obj
 0001:0004eef0       ?state_case_percent@?$output_processor@DV?$stream_output_adapter@D@__crt_stdio_output@@V?$positional_parameter_base@DV?$stream_output_adapter@D@__crt_stdio_output@@@2@@__crt_stdio_output@@AEAA_NXZ 000000018004fef0 f i libucrt:output.obj
 0001:0004ef0c       ?state_case_percent@?$output_processor@DV?$stream_output_adapter@D@__crt_stdio_output@@V?$standard_base@DV?$stream_output_adapter@D@__crt_stdio_output@@@2@@__crt_stdio_output@@AEAA_NXZ 000000018004ff0c f i libucrt:output.obj
 0001:0004ef28       ?state_case_percent@?$output_processor@DV?$string_output_adapter@D@__crt_stdio_output@@V?$format_validation_base@DV?$string_output_adapter@D@__crt_stdio_output@@@2@@__crt_stdio_output@@AEAA_NXZ 000000018004ff28 f i libucrt:output.obj
 0001:0004ef44       ?state_case_percent@?$output_processor@DV?$string_output_adapter@D@__crt_stdio_output@@V?$positional_parameter_base@DV?$string_output_adapter@D@__crt_stdio_output@@@2@@__crt_stdio_output@@AEAA_NXZ 000000018004ff44 f i libucrt:output.obj
 0001:0004ef60       ?state_case_percent@?$output_processor@DV?$string_output_adapter@D@__crt_stdio_output@@V?$standard_base@DV?$string_output_adapter@D@__crt_stdio_output@@@2@@__crt_stdio_output@@AEAA_NXZ 000000018004ff60 f i libucrt:output.obj
 0001:0004ef7c       ?state_case_percent@?$output_processor@_WV?$stream_output_adapter@_W@__crt_stdio_output@@V?$format_validation_base@_WV?$stream_output_adapter@_W@__crt_stdio_output@@@2@@__crt_stdio_output@@AEAA_NXZ 000000018004ff7c f i libucrt:output.obj
 0001:0004ef98       ?state_case_percent@?$output_processor@_WV?$stream_output_adapter@_W@__crt_stdio_output@@V?$positional_parameter_base@_WV?$stream_output_adapter@_W@__crt_stdio_output@@@2@@__crt_stdio_output@@AEAA_NXZ 000000018004ff98 f i libucrt:output.obj
 0001:0004efb4       ?state_case_percent@?$output_processor@_WV?$stream_output_adapter@_W@__crt_stdio_output@@V?$standard_base@_WV?$stream_output_adapter@_W@__crt_stdio_output@@@2@@__crt_stdio_output@@AEAA_NXZ 000000018004ffb4 f i libucrt:output.obj
 0001:0004efd0       ?state_case_percent@?$output_processor@_WV?$string_output_adapter@_W@__crt_stdio_output@@V?$format_validation_base@_WV?$string_output_adapter@_W@__crt_stdio_output@@@2@@__crt_stdio_output@@AEAA_NXZ 000000018004ffd0 f i libucrt:output.obj
 0001:0004efec       ?state_case_percent@?$output_processor@_WV?$string_output_adapter@_W@__crt_stdio_output@@V?$positional_parameter_base@_WV?$string_output_adapter@_W@__crt_stdio_output@@@2@@__crt_stdio_output@@AEAA_NXZ 000000018004ffec f i libucrt:output.obj
 0001:0004f008       ?state_case_percent@?$output_processor@_WV?$string_output_adapter@_W@__crt_stdio_output@@V?$standard_base@_WV?$string_output_adapter@_W@__crt_stdio_output@@@2@@__crt_stdio_output@@AEAA_NXZ 0000000180050008 f i libucrt:output.obj
 0001:0004f024       ?state_case_precision@?$output_processor@DV?$stream_output_adapter@D@__crt_stdio_output@@V?$format_validation_base@DV?$stream_output_adapter@D@__crt_stdio_output@@@2@@__crt_stdio_output@@AEAA_NXZ 0000000180050024 f i libucrt:output.obj
 0001:0004f05c       ?state_case_precision@?$output_processor@DV?$stream_output_adapter@D@__crt_stdio_output@@V?$positional_parameter_base@DV?$stream_output_adapter@D@__crt_stdio_output@@@2@@__crt_stdio_output@@AEAA_NXZ 000000018005005c f i libucrt:output.obj
 0001:0004f0b8       ?state_case_precision@?$output_processor@DV?$stream_output_adapter@D@__crt_stdio_output@@V?$standard_base@DV?$stream_output_adapter@D@__crt_stdio_output@@@2@@__crt_stdio_output@@AEAA_NXZ 00000001800500b8 f i libucrt:output.obj
 0001:0004f0f0       ?state_case_precision@?$output_processor@DV?$string_output_adapter@D@__crt_stdio_output@@V?$format_validation_base@DV?$string_output_adapter@D@__crt_stdio_output@@@2@@__crt_stdio_output@@AEAA_NXZ 00000001800500f0 f i libucrt:output.obj
 0001:0004f128       ?state_case_precision@?$output_processor@DV?$string_output_adapter@D@__crt_stdio_output@@V?$positional_parameter_base@DV?$string_output_adapter@D@__crt_stdio_output@@@2@@__crt_stdio_output@@AEAA_NXZ 0000000180050128 f i libucrt:output.obj
 0001:0004f184       ?state_case_precision@?$output_processor@DV?$string_output_adapter@D@__crt_stdio_output@@V?$standard_base@DV?$string_output_adapter@D@__crt_stdio_output@@@2@@__crt_stdio_output@@AEAA_NXZ 0000000180050184 f i libucrt:output.obj
 0001:0004f1bc       ?state_case_precision@?$output_processor@_WV?$stream_output_adapter@_W@__crt_stdio_output@@V?$format_validation_base@_WV?$stream_output_adapter@_W@__crt_stdio_output@@@2@@__crt_stdio_output@@AEAA_NXZ 00000001800501bc f i libucrt:output.obj
 0001:0004f1f8       ?state_case_precision@?$output_processor@_WV?$stream_output_adapter@_W@__crt_stdio_output@@V?$positional_parameter_base@_WV?$stream_output_adapter@_W@__crt_stdio_output@@@2@@__crt_stdio_output@@AEAA_NXZ 00000001800501f8 f i libucrt:output.obj
 0001:0004f258       ?state_case_precision@?$output_processor@_WV?$stream_output_adapter@_W@__crt_stdio_output@@V?$standard_base@_WV?$stream_output_adapter@_W@__crt_stdio_output@@@2@@__crt_stdio_output@@AEAA_NXZ 0000000180050258 f i libucrt:output.obj
 0001:0004f294       ?state_case_precision@?$output_processor@_WV?$string_output_adapter@_W@__crt_stdio_output@@V?$format_validation_base@_WV?$string_output_adapter@_W@__crt_stdio_output@@@2@@__crt_stdio_output@@AEAA_NXZ 0000000180050294 f i libucrt:output.obj
 0001:0004f2d0       ?state_case_precision@?$output_processor@_WV?$string_output_adapter@_W@__crt_stdio_output@@V?$positional_parameter_base@_WV?$string_output_adapter@_W@__crt_stdio_output@@@2@@__crt_stdio_output@@AEAA_NXZ 00000001800502d0 f i libucrt:output.obj
 0001:0004f330       ?state_case_precision@?$output_processor@_WV?$string_output_adapter@_W@__crt_stdio_output@@V?$standard_base@_WV?$string_output_adapter@_W@__crt_stdio_output@@@2@@__crt_stdio_output@@AEAA_NXZ 0000000180050330 f i libucrt:output.obj
 0001:0004f36c       ?state_case_size@?$output_processor@DV?$stream_output_adapter@D@__crt_stdio_output@@V?$format_validation_base@DV?$stream_output_adapter@D@__crt_stdio_output@@@2@@__crt_stdio_output@@AEAA_NXZ 000000018005036c f i libucrt:output.obj
 0001:0004f548       ?state_case_size@?$output_processor@DV?$stream_output_adapter@D@__crt_stdio_output@@V?$positional_parameter_base@DV?$stream_output_adapter@D@__crt_stdio_output@@@2@@__crt_stdio_output@@AEAA_NXZ 0000000180050548 f i libucrt:output.obj
 0001:0004f724       ?state_case_size@?$output_processor@DV?$stream_output_adapter@D@__crt_stdio_output@@V?$standard_base@DV?$stream_output_adapter@D@__crt_stdio_output@@@2@@__crt_stdio_output@@AEAA_NXZ 0000000180050724 f i libucrt:output.obj
 0001:0004f900       ?state_case_size@?$output_processor@DV?$string_output_adapter@D@__crt_stdio_output@@V?$format_validation_base@DV?$string_output_adapter@D@__crt_stdio_output@@@2@@__crt_stdio_output@@AEAA_NXZ 0000000180050900 f i libucrt:output.obj
 0001:0004fadc       ?state_case_size@?$output_processor@DV?$string_output_adapter@D@__crt_stdio_output@@V?$positional_parameter_base@DV?$string_output_adapter@D@__crt_stdio_output@@@2@@__crt_stdio_output@@AEAA_NXZ 0000000180050adc f i libucrt:output.obj
 0001:0004fcb8       ?state_case_size@?$output_processor@DV?$string_output_adapter@D@__crt_stdio_output@@V?$standard_base@DV?$string_output_adapter@D@__crt_stdio_output@@@2@@__crt_stdio_output@@AEAA_NXZ 0000000180050cb8 f i libucrt:output.obj
 0001:0004fe94       ?state_case_size@?$output_processor@_WV?$stream_output_adapter@_W@__crt_stdio_output@@V?$format_validation_base@_WV?$stream_output_adapter@_W@__crt_stdio_output@@@2@@__crt_stdio_output@@AEAA_NXZ 0000000180050e94 f i libucrt:output.obj
 0001:000500a0       ?state_case_size@?$output_processor@_WV?$stream_output_adapter@_W@__crt_stdio_output@@V?$positional_parameter_base@_WV?$stream_output_adapter@_W@__crt_stdio_output@@@2@@__crt_stdio_output@@AEAA_NXZ 00000001800510a0 f i libucrt:output.obj
 0001:000502ac       ?state_case_size@?$output_processor@_WV?$stream_output_adapter@_W@__crt_stdio_output@@V?$standard_base@_WV?$stream_output_adapter@_W@__crt_stdio_output@@@2@@__crt_stdio_output@@AEAA_NXZ 00000001800512ac f i libucrt:output.obj
 0001:000504b8       ?state_case_size@?$output_processor@_WV?$string_output_adapter@_W@__crt_stdio_output@@V?$format_validation_base@_WV?$string_output_adapter@_W@__crt_stdio_output@@@2@@__crt_stdio_output@@AEAA_NXZ 00000001800514b8 f i libucrt:output.obj
 0001:000506c4       ?state_case_size@?$output_processor@_WV?$string_output_adapter@_W@__crt_stdio_output@@V?$positional_parameter_base@_WV?$string_output_adapter@_W@__crt_stdio_output@@@2@@__crt_stdio_output@@AEAA_NXZ 00000001800516c4 f i libucrt:output.obj
 0001:000508d0       ?state_case_size@?$output_processor@_WV?$string_output_adapter@_W@__crt_stdio_output@@V?$standard_base@_WV?$string_output_adapter@_W@__crt_stdio_output@@@2@@__crt_stdio_output@@AEAA_NXZ 00000001800518d0 f i libucrt:output.obj
 0001:00050adc       ?state_case_type@?$output_processor@DV?$stream_output_adapter@D@__crt_stdio_output@@V?$format_validation_base@DV?$stream_output_adapter@D@__crt_stdio_output@@@2@@__crt_stdio_output@@AEAA_NXZ 0000000180051adc f i libucrt:output.obj
 0001:00050df4       ?state_case_type@?$output_processor@DV?$stream_output_adapter@D@__crt_stdio_output@@V?$positional_parameter_base@DV?$stream_output_adapter@D@__crt_stdio_output@@@2@@__crt_stdio_output@@AEAA_NXZ 0000000180051df4 f i libucrt:output.obj
 0001:00051128       ?state_case_type@?$output_processor@DV?$stream_output_adapter@D@__crt_stdio_output@@V?$standard_base@DV?$stream_output_adapter@D@__crt_stdio_output@@@2@@__crt_stdio_output@@AEAA_NXZ 0000000180052128 f i libucrt:output.obj
 0001:00051440       ?state_case_type@?$output_processor@DV?$string_output_adapter@D@__crt_stdio_output@@V?$format_validation_base@DV?$string_output_adapter@D@__crt_stdio_output@@@2@@__crt_stdio_output@@AEAA_NXZ 0000000180052440 f i libucrt:output.obj
 0001:00051758       ?state_case_type@?$output_processor@DV?$string_output_adapter@D@__crt_stdio_output@@V?$positional_parameter_base@DV?$string_output_adapter@D@__crt_stdio_output@@@2@@__crt_stdio_output@@AEAA_NXZ 0000000180052758 f i libucrt:output.obj
 0001:00051a8c       ?state_case_type@?$output_processor@DV?$string_output_adapter@D@__crt_stdio_output@@V?$standard_base@DV?$string_output_adapter@D@__crt_stdio_output@@@2@@__crt_stdio_output@@AEAA_NXZ 0000000180052a8c f i libucrt:output.obj
 0001:00051da4       ?state_case_type@?$output_processor@_WV?$stream_output_adapter@_W@__crt_stdio_output@@V?$format_validation_base@_WV?$stream_output_adapter@_W@__crt_stdio_output@@@2@@__crt_stdio_output@@AEAA_NXZ 0000000180052da4 f i libucrt:output.obj
 0001:00052120       ?state_case_type@?$output_processor@_WV?$stream_output_adapter@_W@__crt_stdio_output@@V?$positional_parameter_base@_WV?$stream_output_adapter@_W@__crt_stdio_output@@@2@@__crt_stdio_output@@AEAA_NXZ 0000000180053120 f i libucrt:output.obj
 0001:000524b8       ?state_case_type@?$output_processor@_WV?$stream_output_adapter@_W@__crt_stdio_output@@V?$standard_base@_WV?$stream_output_adapter@_W@__crt_stdio_output@@@2@@__crt_stdio_output@@AEAA_NXZ 00000001800534b8 f i libucrt:output.obj
 0001:00052834       ?state_case_type@?$output_processor@_WV?$string_output_adapter@_W@__crt_stdio_output@@V?$format_validation_base@_WV?$string_output_adapter@_W@__crt_stdio_output@@@2@@__crt_stdio_output@@AEAA_NXZ 0000000180053834 f i libucrt:output.obj
 0001:00052bb0       ?state_case_type@?$output_processor@_WV?$string_output_adapter@_W@__crt_stdio_output@@V?$positional_parameter_base@_WV?$string_output_adapter@_W@__crt_stdio_output@@@2@@__crt_stdio_output@@AEAA_NXZ 0000000180053bb0 f i libucrt:output.obj
 0001:00052f48       ?state_case_type@?$output_processor@_WV?$string_output_adapter@_W@__crt_stdio_output@@V?$standard_base@_WV?$string_output_adapter@_W@__crt_stdio_output@@@2@@__crt_stdio_output@@AEAA_NXZ 0000000180053f48 f i libucrt:output.obj
 0001:000532c4       ?state_case_width@?$output_processor@DV?$stream_output_adapter@D@__crt_stdio_output@@V?$format_validation_base@DV?$stream_output_adapter@D@__crt_stdio_output@@@2@@__crt_stdio_output@@AEAA_NXZ 00000001800542c4 f i libucrt:output.obj
 0001:00053300       ?state_case_width@?$output_processor@DV?$stream_output_adapter@D@__crt_stdio_output@@V?$positional_parameter_base@DV?$stream_output_adapter@D@__crt_stdio_output@@@2@@__crt_stdio_output@@AEAA_NXZ 0000000180054300 f i libucrt:output.obj
 0001:00053364       ?state_case_width@?$output_processor@DV?$stream_output_adapter@D@__crt_stdio_output@@V?$standard_base@DV?$stream_output_adapter@D@__crt_stdio_output@@@2@@__crt_stdio_output@@AEAA_NXZ 0000000180054364 f i libucrt:output.obj
 0001:000533a0       ?state_case_width@?$output_processor@DV?$string_output_adapter@D@__crt_stdio_output@@V?$format_validation_base@DV?$string_output_adapter@D@__crt_stdio_output@@@2@@__crt_stdio_output@@AEAA_NXZ 00000001800543a0 f i libucrt:output.obj
 0001:000533dc       ?state_case_width@?$output_processor@DV?$string_output_adapter@D@__crt_stdio_output@@V?$positional_parameter_base@DV?$string_output_adapter@D@__crt_stdio_output@@@2@@__crt_stdio_output@@AEAA_NXZ 00000001800543dc f i libucrt:output.obj
 0001:00053440       ?state_case_width@?$output_processor@DV?$string_output_adapter@D@__crt_stdio_output@@V?$standard_base@DV?$string_output_adapter@D@__crt_stdio_output@@@2@@__crt_stdio_output@@AEAA_NXZ 0000000180054440 f i libucrt:output.obj
 0001:0005347c       ?state_case_width@?$output_processor@_WV?$stream_output_adapter@_W@__crt_stdio_output@@V?$format_validation_base@_WV?$stream_output_adapter@_W@__crt_stdio_output@@@2@@__crt_stdio_output@@AEAA_NXZ 000000018005447c f i libucrt:output.obj
 0001:000534b8       ?state_case_width@?$output_processor@_WV?$stream_output_adapter@_W@__crt_stdio_output@@V?$positional_parameter_base@_WV?$stream_output_adapter@_W@__crt_stdio_output@@@2@@__crt_stdio_output@@AEAA_NXZ 00000001800544b8 f i libucrt:output.obj
 0001:00053520       ?state_case_width@?$output_processor@_WV?$stream_output_adapter@_W@__crt_stdio_output@@V?$standard_base@_WV?$stream_output_adapter@_W@__crt_stdio_output@@@2@@__crt_stdio_output@@AEAA_NXZ 0000000180054520 f i libucrt:output.obj
 0001:0005355c       ?state_case_width@?$output_processor@_WV?$string_output_adapter@_W@__crt_stdio_output@@V?$format_validation_base@_WV?$string_output_adapter@_W@__crt_stdio_output@@@2@@__crt_stdio_output@@AEAA_NXZ 000000018005455c f i libucrt:output.obj
 0001:00053598       ?state_case_width@?$output_processor@_WV?$string_output_adapter@_W@__crt_stdio_output@@V?$positional_parameter_base@_WV?$string_output_adapter@_W@__crt_stdio_output@@@2@@__crt_stdio_output@@AEAA_NXZ 0000000180054598 f i libucrt:output.obj
 0001:00053600       ?state_case_width@?$output_processor@_WV?$string_output_adapter@_W@__crt_stdio_output@@V?$standard_base@_WV?$string_output_adapter@_W@__crt_stdio_output@@@2@@__crt_stdio_output@@AEAA_NXZ 0000000180054600 f i libucrt:output.obj
 0001:0005363c       ?state_count@?$format_validation_base@DV?$stream_output_adapter@D@__crt_stdio_output@@@__crt_stdio_output@@KAIXZ 000000018005463c f i libucrt:output.obj
 0001:00053644       ?state_count@?$format_validation_base@DV?$string_output_adapter@D@__crt_stdio_output@@@__crt_stdio_output@@KAIXZ 0000000180054644 f i libucrt:output.obj
 0001:0005364c       ?state_count@?$format_validation_base@_WV?$stream_output_adapter@_W@__crt_stdio_output@@@__crt_stdio_output@@KAIXZ 000000018005464c f i libucrt:output.obj
 0001:00053654       ?state_count@?$format_validation_base@_WV?$string_output_adapter@_W@__crt_stdio_output@@@__crt_stdio_output@@KAIXZ 0000000180054654 f i libucrt:output.obj
 0001:0005365c       ?state_count@?$standard_base@DV?$stream_output_adapter@D@__crt_stdio_output@@@__crt_stdio_output@@KAIXZ 000000018005465c f i libucrt:output.obj
 0001:00053664       ?state_count@?$standard_base@DV?$string_output_adapter@D@__crt_stdio_output@@@__crt_stdio_output@@KAIXZ 0000000180054664 f i libucrt:output.obj
 0001:0005366c       ?state_count@?$standard_base@_WV?$stream_output_adapter@_W@__crt_stdio_output@@@__crt_stdio_output@@KAIXZ 000000018005466c f i libucrt:output.obj
 0001:00053674       ?state_count@?$standard_base@_WV?$string_output_adapter@_W@__crt_stdio_output@@@__crt_stdio_output@@KAIXZ 0000000180054674 f i libucrt:output.obj
 0001:0005367c       ?state_transition_table@?$format_validation_base@DV?$stream_output_adapter@D@__crt_stdio_output@@@__crt_stdio_output@@KAPEBEXZ 000000018005467c f i libucrt:output.obj
 0001:00053688       ?state_transition_table@?$format_validation_base@DV?$string_output_adapter@D@__crt_stdio_output@@@__crt_stdio_output@@KAPEBEXZ 0000000180054688 f i libucrt:output.obj
 0001:00053694       ?state_transition_table@?$format_validation_base@_WV?$stream_output_adapter@_W@__crt_stdio_output@@@__crt_stdio_output@@KAPEBEXZ 0000000180054694 f i libucrt:output.obj
 0001:000536a0       ?state_transition_table@?$format_validation_base@_WV?$string_output_adapter@_W@__crt_stdio_output@@@__crt_stdio_output@@KAPEBEXZ 00000001800546a0 f i libucrt:output.obj
 0001:000536ac       ?state_transition_table@?$standard_base@DV?$stream_output_adapter@D@__crt_stdio_output@@@__crt_stdio_output@@KAPEBEXZ 00000001800546ac f i libucrt:output.obj
 0001:000536b8       ?state_transition_table@?$standard_base@DV?$string_output_adapter@D@__crt_stdio_output@@@__crt_stdio_output@@KAPEBEXZ 00000001800546b8 f i libucrt:output.obj
 0001:000536c4       ?state_transition_table@?$standard_base@_WV?$stream_output_adapter@_W@__crt_stdio_output@@@__crt_stdio_output@@KAPEBEXZ 00000001800546c4 f i libucrt:output.obj
 0001:000536d0       ?state_transition_table@?$standard_base@_WV?$string_output_adapter@_W@__crt_stdio_output@@@__crt_stdio_output@@KAPEBEXZ 00000001800546d0 f i libucrt:output.obj
 0001:000536dc       ?to_integer_size@__crt_stdio_output@@YA_KW4length_modifier@1@@Z 00000001800546dc f i libucrt:output.obj
 0001:0005373c       ?type_case_X@?$output_processor@DV?$stream_output_adapter@D@__crt_stdio_output@@V?$format_validation_base@DV?$stream_output_adapter@D@__crt_stdio_output@@@2@@__crt_stdio_output@@AEAA_NXZ 000000018005473c f i libucrt:output.obj
 0001:0005374c       ?type_case_X@?$output_processor@DV?$stream_output_adapter@D@__crt_stdio_output@@V?$positional_parameter_base@DV?$stream_output_adapter@D@__crt_stdio_output@@@2@@__crt_stdio_output@@AEAA_NXZ 000000018005474c f i libucrt:output.obj
 0001:0005375c       ?type_case_X@?$output_processor@DV?$stream_output_adapter@D@__crt_stdio_output@@V?$standard_base@DV?$stream_output_adapter@D@__crt_stdio_output@@@2@@__crt_stdio_output@@AEAA_NXZ 000000018005475c f i libucrt:output.obj
 0001:0005376c       ?type_case_X@?$output_processor@DV?$string_output_adapter@D@__crt_stdio_output@@V?$format_validation_base@DV?$string_output_adapter@D@__crt_stdio_output@@@2@@__crt_stdio_output@@AEAA_NXZ 000000018005476c f i libucrt:output.obj
 0001:0005377c       ?type_case_X@?$output_processor@DV?$string_output_adapter@D@__crt_stdio_output@@V?$positional_parameter_base@DV?$string_output_adapter@D@__crt_stdio_output@@@2@@__crt_stdio_output@@AEAA_NXZ 000000018005477c f i libucrt:output.obj
 0001:0005378c       ?type_case_X@?$output_processor@DV?$string_output_adapter@D@__crt_stdio_output@@V?$standard_base@DV?$string_output_adapter@D@__crt_stdio_output@@@2@@__crt_stdio_output@@AEAA_NXZ 000000018005478c f i libucrt:output.obj
 0001:0005379c       ?type_case_X@?$output_processor@_WV?$stream_output_adapter@_W@__crt_stdio_output@@V?$format_validation_base@_WV?$stream_output_adapter@_W@__crt_stdio_output@@@2@@__crt_stdio_output@@AEAA_NXZ 000000018005479c f i libucrt:output.obj
 0001:000537ac       ?type_case_X@?$output_processor@_WV?$stream_output_adapter@_W@__crt_stdio_output@@V?$positional_parameter_base@_WV?$stream_output_adapter@_W@__crt_stdio_output@@@2@@__crt_stdio_output@@AEAA_NXZ 00000001800547ac f i libucrt:output.obj
 0001:000537bc       ?type_case_X@?$output_processor@_WV?$stream_output_adapter@_W@__crt_stdio_output@@V?$standard_base@_WV?$stream_output_adapter@_W@__crt_stdio_output@@@2@@__crt_stdio_output@@AEAA_NXZ 00000001800547bc f i libucrt:output.obj
 0001:000537cc       ?type_case_X@?$output_processor@_WV?$string_output_adapter@_W@__crt_stdio_output@@V?$format_validation_base@_WV?$string_output_adapter@_W@__crt_stdio_output@@@2@@__crt_stdio_output@@AEAA_NXZ 00000001800547cc f i libucrt:output.obj
 0001:000537dc       ?type_case_X@?$output_processor@_WV?$string_output_adapter@_W@__crt_stdio_output@@V?$positional_parameter_base@_WV?$string_output_adapter@_W@__crt_stdio_output@@@2@@__crt_stdio_output@@AEAA_NXZ 00000001800547dc f i libucrt:output.obj
 0001:000537ec       ?type_case_X@?$output_processor@_WV?$string_output_adapter@_W@__crt_stdio_output@@V?$standard_base@_WV?$string_output_adapter@_W@__crt_stdio_output@@@2@@__crt_stdio_output@@AEAA_NXZ 00000001800547ec f i libucrt:output.obj
 0001:000537fc       ?type_case_Z@?$output_processor@DV?$stream_output_adapter@D@__crt_stdio_output@@V?$format_validation_base@DV?$stream_output_adapter@D@__crt_stdio_output@@@2@@__crt_stdio_output@@AEAA_NXZ 00000001800547fc f i libucrt:output.obj
 0001:0005389c       ?type_case_Z@?$output_processor@DV?$stream_output_adapter@D@__crt_stdio_output@@V?$positional_parameter_base@DV?$stream_output_adapter@D@__crt_stdio_output@@@2@@__crt_stdio_output@@AEAA_NXZ 000000018005489c f i libucrt:output.obj
 0001:00053960       ?type_case_Z@?$output_processor@DV?$stream_output_adapter@D@__crt_stdio_output@@V?$standard_base@DV?$stream_output_adapter@D@__crt_stdio_output@@@2@@__crt_stdio_output@@AEAA_NXZ 0000000180054960 f i libucrt:output.obj
 0001:00053a00       ?type_case_Z@?$output_processor@DV?$string_output_adapter@D@__crt_stdio_output@@V?$format_validation_base@DV?$string_output_adapter@D@__crt_stdio_output@@@2@@__crt_stdio_output@@AEAA_NXZ 0000000180054a00 f i libucrt:output.obj
 0001:00053aa0       ?type_case_Z@?$output_processor@DV?$string_output_adapter@D@__crt_stdio_output@@V?$positional_parameter_base@DV?$string_output_adapter@D@__crt_stdio_output@@@2@@__crt_stdio_output@@AEAA_NXZ 0000000180054aa0 f i libucrt:output.obj
 0001:00053b64       ?type_case_Z@?$output_processor@DV?$string_output_adapter@D@__crt_stdio_output@@V?$standard_base@DV?$string_output_adapter@D@__crt_stdio_output@@@2@@__crt_stdio_output@@AEAA_NXZ 0000000180054b64 f i libucrt:output.obj
 0001:00053c04       ?type_case_Z@?$output_processor@_WV?$stream_output_adapter@_W@__crt_stdio_output@@V?$format_validation_base@_WV?$stream_output_adapter@_W@__crt_stdio_output@@@2@@__crt_stdio_output@@AEAA_NXZ 0000000180054c04 f i libucrt:output.obj
 0001:00053ca4       ?type_case_Z@?$output_processor@_WV?$stream_output_adapter@_W@__crt_stdio_output@@V?$positional_parameter_base@_WV?$stream_output_adapter@_W@__crt_stdio_output@@@2@@__crt_stdio_output@@AEAA_NXZ 0000000180054ca4 f i libucrt:output.obj
 0001:00053d68       ?type_case_Z@?$output_processor@_WV?$stream_output_adapter@_W@__crt_stdio_output@@V?$standard_base@_WV?$stream_output_adapter@_W@__crt_stdio_output@@@2@@__crt_stdio_output@@AEAA_NXZ 0000000180054d68 f i libucrt:output.obj
 0001:00053e08       ?type_case_Z@?$output_processor@_WV?$string_output_adapter@_W@__crt_stdio_output@@V?$format_validation_base@_WV?$string_output_adapter@_W@__crt_stdio_output@@@2@@__crt_stdio_output@@AEAA_NXZ 0000000180054e08 f i libucrt:output.obj
 0001:00053ea8       ?type_case_Z@?$output_processor@_WV?$string_output_adapter@_W@__crt_stdio_output@@V?$positional_parameter_base@_WV?$string_output_adapter@_W@__crt_stdio_output@@@2@@__crt_stdio_output@@AEAA_NXZ 0000000180054ea8 f i libucrt:output.obj
 0001:00053f6c       ?type_case_Z@?$output_processor@_WV?$string_output_adapter@_W@__crt_stdio_output@@V?$standard_base@_WV?$string_output_adapter@_W@__crt_stdio_output@@@2@@__crt_stdio_output@@AEAA_NXZ 0000000180054f6c f i libucrt:output.obj
 0001:0005400c       ?type_case_a@?$output_processor@DV?$stream_output_adapter@D@__crt_stdio_output@@V?$format_validation_base@DV?$stream_output_adapter@D@__crt_stdio_output@@@2@@__crt_stdio_output@@AEAA_NXZ 000000018005500c f i libucrt:output.obj
 0001:000542ac       ?type_case_a@?$output_processor@DV?$stream_output_adapter@D@__crt_stdio_output@@V?$positional_parameter_base@DV?$stream_output_adapter@D@__crt_stdio_output@@@2@@__crt_stdio_output@@AEAA_NXZ 00000001800552ac f i libucrt:output.obj
 0001:00054588       ?type_case_a@?$output_processor@DV?$stream_output_adapter@D@__crt_stdio_output@@V?$standard_base@DV?$stream_output_adapter@D@__crt_stdio_output@@@2@@__crt_stdio_output@@AEAA_NXZ 0000000180055588 f i libucrt:output.obj
 0001:00054828       ?type_case_a@?$output_processor@DV?$string_output_adapter@D@__crt_stdio_output@@V?$format_validation_base@DV?$string_output_adapter@D@__crt_stdio_output@@@2@@__crt_stdio_output@@AEAA_NXZ 0000000180055828 f i libucrt:output.obj
 0001:00054ac8       ?type_case_a@?$output_processor@DV?$string_output_adapter@D@__crt_stdio_output@@V?$positional_parameter_base@DV?$string_output_adapter@D@__crt_stdio_output@@@2@@__crt_stdio_output@@AEAA_NXZ 0000000180055ac8 f i libucrt:output.obj
 0001:00054da4       ?type_case_a@?$output_processor@DV?$string_output_adapter@D@__crt_stdio_output@@V?$standard_base@DV?$string_output_adapter@D@__crt_stdio_output@@@2@@__crt_stdio_output@@AEAA_NXZ 0000000180055da4 f i libucrt:output.obj
 0001:00055044       ?type_case_a@?$output_processor@_WV?$stream_output_adapter@_W@__crt_stdio_output@@V?$format_validation_base@_WV?$stream_output_adapter@_W@__crt_stdio_output@@@2@@__crt_stdio_output@@AEAA_NXZ 0000000180056044 f i libucrt:output.obj
 0001:00055318       ?type_case_a@?$output_processor@_WV?$stream_output_adapter@_W@__crt_stdio_output@@V?$positional_parameter_base@_WV?$stream_output_adapter@_W@__crt_stdio_output@@@2@@__crt_stdio_output@@AEAA_NXZ 0000000180056318 f i libucrt:output.obj
 0001:00055624       ?type_case_a@?$output_processor@_WV?$stream_output_adapter@_W@__crt_stdio_output@@V?$standard_base@_WV?$stream_output_adapter@_W@__crt_stdio_output@@@2@@__crt_stdio_output@@AEAA_NXZ 0000000180056624 f i libucrt:output.obj
 0001:000558f8       ?type_case_a@?$output_processor@_WV?$string_output_adapter@_W@__crt_stdio_output@@V?$format_validation_base@_WV?$string_output_adapter@_W@__crt_stdio_output@@@2@@__crt_stdio_output@@AEAA_NXZ 00000001800568f8 f i libucrt:output.obj
 0001:00055bcc       ?type_case_a@?$output_processor@_WV?$string_output_adapter@_W@__crt_stdio_output@@V?$positional_parameter_base@_WV?$string_output_adapter@_W@__crt_stdio_output@@@2@@__crt_stdio_output@@AEAA_NXZ 0000000180056bcc f i libucrt:output.obj
 0001:00055ed8       ?type_case_a@?$output_processor@_WV?$string_output_adapter@_W@__crt_stdio_output@@V?$standard_base@_WV?$string_output_adapter@_W@__crt_stdio_output@@@2@@__crt_stdio_output@@AEAA_NXZ 0000000180056ed8 f i libucrt:output.obj
 0001:000561ac       ?type_case_c@?$output_processor@DV?$stream_output_adapter@D@__crt_stdio_output@@V?$format_validation_base@DV?$stream_output_adapter@D@__crt_stdio_output@@@2@@__crt_stdio_output@@AEAA_NXZ 00000001800571ac f i libucrt:output.obj
 0001:000561b4       ?type_case_c@?$output_processor@DV?$stream_output_adapter@D@__crt_stdio_output@@V?$positional_parameter_base@DV?$stream_output_adapter@D@__crt_stdio_output@@@2@@__crt_stdio_output@@AEAA_NXZ 00000001800571b4 f i libucrt:output.obj
 0001:000561bc       ?type_case_c@?$output_processor@DV?$stream_output_adapter@D@__crt_stdio_output@@V?$standard_base@DV?$stream_output_adapter@D@__crt_stdio_output@@@2@@__crt_stdio_output@@AEAA_NXZ 00000001800571bc f i libucrt:output.obj
 0001:000561c4       ?type_case_c@?$output_processor@DV?$string_output_adapter@D@__crt_stdio_output@@V?$format_validation_base@DV?$string_output_adapter@D@__crt_stdio_output@@@2@@__crt_stdio_output@@AEAA_NXZ 00000001800571c4 f i libucrt:output.obj
 0001:000561cc       ?type_case_c@?$output_processor@DV?$string_output_adapter@D@__crt_stdio_output@@V?$positional_parameter_base@DV?$string_output_adapter@D@__crt_stdio_output@@@2@@__crt_stdio_output@@AEAA_NXZ 00000001800571cc f i libucrt:output.obj
 0001:000561d4       ?type_case_c@?$output_processor@DV?$string_output_adapter@D@__crt_stdio_output@@V?$standard_base@DV?$string_output_adapter@D@__crt_stdio_output@@@2@@__crt_stdio_output@@AEAA_NXZ 00000001800571d4 f i libucrt:output.obj
 0001:000561dc       ?type_case_c@?$output_processor@_WV?$stream_output_adapter@_W@__crt_stdio_output@@V?$format_validation_base@_WV?$stream_output_adapter@_W@__crt_stdio_output@@@2@@__crt_stdio_output@@AEAA_NXZ 00000001800571dc f i libucrt:output.obj
 0001:000561e4       ?type_case_c@?$output_processor@_WV?$stream_output_adapter@_W@__crt_stdio_output@@V?$positional_parameter_base@_WV?$stream_output_adapter@_W@__crt_stdio_output@@@2@@__crt_stdio_output@@AEAA_NXZ 00000001800571e4 f i libucrt:output.obj
 0001:000561ec       ?type_case_c@?$output_processor@_WV?$stream_output_adapter@_W@__crt_stdio_output@@V?$standard_base@_WV?$stream_output_adapter@_W@__crt_stdio_output@@@2@@__crt_stdio_output@@AEAA_NXZ 00000001800571ec f i libucrt:output.obj
 0001:000561f4       ?type_case_c@?$output_processor@_WV?$string_output_adapter@_W@__crt_stdio_output@@V?$format_validation_base@_WV?$string_output_adapter@_W@__crt_stdio_output@@@2@@__crt_stdio_output@@AEAA_NXZ 00000001800571f4 f i libucrt:output.obj
 0001:000561fc       ?type_case_c@?$output_processor@_WV?$string_output_adapter@_W@__crt_stdio_output@@V?$positional_parameter_base@_WV?$string_output_adapter@_W@__crt_stdio_output@@@2@@__crt_stdio_output@@AEAA_NXZ 00000001800571fc f i libucrt:output.obj
 0001:00056204       ?type_case_c@?$output_processor@_WV?$string_output_adapter@_W@__crt_stdio_output@@V?$standard_base@_WV?$string_output_adapter@_W@__crt_stdio_output@@@2@@__crt_stdio_output@@AEAA_NXZ 0000000180057204 f i libucrt:output.obj
 0001:0005620c       ?type_case_c_tchar@?$output_processor@DV?$stream_output_adapter@D@__crt_stdio_output@@V?$format_validation_base@DV?$stream_output_adapter@D@__crt_stdio_output@@@2@@__crt_stdio_output@@AEAA_ND@Z 000000018005720c f i libucrt:output.obj
 0001:000562ec       ?type_case_c_tchar@?$output_processor@DV?$stream_output_adapter@D@__crt_stdio_output@@V?$positional_parameter_base@DV?$stream_output_adapter@D@__crt_stdio_output@@@2@@__crt_stdio_output@@AEAA_ND@Z 00000001800572ec f i libucrt:output.obj
 0001:00056424       ?type_case_c_tchar@?$output_processor@DV?$stream_output_adapter@D@__crt_stdio_output@@V?$standard_base@DV?$stream_output_adapter@D@__crt_stdio_output@@@2@@__crt_stdio_output@@AEAA_ND@Z 0000000180057424 f i libucrt:output.obj
 0001:00056504       ?type_case_c_tchar@?$output_processor@DV?$string_output_adapter@D@__crt_stdio_output@@V?$format_validation_base@DV?$string_output_adapter@D@__crt_stdio_output@@@2@@__crt_stdio_output@@AEAA_ND@Z 0000000180057504 f i libucrt:output.obj
 0001:000565e4       ?type_case_c_tchar@?$output_processor@DV?$string_output_adapter@D@__crt_stdio_output@@V?$positional_parameter_base@DV?$string_output_adapter@D@__crt_stdio_output@@@2@@__crt_stdio_output@@AEAA_ND@Z 00000001800575e4 f i libucrt:output.obj
 0001:0005671c       ?type_case_c_tchar@?$output_processor@DV?$string_output_adapter@D@__crt_stdio_output@@V?$standard_base@DV?$string_output_adapter@D@__crt_stdio_output@@@2@@__crt_stdio_output@@AEAA_ND@Z 000000018005771c f i libucrt:output.obj
 0001:000567fc       ?type_case_c_tchar@?$output_processor@_WV?$stream_output_adapter@_W@__crt_stdio_output@@V?$format_validation_base@_WV?$stream_output_adapter@_W@__crt_stdio_output@@@2@@__crt_stdio_output@@AEAA_N_W@Z 00000001800577fc f i libucrt:output.obj
 0001:000568cc       ?type_case_c_tchar@?$output_processor@_WV?$stream_output_adapter@_W@__crt_stdio_output@@V?$positional_parameter_base@_WV?$stream_output_adapter@_W@__crt_stdio_output@@@2@@__crt_stdio_output@@AEAA_N_W@Z 00000001800578cc f i libucrt:output.obj
 0001:000569cc       ?type_case_c_tchar@?$output_processor@_WV?$stream_output_adapter@_W@__crt_stdio_output@@V?$standard_base@_WV?$stream_output_adapter@_W@__crt_stdio_output@@@2@@__crt_stdio_output@@AEAA_N_W@Z 00000001800579cc f i libucrt:output.obj
 0001:00056a9c       ?type_case_c_tchar@?$output_processor@_WV?$string_output_adapter@_W@__crt_stdio_output@@V?$format_validation_base@_WV?$string_output_adapter@_W@__crt_stdio_output@@@2@@__crt_stdio_output@@AEAA_N_W@Z 0000000180057a9c f i libucrt:output.obj
 0001:00056b6c       ?type_case_c_tchar@?$output_processor@_WV?$string_output_adapter@_W@__crt_stdio_output@@V?$positional_parameter_base@_WV?$string_output_adapter@_W@__crt_stdio_output@@@2@@__crt_stdio_output@@AEAA_N_W@Z 0000000180057b6c f i libucrt:output.obj
 0001:00056c6c       ?type_case_c_tchar@?$output_processor@_WV?$string_output_adapter@_W@__crt_stdio_output@@V?$standard_base@_WV?$string_output_adapter@_W@__crt_stdio_output@@@2@@__crt_stdio_output@@AEAA_N_W@Z 0000000180057c6c f i libucrt:output.obj
 0001:00056d3c       ?type_case_d@?$output_processor@DV?$stream_output_adapter@D@__crt_stdio_output@@V?$format_validation_base@DV?$stream_output_adapter@D@__crt_stdio_output@@@2@@__crt_stdio_output@@AEAA_NXZ 0000000180057d3c f i libucrt:output.obj
 0001:00056d50       ?type_case_d@?$output_processor@DV?$stream_output_adapter@D@__crt_stdio_output@@V?$positional_parameter_base@DV?$stream_output_adapter@D@__crt_stdio_output@@@2@@__crt_stdio_output@@AEAA_NXZ 0000000180057d50 f i libucrt:output.obj
 0001:00056d64       ?type_case_d@?$output_processor@DV?$stream_output_adapter@D@__crt_stdio_output@@V?$standard_base@DV?$stream_output_adapter@D@__crt_stdio_output@@@2@@__crt_stdio_output@@AEAA_NXZ 0000000180057d64 f i libucrt:output.obj
 0001:00056d78       ?type_case_d@?$output_processor@DV?$string_output_adapter@D@__crt_stdio_output@@V?$format_validation_base@DV?$string_output_adapter@D@__crt_stdio_output@@@2@@__crt_stdio_output@@AEAA_NXZ 0000000180057d78 f i libucrt:output.obj
 0001:00056d8c       ?type_case_d@?$output_processor@DV?$string_output_adapter@D@__crt_stdio_output@@V?$positional_parameter_base@DV?$string_output_adapter@D@__crt_stdio_output@@@2@@__crt_stdio_output@@AEAA_NXZ 0000000180057d8c f i libucrt:output.obj
 0001:00056da0       ?type_case_d@?$output_processor@DV?$string_output_adapter@D@__crt_stdio_output@@V?$standard_base@DV?$string_output_adapter@D@__crt_stdio_output@@@2@@__crt_stdio_output@@AEAA_NXZ 0000000180057da0 f i libucrt:output.obj
 0001:00056db4       ?type_case_d@?$output_processor@_WV?$stream_output_adapter@_W@__crt_stdio_output@@V?$format_validation_base@_WV?$stream_output_adapter@_W@__crt_stdio_output@@@2@@__crt_stdio_output@@AEAA_NXZ 0000000180057db4 f i libucrt:output.obj
 0001:00056dc8       ?type_case_d@?$output_processor@_WV?$stream_output_adapter@_W@__crt_stdio_output@@V?$positional_parameter_base@_WV?$stream_output_adapter@_W@__crt_stdio_output@@@2@@__crt_stdio_output@@AEAA_NXZ 0000000180057dc8 f i libucrt:output.obj
 0001:00056ddc       ?type_case_d@?$output_processor@_WV?$stream_output_adapter@_W@__crt_stdio_output@@V?$standard_base@_WV?$stream_output_adapter@_W@__crt_stdio_output@@@2@@__crt_stdio_output@@AEAA_NXZ 0000000180057ddc f i libucrt:output.obj
 0001:00056df0       ?type_case_d@?$output_processor@_WV?$string_output_adapter@_W@__crt_stdio_output@@V?$format_validation_base@_WV?$string_output_adapter@_W@__crt_stdio_output@@@2@@__crt_stdio_output@@AEAA_NXZ 0000000180057df0 f i libucrt:output.obj
 0001:00056e04       ?type_case_d@?$output_processor@_WV?$string_output_adapter@_W@__crt_stdio_output@@V?$positional_parameter_base@_WV?$string_output_adapter@_W@__crt_stdio_output@@@2@@__crt_stdio_output@@AEAA_NXZ 0000000180057e04 f i libucrt:output.obj
 0001:00056e18       ?type_case_d@?$output_processor@_WV?$string_output_adapter@_W@__crt_stdio_output@@V?$standard_base@_WV?$string_output_adapter@_W@__crt_stdio_output@@@2@@__crt_stdio_output@@AEAA_NXZ 0000000180057e18 f i libucrt:output.obj
 0001:00056e2c       ?type_case_integer@?$output_processor@DV?$stream_output_adapter@D@__crt_stdio_output@@V?$format_validation_base@DV?$stream_output_adapter@D@__crt_stdio_output@@@2@@__crt_stdio_output@@AEAA_NI_N@Z 0000000180057e2c f i libucrt:output.obj
 0001:00057034       ?type_case_integer@?$output_processor@DV?$stream_output_adapter@D@__crt_stdio_output@@V?$positional_parameter_base@DV?$stream_output_adapter@D@__crt_stdio_output@@@2@@__crt_stdio_output@@AEAA_NI_N@Z 0000000180058034 f i libucrt:output.obj
 0001:000572b8       ?type_case_integer@?$output_processor@DV?$stream_output_adapter@D@__crt_stdio_output@@V?$standard_base@DV?$stream_output_adapter@D@__crt_stdio_output@@@2@@__crt_stdio_output@@AEAA_NI_N@Z 00000001800582b8 f i libucrt:output.obj
 0001:000574c0       ?type_case_integer@?$output_processor@DV?$string_output_adapter@D@__crt_stdio_output@@V?$format_validation_base@DV?$string_output_adapter@D@__crt_stdio_output@@@2@@__crt_stdio_output@@AEAA_NI_N@Z 00000001800584c0 f i libucrt:output.obj
 0001:000576c8       ?type_case_integer@?$output_processor@DV?$string_output_adapter@D@__crt_stdio_output@@V?$positional_parameter_base@DV?$string_output_adapter@D@__crt_stdio_output@@@2@@__crt_stdio_output@@AEAA_NI_N@Z 00000001800586c8 f i libucrt:output.obj
 0001:0005794c       ?type_case_integer@?$output_processor@DV?$string_output_adapter@D@__crt_stdio_output@@V?$standard_base@DV?$string_output_adapter@D@__crt_stdio_output@@@2@@__crt_stdio_output@@AEAA_NI_N@Z 000000018005894c f i libucrt:output.obj
 0001:00057b54       ?type_case_integer@?$output_processor@_WV?$stream_output_adapter@_W@__crt_stdio_output@@V?$format_validation_base@_WV?$stream_output_adapter@_W@__crt_stdio_output@@@2@@__crt_stdio_output@@AEAA_NI_N@Z 0000000180058b54 f i libucrt:output.obj
 0001:00057d5c       ?type_case_integer@?$output_processor@_WV?$stream_output_adapter@_W@__crt_stdio_output@@V?$positional_parameter_base@_WV?$stream_output_adapter@_W@__crt_stdio_output@@@2@@__crt_stdio_output@@AEAA_NI_N@Z 0000000180058d5c f i libucrt:output.obj
 0001:00057fe0       ?type_case_integer@?$output_processor@_WV?$stream_output_adapter@_W@__crt_stdio_output@@V?$standard_base@_WV?$stream_output_adapter@_W@__crt_stdio_output@@@2@@__crt_stdio_output@@AEAA_NI_N@Z 0000000180058fe0 f i libucrt:output.obj
 0001:000581e8       ?type_case_integer@?$output_processor@_WV?$string_output_adapter@_W@__crt_stdio_output@@V?$format_validation_base@_WV?$string_output_adapter@_W@__crt_stdio_output@@@2@@__crt_stdio_output@@AEAA_NI_N@Z 00000001800591e8 f i libucrt:output.obj
 0001:000583f0       ?type_case_integer@?$output_processor@_WV?$string_output_adapter@_W@__crt_stdio_output@@V?$positional_parameter_base@_WV?$string_output_adapter@_W@__crt_stdio_output@@@2@@__crt_stdio_output@@AEAA_NI_N@Z 00000001800593f0 f i libucrt:output.obj
 0001:00058674       ?type_case_integer@?$output_processor@_WV?$string_output_adapter@_W@__crt_stdio_output@@V?$standard_base@_WV?$string_output_adapter@_W@__crt_stdio_output@@@2@@__crt_stdio_output@@AEAA_NI_N@Z 0000000180059674 f i libucrt:output.obj
 0001:0005887c       ?type_case_n@?$output_processor@DV?$stream_output_adapter@D@__crt_stdio_output@@V?$format_validation_base@DV?$stream_output_adapter@D@__crt_stdio_output@@@2@@__crt_stdio_output@@AEAA_NXZ 000000018005987c f i libucrt:output.obj
 0001:00058990       ?type_case_n@?$output_processor@DV?$stream_output_adapter@D@__crt_stdio_output@@V?$positional_parameter_base@DV?$stream_output_adapter@D@__crt_stdio_output@@@2@@__crt_stdio_output@@AEAA_NXZ 0000000180059990 f i libucrt:output.obj
 0001:00058ad8       ?type_case_n@?$output_processor@DV?$stream_output_adapter@D@__crt_stdio_output@@V?$standard_base@DV?$stream_output_adapter@D@__crt_stdio_output@@@2@@__crt_stdio_output@@AEAA_NXZ 0000000180059ad8 f i libucrt:output.obj
 0001:00058bec       ?type_case_n@?$output_processor@DV?$string_output_adapter@D@__crt_stdio_output@@V?$format_validation_base@DV?$string_output_adapter@D@__crt_stdio_output@@@2@@__crt_stdio_output@@AEAA_NXZ 0000000180059bec f i libucrt:output.obj
 0001:00058d00       ?type_case_n@?$output_processor@DV?$string_output_adapter@D@__crt_stdio_output@@V?$positional_parameter_base@DV?$string_output_adapter@D@__crt_stdio_output@@@2@@__crt_stdio_output@@AEAA_NXZ 0000000180059d00 f i libucrt:output.obj
 0001:00058e48       ?type_case_n@?$output_processor@DV?$string_output_adapter@D@__crt_stdio_output@@V?$standard_base@DV?$string_output_adapter@D@__crt_stdio_output@@@2@@__crt_stdio_output@@AEAA_NXZ 0000000180059e48 f i libucrt:output.obj
 0001:00058f5c       ?type_case_n@?$output_processor@_WV?$stream_output_adapter@_W@__crt_stdio_output@@V?$format_validation_base@_WV?$stream_output_adapter@_W@__crt_stdio_output@@@2@@__crt_stdio_output@@AEAA_NXZ 0000000180059f5c f i libucrt:output.obj
 0001:00059070       ?type_case_n@?$output_processor@_WV?$stream_output_adapter@_W@__crt_stdio_output@@V?$positional_parameter_base@_WV?$stream_output_adapter@_W@__crt_stdio_output@@@2@@__crt_stdio_output@@AEAA_NXZ 000000018005a070 f i libucrt:output.obj
 0001:000591b8       ?type_case_n@?$output_processor@_WV?$stream_output_adapter@_W@__crt_stdio_output@@V?$standard_base@_WV?$stream_output_adapter@_W@__crt_stdio_output@@@2@@__crt_stdio_output@@AEAA_NXZ 000000018005a1b8 f i libucrt:output.obj
 0001:000592cc       ?type_case_n@?$output_processor@_WV?$string_output_adapter@_W@__crt_stdio_output@@V?$format_validation_base@_WV?$string_output_adapter@_W@__crt_stdio_output@@@2@@__crt_stdio_output@@AEAA_NXZ 000000018005a2cc f i libucrt:output.obj
 0001:000593e0       ?type_case_n@?$output_processor@_WV?$string_output_adapter@_W@__crt_stdio_output@@V?$positional_parameter_base@_WV?$string_output_adapter@_W@__crt_stdio_output@@@2@@__crt_stdio_output@@AEAA_NXZ 000000018005a3e0 f i libucrt:output.obj
 0001:00059528       ?type_case_n@?$output_processor@_WV?$string_output_adapter@_W@__crt_stdio_output@@V?$standard_base@_WV?$string_output_adapter@_W@__crt_stdio_output@@@2@@__crt_stdio_output@@AEAA_NXZ 000000018005a528 f i libucrt:output.obj
 0001:0005963c       ?type_case_o@?$output_processor@DV?$stream_output_adapter@D@__crt_stdio_output@@V?$format_validation_base@DV?$stream_output_adapter@D@__crt_stdio_output@@@2@@__crt_stdio_output@@AEAA_NXZ 000000018005a63c f i libucrt:output.obj
 0001:00059664       ?type_case_o@?$output_processor@DV?$stream_output_adapter@D@__crt_stdio_output@@V?$positional_parameter_base@DV?$stream_output_adapter@D@__crt_stdio_output@@@2@@__crt_stdio_output@@AEAA_NXZ 000000018005a664 f i libucrt:output.obj
 0001:0005968c       ?type_case_o@?$output_processor@DV?$stream_output_adapter@D@__crt_stdio_output@@V?$standard_base@DV?$stream_output_adapter@D@__crt_stdio_output@@@2@@__crt_stdio_output@@AEAA_NXZ 000000018005a68c f i libucrt:output.obj
 0001:000596b4       ?type_case_o@?$output_processor@DV?$string_output_adapter@D@__crt_stdio_output@@V?$format_validation_base@DV?$string_output_adapter@D@__crt_stdio_output@@@2@@__crt_stdio_output@@AEAA_NXZ 000000018005a6b4 f i libucrt:output.obj
 0001:000596dc       ?type_case_o@?$output_processor@DV?$string_output_adapter@D@__crt_stdio_output@@V?$positional_parameter_base@DV?$string_output_adapter@D@__crt_stdio_output@@@2@@__crt_stdio_output@@AEAA_NXZ 000000018005a6dc f i libucrt:output.obj
 0001:00059704       ?type_case_o@?$output_processor@DV?$string_output_adapter@D@__crt_stdio_output@@V?$standard_base@DV?$string_output_adapter@D@__crt_stdio_output@@@2@@__crt_stdio_output@@AEAA_NXZ 000000018005a704 f i libucrt:output.obj
 0001:0005972c       ?type_case_o@?$output_processor@_WV?$stream_output_adapter@_W@__crt_stdio_output@@V?$format_validation_base@_WV?$stream_output_adapter@_W@__crt_stdio_output@@@2@@__crt_stdio_output@@AEAA_NXZ 000000018005a72c f i libucrt:output.obj
 0001:00059754       ?type_case_o@?$output_processor@_WV?$stream_output_adapter@_W@__crt_stdio_output@@V?$positional_parameter_base@_WV?$stream_output_adapter@_W@__crt_stdio_output@@@2@@__crt_stdio_output@@AEAA_NXZ 000000018005a754 f i libucrt:output.obj
 0001:0005977c       ?type_case_o@?$output_processor@_WV?$stream_output_adapter@_W@__crt_stdio_output@@V?$standard_base@_WV?$stream_output_adapter@_W@__crt_stdio_output@@@2@@__crt_stdio_output@@AEAA_NXZ 000000018005a77c f i libucrt:output.obj
 0001:000597a4       ?type_case_o@?$output_processor@_WV?$string_output_adapter@_W@__crt_stdio_output@@V?$format_validation_base@_WV?$string_output_adapter@_W@__crt_stdio_output@@@2@@__crt_stdio_output@@AEAA_NXZ 000000018005a7a4 f i libucrt:output.obj
 0001:000597cc       ?type_case_o@?$output_processor@_WV?$string_output_adapter@_W@__crt_stdio_output@@V?$positional_parameter_base@_WV?$string_output_adapter@_W@__crt_stdio_output@@@2@@__crt_stdio_output@@AEAA_NXZ 000000018005a7cc f i libucrt:output.obj
 0001:000597f4       ?type_case_o@?$output_processor@_WV?$string_output_adapter@_W@__crt_stdio_output@@V?$standard_base@_WV?$string_output_adapter@_W@__crt_stdio_output@@@2@@__crt_stdio_output@@AEAA_NXZ 000000018005a7f4 f i libucrt:output.obj
 0001:0005981c       ?type_case_p@?$output_processor@DV?$stream_output_adapter@D@__crt_stdio_output@@V?$format_validation_base@DV?$stream_output_adapter@D@__crt_stdio_output@@@2@@__crt_stdio_output@@AEAA_NXZ 000000018005a81c f i libucrt:output.obj
 0001:00059838       ?type_case_p@?$output_processor@DV?$stream_output_adapter@D@__crt_stdio_output@@V?$positional_parameter_base@DV?$stream_output_adapter@D@__crt_stdio_output@@@2@@__crt_stdio_output@@AEAA_NXZ 000000018005a838 f i libucrt:output.obj
 0001:00059854       ?type_case_p@?$output_processor@DV?$stream_output_adapter@D@__crt_stdio_output@@V?$standard_base@DV?$stream_output_adapter@D@__crt_stdio_output@@@2@@__crt_stdio_output@@AEAA_NXZ 000000018005a854 f i libucrt:output.obj
 0001:00059870       ?type_case_p@?$output_processor@DV?$string_output_adapter@D@__crt_stdio_output@@V?$format_validation_base@DV?$string_output_adapter@D@__crt_stdio_output@@@2@@__crt_stdio_output@@AEAA_NXZ 000000018005a870 f i libucrt:output.obj
 0001:0005988c       ?type_case_p@?$output_processor@DV?$string_output_adapter@D@__crt_stdio_output@@V?$positional_parameter_base@DV?$string_output_adapter@D@__crt_stdio_output@@@2@@__crt_stdio_output@@AEAA_NXZ 000000018005a88c f i libucrt:output.obj
 0001:000598a8       ?type_case_p@?$output_processor@DV?$string_output_adapter@D@__crt_stdio_output@@V?$standard_base@DV?$string_output_adapter@D@__crt_stdio_output@@@2@@__crt_stdio_output@@AEAA_NXZ 000000018005a8a8 f i libucrt:output.obj
 0001:000598c4       ?type_case_p@?$output_processor@_WV?$stream_output_adapter@_W@__crt_stdio_output@@V?$format_validation_base@_WV?$stream_output_adapter@_W@__crt_stdio_output@@@2@@__crt_stdio_output@@AEAA_NXZ 000000018005a8c4 f i libucrt:output.obj
 0001:000598e0       ?type_case_p@?$output_processor@_WV?$stream_output_adapter@_W@__crt_stdio_output@@V?$positional_parameter_base@_WV?$stream_output_adapter@_W@__crt_stdio_output@@@2@@__crt_stdio_output@@AEAA_NXZ 000000018005a8e0 f i libucrt:output.obj
 0001:000598fc       ?type_case_p@?$output_processor@_WV?$stream_output_adapter@_W@__crt_stdio_output@@V?$standard_base@_WV?$stream_output_adapter@_W@__crt_stdio_output@@@2@@__crt_stdio_output@@AEAA_NXZ 000000018005a8fc f i libucrt:output.obj
 0001:00059918       ?type_case_p@?$output_processor@_WV?$string_output_adapter@_W@__crt_stdio_output@@V?$format_validation_base@_WV?$string_output_adapter@_W@__crt_stdio_output@@@2@@__crt_stdio_output@@AEAA_NXZ 000000018005a918 f i libucrt:output.obj
 0001:00059934       ?type_case_p@?$output_processor@_WV?$string_output_adapter@_W@__crt_stdio_output@@V?$positional_parameter_base@_WV?$string_output_adapter@_W@__crt_stdio_output@@@2@@__crt_stdio_output@@AEAA_NXZ 000000018005a934 f i libucrt:output.obj
 0001:00059950       ?type_case_p@?$output_processor@_WV?$string_output_adapter@_W@__crt_stdio_output@@V?$standard_base@_WV?$string_output_adapter@_W@__crt_stdio_output@@@2@@__crt_stdio_output@@AEAA_NXZ 000000018005a950 f i libucrt:output.obj
 0001:0005996c       ?type_case_s@?$output_processor@DV?$stream_output_adapter@D@__crt_stdio_output@@V?$format_validation_base@DV?$stream_output_adapter@D@__crt_stdio_output@@@2@@__crt_stdio_output@@AEAA_NXZ 000000018005a96c f i libucrt:output.obj
 0001:00059a20       ?type_case_s@?$output_processor@DV?$stream_output_adapter@D@__crt_stdio_output@@V?$positional_parameter_base@DV?$stream_output_adapter@D@__crt_stdio_output@@@2@@__crt_stdio_output@@AEAA_NXZ 000000018005aa20 f i libucrt:output.obj
 0001:00059af0       ?type_case_s@?$output_processor@DV?$stream_output_adapter@D@__crt_stdio_output@@V?$standard_base@DV?$stream_output_adapter@D@__crt_stdio_output@@@2@@__crt_stdio_output@@AEAA_NXZ 000000018005aaf0 f i libucrt:output.obj
 0001:00059ba4       ?type_case_s@?$output_processor@DV?$string_output_adapter@D@__crt_stdio_output@@V?$format_validation_base@DV?$string_output_adapter@D@__crt_stdio_output@@@2@@__crt_stdio_output@@AEAA_NXZ 000000018005aba4 f i libucrt:output.obj
 0001:00059c58       ?type_case_s@?$output_processor@DV?$string_output_adapter@D@__crt_stdio_output@@V?$positional_parameter_base@DV?$string_output_adapter@D@__crt_stdio_output@@@2@@__crt_stdio_output@@AEAA_NXZ 000000018005ac58 f i libucrt:output.obj
 0001:00059d28       ?type_case_s@?$output_processor@DV?$string_output_adapter@D@__crt_stdio_output@@V?$standard_base@DV?$string_output_adapter@D@__crt_stdio_output@@@2@@__crt_stdio_output@@AEAA_NXZ 000000018005ad28 f i libucrt:output.obj
 0001:00059ddc       ?type_case_s@?$output_processor@_WV?$stream_output_adapter@_W@__crt_stdio_output@@V?$format_validation_base@_WV?$stream_output_adapter@_W@__crt_stdio_output@@@2@@__crt_stdio_output@@AEAA_NXZ 000000018005addc f i libucrt:output.obj
 0001:00059ed4       ?type_case_s@?$output_processor@_WV?$stream_output_adapter@_W@__crt_stdio_output@@V?$positional_parameter_base@_WV?$stream_output_adapter@_W@__crt_stdio_output@@@2@@__crt_stdio_output@@AEAA_NXZ 000000018005aed4 f i libucrt:output.obj
 0001:00059fec       ?type_case_s@?$output_processor@_WV?$stream_output_adapter@_W@__crt_stdio_output@@V?$standard_base@_WV?$stream_output_adapter@_W@__crt_stdio_output@@@2@@__crt_stdio_output@@AEAA_NXZ 000000018005afec f i libucrt:output.obj
 0001:0005a0e4       ?type_case_s@?$output_processor@_WV?$string_output_adapter@_W@__crt_stdio_output@@V?$format_validation_base@_WV?$string_output_adapter@_W@__crt_stdio_output@@@2@@__crt_stdio_output@@AEAA_NXZ 000000018005b0e4 f i libucrt:output.obj
 0001:0005a1dc       ?type_case_s@?$output_processor@_WV?$string_output_adapter@_W@__crt_stdio_output@@V?$positional_parameter_base@_WV?$string_output_adapter@_W@__crt_stdio_output@@@2@@__crt_stdio_output@@AEAA_NXZ 000000018005b1dc f i libucrt:output.obj
 0001:0005a2f4       ?type_case_s@?$output_processor@_WV?$string_output_adapter@_W@__crt_stdio_output@@V?$standard_base@_WV?$string_output_adapter@_W@__crt_stdio_output@@@2@@__crt_stdio_output@@AEAA_NXZ 000000018005b2f4 f i libucrt:output.obj
 0001:0005a3ec       ?type_case_s_compute_narrow_string_length@?$output_processor@DV?$stream_output_adapter@D@__crt_stdio_output@@V?$format_validation_base@DV?$stream_output_adapter@D@__crt_stdio_output@@@2@@__crt_stdio_output@@AEBAHHD@Z 000000018005b3ec f i libucrt:output.obj
 0001:0005a3fc       ?type_case_s_compute_narrow_string_length@?$output_processor@DV?$stream_output_adapter@D@__crt_stdio_output@@V?$positional_parameter_base@DV?$stream_output_adapter@D@__crt_stdio_output@@@2@@__crt_stdio_output@@AEBAHHD@Z 000000018005b3fc f i libucrt:output.obj
 0001:0005a40c       ?type_case_s_compute_narrow_string_length@?$output_processor@DV?$stream_output_adapter@D@__crt_stdio_output@@V?$standard_base@DV?$stream_output_adapter@D@__crt_stdio_output@@@2@@__crt_stdio_output@@AEBAHHD@Z 000000018005b40c f i libucrt:output.obj
 0001:0005a41c       ?type_case_s_compute_narrow_string_length@?$output_processor@DV?$string_output_adapter@D@__crt_stdio_output@@V?$format_validation_base@DV?$string_output_adapter@D@__crt_stdio_output@@@2@@__crt_stdio_output@@AEBAHHD@Z 000000018005b41c f i libucrt:output.obj
 0001:0005a42c       ?type_case_s_compute_narrow_string_length@?$output_processor@DV?$string_output_adapter@D@__crt_stdio_output@@V?$positional_parameter_base@DV?$string_output_adapter@D@__crt_stdio_output@@@2@@__crt_stdio_output@@AEBAHHD@Z 000000018005b42c f i libucrt:output.obj
 0001:0005a43c       ?type_case_s_compute_narrow_string_length@?$output_processor@DV?$string_output_adapter@D@__crt_stdio_output@@V?$standard_base@DV?$string_output_adapter@D@__crt_stdio_output@@@2@@__crt_stdio_output@@AEBAHHD@Z 000000018005b43c f i libucrt:output.obj
 0001:0005a44c       ?type_case_s_compute_narrow_string_length@?$output_processor@_WV?$stream_output_adapter@_W@__crt_stdio_output@@V?$format_validation_base@_WV?$stream_output_adapter@_W@__crt_stdio_output@@@2@@__crt_stdio_output@@AEBAHH_W@Z 000000018005b44c f i libucrt:output.obj
 0001:0005a4a0       ?type_case_s_compute_narrow_string_length@?$output_processor@_WV?$stream_output_adapter@_W@__crt_stdio_output@@V?$positional_parameter_base@_WV?$stream_output_adapter@_W@__crt_stdio_output@@@2@@__crt_stdio_output@@AEBAHH_W@Z 000000018005b4a0 f i libucrt:output.obj
 0001:0005a4f4       ?type_case_s_compute_narrow_string_length@?$output_processor@_WV?$stream_output_adapter@_W@__crt_stdio_output@@V?$standard_base@_WV?$stream_output_adapter@_W@__crt_stdio_output@@@2@@__crt_stdio_output@@AEBAHH_W@Z 000000018005b4f4 f i libucrt:output.obj
 0001:0005a548       ?type_case_s_compute_narrow_string_length@?$output_processor@_WV?$string_output_adapter@_W@__crt_stdio_output@@V?$format_validation_base@_WV?$string_output_adapter@_W@__crt_stdio_output@@@2@@__crt_stdio_output@@AEBAHH_W@Z 000000018005b548 f i libucrt:output.obj
 0001:0005a59c       ?type_case_s_compute_narrow_string_length@?$output_processor@_WV?$string_output_adapter@_W@__crt_stdio_output@@V?$positional_parameter_base@_WV?$string_output_adapter@_W@__crt_stdio_output@@@2@@__crt_stdio_output@@AEBAHH_W@Z 000000018005b59c f i libucrt:output.obj
 0001:0005a5f0       ?type_case_s_compute_narrow_string_length@?$output_processor@_WV?$string_output_adapter@_W@__crt_stdio_output@@V?$standard_base@_WV?$string_output_adapter@_W@__crt_stdio_output@@@2@@__crt_stdio_output@@AEBAHH_W@Z 000000018005b5f0 f i libucrt:output.obj
 0001:0005a644       ?type_case_u@?$output_processor@DV?$stream_output_adapter@D@__crt_stdio_output@@V?$format_validation_base@DV?$stream_output_adapter@D@__crt_stdio_output@@@2@@__crt_stdio_output@@AEAA_NXZ 000000018005b644 f i libucrt:output.obj
 0001:0005a654       ?type_case_u@?$output_processor@DV?$stream_output_adapter@D@__crt_stdio_output@@V?$positional_parameter_base@DV?$stream_output_adapter@D@__crt_stdio_output@@@2@@__crt_stdio_output@@AEAA_NXZ 000000018005b654 f i libucrt:output.obj
 0001:0005a664       ?type_case_u@?$output_processor@DV?$stream_output_adapter@D@__crt_stdio_output@@V?$standard_base@DV?$stream_output_adapter@D@__crt_stdio_output@@@2@@__crt_stdio_output@@AEAA_NXZ 000000018005b664 f i libucrt:output.obj
 0001:0005a674       ?type_case_u@?$output_processor@DV?$string_output_adapter@D@__crt_stdio_output@@V?$format_validation_base@DV?$string_output_adapter@D@__crt_stdio_output@@@2@@__crt_stdio_output@@AEAA_NXZ 000000018005b674 f i libucrt:output.obj
 0001:0005a684       ?type_case_u@?$output_processor@DV?$string_output_adapter@D@__crt_stdio_output@@V?$positional_parameter_base@DV?$string_output_adapter@D@__crt_stdio_output@@@2@@__crt_stdio_output@@AEAA_NXZ 000000018005b684 f i libucrt:output.obj
 0001:0005a694       ?type_case_u@?$output_processor@DV?$string_output_adapter@D@__crt_stdio_output@@V?$standard_base@DV?$string_output_adapter@D@__crt_stdio_output@@@2@@__crt_stdio_output@@AEAA_NXZ 000000018005b694 f i libucrt:output.obj
 0001:0005a6a4       ?type_case_u@?$output_processor@_WV?$stream_output_adapter@_W@__crt_stdio_output@@V?$format_validation_base@_WV?$stream_output_adapter@_W@__crt_stdio_output@@@2@@__crt_stdio_output@@AEAA_NXZ 000000018005b6a4 f i libucrt:output.obj
 0001:0005a6b4       ?type_case_u@?$output_processor@_WV?$stream_output_adapter@_W@__crt_stdio_output@@V?$positional_parameter_base@_WV?$stream_output_adapter@_W@__crt_stdio_output@@@2@@__crt_stdio_output@@AEAA_NXZ 000000018005b6b4 f i libucrt:output.obj
 0001:0005a6c4       ?type_case_u@?$output_processor@_WV?$stream_output_adapter@_W@__crt_stdio_output@@V?$standard_base@_WV?$stream_output_adapter@_W@__crt_stdio_output@@@2@@__crt_stdio_output@@AEAA_NXZ 000000018005b6c4 f i libucrt:output.obj
 0001:0005a6d4       ?type_case_u@?$output_processor@_WV?$string_output_adapter@_W@__crt_stdio_output@@V?$format_validation_base@_WV?$string_output_adapter@_W@__crt_stdio_output@@@2@@__crt_stdio_output@@AEAA_NXZ 000000018005b6d4 f i libucrt:output.obj
 0001:0005a6e4       ?type_case_u@?$output_processor@_WV?$string_output_adapter@_W@__crt_stdio_output@@V?$positional_parameter_base@_WV?$string_output_adapter@_W@__crt_stdio_output@@@2@@__crt_stdio_output@@AEAA_NXZ 000000018005b6e4 f i libucrt:output.obj
 0001:0005a6f4       ?type_case_u@?$output_processor@_WV?$string_output_adapter@_W@__crt_stdio_output@@V?$standard_base@_WV?$string_output_adapter@_W@__crt_stdio_output@@@2@@__crt_stdio_output@@AEAA_NXZ 000000018005b6f4 f i libucrt:output.obj
 0001:0005a704       ?type_case_x@?$output_processor@DV?$stream_output_adapter@D@__crt_stdio_output@@V?$format_validation_base@DV?$stream_output_adapter@D@__crt_stdio_output@@@2@@__crt_stdio_output@@AEAA_NXZ 000000018005b704 f i libucrt:output.obj
 0001:0005a714       ?type_case_x@?$output_processor@DV?$stream_output_adapter@D@__crt_stdio_output@@V?$positional_parameter_base@DV?$stream_output_adapter@D@__crt_stdio_output@@@2@@__crt_stdio_output@@AEAA_NXZ 000000018005b714 f i libucrt:output.obj
 0001:0005a724       ?type_case_x@?$output_processor@DV?$stream_output_adapter@D@__crt_stdio_output@@V?$standard_base@DV?$stream_output_adapter@D@__crt_stdio_output@@@2@@__crt_stdio_output@@AEAA_NXZ 000000018005b724 f i libucrt:output.obj
 0001:0005a734       ?type_case_x@?$output_processor@DV?$string_output_adapter@D@__crt_stdio_output@@V?$format_validation_base@DV?$string_output_adapter@D@__crt_stdio_output@@@2@@__crt_stdio_output@@AEAA_NXZ 000000018005b734 f i libucrt:output.obj
 0001:0005a744       ?type_case_x@?$output_processor@DV?$string_output_adapter@D@__crt_stdio_output@@V?$positional_parameter_base@DV?$string_output_adapter@D@__crt_stdio_output@@@2@@__crt_stdio_output@@AEAA_NXZ 000000018005b744 f i libucrt:output.obj
 0001:0005a754       ?type_case_x@?$output_processor@DV?$string_output_adapter@D@__crt_stdio_output@@V?$standard_base@DV?$string_output_adapter@D@__crt_stdio_output@@@2@@__crt_stdio_output@@AEAA_NXZ 000000018005b754 f i libucrt:output.obj
 0001:0005a764       ?type_case_x@?$output_processor@_WV?$stream_output_adapter@_W@__crt_stdio_output@@V?$format_validation_base@_WV?$stream_output_adapter@_W@__crt_stdio_output@@@2@@__crt_stdio_output@@AEAA_NXZ 000000018005b764 f i libucrt:output.obj
 0001:0005a774       ?type_case_x@?$output_processor@_WV?$stream_output_adapter@_W@__crt_stdio_output@@V?$positional_parameter_base@_WV?$stream_output_adapter@_W@__crt_stdio_output@@@2@@__crt_stdio_output@@AEAA_NXZ 000000018005b774 f i libucrt:output.obj
 0001:0005a784       ?type_case_x@?$output_processor@_WV?$stream_output_adapter@_W@__crt_stdio_output@@V?$standard_base@_WV?$stream_output_adapter@_W@__crt_stdio_output@@@2@@__crt_stdio_output@@AEAA_NXZ 000000018005b784 f i libucrt:output.obj
 0001:0005a794       ?type_case_x@?$output_processor@_WV?$string_output_adapter@_W@__crt_stdio_output@@V?$format_validation_base@_WV?$string_output_adapter@_W@__crt_stdio_output@@@2@@__crt_stdio_output@@AEAA_NXZ 000000018005b794 f i libucrt:output.obj
 0001:0005a7a4       ?type_case_x@?$output_processor@_WV?$string_output_adapter@_W@__crt_stdio_output@@V?$positional_parameter_base@_WV?$string_output_adapter@_W@__crt_stdio_output@@@2@@__crt_stdio_output@@AEAA_NXZ 000000018005b7a4 f i libucrt:output.obj
 0001:0005a7b4       ?type_case_x@?$output_processor@_WV?$string_output_adapter@_W@__crt_stdio_output@@V?$standard_base@_WV?$string_output_adapter@_W@__crt_stdio_output@@@2@@__crt_stdio_output@@AEAA_NXZ 000000018005b7b4 f i libucrt:output.obj
 0001:0005a7c4       ?unset_flag@?$output_processor@DV?$stream_output_adapter@D@__crt_stdio_output@@V?$format_validation_base@DV?$stream_output_adapter@D@__crt_stdio_output@@@2@@__crt_stdio_output@@AEAAXI@Z 000000018005b7c4 f i libucrt:output.obj
 0001:0005a7cc       ?unset_flag@?$output_processor@DV?$stream_output_adapter@D@__crt_stdio_output@@V?$positional_parameter_base@DV?$stream_output_adapter@D@__crt_stdio_output@@@2@@__crt_stdio_output@@AEAAXI@Z 000000018005b7cc f i libucrt:output.obj
 0001:0005a7d4       ?unset_flag@?$output_processor@DV?$stream_output_adapter@D@__crt_stdio_output@@V?$standard_base@DV?$stream_output_adapter@D@__crt_stdio_output@@@2@@__crt_stdio_output@@AEAAXI@Z 000000018005b7d4 f i libucrt:output.obj
 0001:0005a7dc       ?unset_flag@?$output_processor@DV?$string_output_adapter@D@__crt_stdio_output@@V?$format_validation_base@DV?$string_output_adapter@D@__crt_stdio_output@@@2@@__crt_stdio_output@@AEAAXI@Z 000000018005b7dc f i libucrt:output.obj
 0001:0005a7e4       ?unset_flag@?$output_processor@DV?$string_output_adapter@D@__crt_stdio_output@@V?$positional_parameter_base@DV?$string_output_adapter@D@__crt_stdio_output@@@2@@__crt_stdio_output@@AEAAXI@Z 000000018005b7e4 f i libucrt:output.obj
 0001:0005a7ec       ?unset_flag@?$output_processor@DV?$string_output_adapter@D@__crt_stdio_output@@V?$standard_base@DV?$string_output_adapter@D@__crt_stdio_output@@@2@@__crt_stdio_output@@AEAAXI@Z 000000018005b7ec f i libucrt:output.obj
 0001:0005a7f4       ?unset_flag@?$output_processor@_WV?$stream_output_adapter@_W@__crt_stdio_output@@V?$format_validation_base@_WV?$stream_output_adapter@_W@__crt_stdio_output@@@2@@__crt_stdio_output@@AEAAXI@Z 000000018005b7f4 f i libucrt:output.obj
 0001:0005a7fc       ?unset_flag@?$output_processor@_WV?$stream_output_adapter@_W@__crt_stdio_output@@V?$positional_parameter_base@_WV?$stream_output_adapter@_W@__crt_stdio_output@@@2@@__crt_stdio_output@@AEAAXI@Z 000000018005b7fc f i libucrt:output.obj
 0001:0005a804       ?unset_flag@?$output_processor@_WV?$stream_output_adapter@_W@__crt_stdio_output@@V?$standard_base@_WV?$stream_output_adapter@_W@__crt_stdio_output@@@2@@__crt_stdio_output@@AEAAXI@Z 000000018005b804 f i libucrt:output.obj
 0001:0005a80c       ?unset_flag@?$output_processor@_WV?$string_output_adapter@_W@__crt_stdio_output@@V?$format_validation_base@_WV?$string_output_adapter@_W@__crt_stdio_output@@@2@@__crt_stdio_output@@AEAAXI@Z 000000018005b80c f i libucrt:output.obj
 0001:0005a814       ?unset_flag@?$output_processor@_WV?$string_output_adapter@_W@__crt_stdio_output@@V?$positional_parameter_base@_WV?$string_output_adapter@_W@__crt_stdio_output@@@2@@__crt_stdio_output@@AEAAXI@Z 000000018005b814 f i libucrt:output.obj
 0001:0005a81c       ?unset_flag@?$output_processor@_WV?$string_output_adapter@_W@__crt_stdio_output@@V?$standard_base@_WV?$string_output_adapter@_W@__crt_stdio_output@@@2@@__crt_stdio_output@@AEAAXI@Z 000000018005b81c f i libucrt:output.obj
 0001:0005a824       ?update_field_width@?$positional_parameter_base@DV?$stream_output_adapter@D@__crt_stdio_output@@@__crt_stdio_output@@IEAA_NXZ 000000018005b824 f i libucrt:output.obj
 0001:0005a97c       ?update_field_width@?$positional_parameter_base@DV?$string_output_adapter@D@__crt_stdio_output@@@__crt_stdio_output@@IEAA_NXZ 000000018005b97c f i libucrt:output.obj
 0001:0005aad4       ?update_field_width@?$positional_parameter_base@_WV?$stream_output_adapter@_W@__crt_stdio_output@@@__crt_stdio_output@@IEAA_NXZ 000000018005bad4 f i libucrt:output.obj
 0001:0005ac30       ?update_field_width@?$positional_parameter_base@_WV?$string_output_adapter@_W@__crt_stdio_output@@@__crt_stdio_output@@IEAA_NXZ 000000018005bc30 f i libucrt:output.obj
 0001:0005ad8c       ?update_field_width@?$standard_base@DV?$stream_output_adapter@D@__crt_stdio_output@@@__crt_stdio_output@@IEAA_NXZ 000000018005bd8c f i libucrt:output.obj
 0001:0005ada4       ?update_field_width@?$standard_base@DV?$string_output_adapter@D@__crt_stdio_output@@@__crt_stdio_output@@IEAA_NXZ 000000018005bda4 f i libucrt:output.obj
 0001:0005adbc       ?update_field_width@?$standard_base@_WV?$stream_output_adapter@_W@__crt_stdio_output@@@__crt_stdio_output@@IEAA_NXZ 000000018005bdbc f i libucrt:output.obj
 0001:0005add4       ?update_field_width@?$standard_base@_WV?$string_output_adapter@_W@__crt_stdio_output@@@__crt_stdio_output@@IEAA_NXZ 000000018005bdd4 f i libucrt:output.obj
 0001:0005adec       ?update_precision@?$positional_parameter_base@DV?$stream_output_adapter@D@__crt_stdio_output@@@__crt_stdio_output@@IEAA_NXZ 000000018005bdec f i libucrt:output.obj
 0001:0005af44       ?update_precision@?$positional_parameter_base@DV?$string_output_adapter@D@__crt_stdio_output@@@__crt_stdio_output@@IEAA_NXZ 000000018005bf44 f i libucrt:output.obj
 0001:0005b09c       ?update_precision@?$positional_parameter_base@_WV?$stream_output_adapter@_W@__crt_stdio_output@@@__crt_stdio_output@@IEAA_NXZ 000000018005c09c f i libucrt:output.obj
 0001:0005b1f8       ?update_precision@?$positional_parameter_base@_WV?$string_output_adapter@_W@__crt_stdio_output@@@__crt_stdio_output@@IEAA_NXZ 000000018005c1f8 f i libucrt:output.obj
 0001:0005b354       ?update_precision@?$standard_base@DV?$stream_output_adapter@D@__crt_stdio_output@@@__crt_stdio_output@@IEAA_NXZ 000000018005c354 f i libucrt:output.obj
 0001:0005b36c       ?update_precision@?$standard_base@DV?$string_output_adapter@D@__crt_stdio_output@@@__crt_stdio_output@@IEAA_NXZ 000000018005c36c f i libucrt:output.obj
 0001:0005b384       ?update_precision@?$standard_base@_WV?$stream_output_adapter@_W@__crt_stdio_output@@@__crt_stdio_output@@IEAA_NXZ 000000018005c384 f i libucrt:output.obj
 0001:0005b39c       ?update_precision@?$standard_base@_WV?$string_output_adapter@_W@__crt_stdio_output@@@__crt_stdio_output@@IEAA_NXZ 000000018005c39c f i libucrt:output.obj
 0001:0005b3b4       ?valid@__crt_stdio_stream@@QEBA_NXZ 000000018005c3b4 f i libucrt:output.obj
 0001:0005b3c0       ?validate@?$stream_output_adapter@D@__crt_stdio_output@@QEBA_NXZ 000000018005c3c0 f i libucrt:output.obj
 0001:0005b3f8       ?validate@?$stream_output_adapter@_W@__crt_stdio_output@@QEBA_NXZ 000000018005c3f8 f i libucrt:output.obj
 0001:0005b428       ?validate@?$string_output_adapter@D@__crt_stdio_output@@QEBA_NXZ 000000018005c428 f i libucrt:output.obj
 0001:0005b458       ?validate@?$string_output_adapter@_W@__crt_stdio_output@@QEBA_NXZ 000000018005c458 f i libucrt:output.obj
 0001:0005b488       ?validate_and_store_parameter_data@?$positional_parameter_base@DV?$stream_output_adapter@D@__crt_stdio_output@@@__crt_stdio_output@@AEAA_NAEAUparameter_data@12@W4parameter_type@12@DW4length_modifier@2@@Z 000000018005c488 f i libucrt:output.obj
 0001:0005b4d8       ?validate_and_store_parameter_data@?$positional_parameter_base@DV?$string_output_adapter@D@__crt_stdio_output@@@__crt_stdio_output@@AEAA_NAEAUparameter_data@12@W4parameter_type@12@DW4length_modifier@2@@Z 000000018005c4d8 f i libucrt:output.obj
 0001:0005b528       ?validate_and_store_parameter_data@?$positional_parameter_base@_WV?$stream_output_adapter@_W@__crt_stdio_output@@@__crt_stdio_output@@AEAA_NAEAUparameter_data@12@W4parameter_type@12@_WW4length_modifier@2@@Z 000000018005c528 f i libucrt:output.obj
 0001:0005b578       ?validate_and_store_parameter_data@?$positional_parameter_base@_WV?$string_output_adapter@_W@__crt_stdio_output@@@__crt_stdio_output@@AEAA_NAEAUparameter_data@12@W4parameter_type@12@_WW4length_modifier@2@@Z 000000018005c578 f i libucrt:output.obj
 0001:0005b5c8       ?validate_and_update_state_at_beginning_of_format_character@?$positional_parameter_base@DV?$stream_output_adapter@D@__crt_stdio_output@@@__crt_stdio_output@@IEAA_NXZ 000000018005c5c8 f i libucrt:output.obj
 0001:0005b710       ?validate_and_update_state_at_beginning_of_format_character@?$positional_parameter_base@DV?$string_output_adapter@D@__crt_stdio_output@@@__crt_stdio_output@@IEAA_NXZ 000000018005c710 f i libucrt:output.obj
 0001:0005b858       ?validate_and_update_state_at_beginning_of_format_character@?$positional_parameter_base@_WV?$stream_output_adapter@_W@__crt_stdio_output@@@__crt_stdio_output@@IEAA_NXZ 000000018005c858 f i libucrt:output.obj
 0001:0005b9a8       ?validate_and_update_state_at_beginning_of_format_character@?$positional_parameter_base@_WV?$string_output_adapter@_W@__crt_stdio_output@@@__crt_stdio_output@@IEAA_NXZ 000000018005c9a8 f i libucrt:output.obj
 0001:0005baf8       ?validate_and_update_state_at_beginning_of_format_character@?$standard_base@DV?$stream_output_adapter@D@__crt_stdio_output@@@__crt_stdio_output@@IEAA_NXZ 000000018005caf8 f i libucrt:output.obj
 0001:0005bafc       ?validate_and_update_state_at_beginning_of_format_character@?$standard_base@DV?$string_output_adapter@D@__crt_stdio_output@@@__crt_stdio_output@@IEAA_NXZ 000000018005cafc f i libucrt:output.obj
 0001:0005bb00       ?validate_and_update_state_at_beginning_of_format_character@?$standard_base@_WV?$stream_output_adapter@_W@__crt_stdio_output@@@__crt_stdio_output@@IEAA_NXZ 000000018005cb00 f i libucrt:output.obj
 0001:0005bb04       ?validate_and_update_state_at_beginning_of_format_character@?$standard_base@_WV?$string_output_adapter@_W@__crt_stdio_output@@@__crt_stdio_output@@IEAA_NXZ 000000018005cb04 f i libucrt:output.obj
 0001:0005bb08       ?validate_and_update_state_at_end_of_format_string@?$format_validation_base@DV?$stream_output_adapter@D@__crt_stdio_output@@@__crt_stdio_output@@IEBA_NXZ 000000018005cb08 f i libucrt:output.obj
 0001:0005bb40       ?validate_and_update_state_at_end_of_format_string@?$format_validation_base@DV?$string_output_adapter@D@__crt_stdio_output@@@__crt_stdio_output@@IEBA_NXZ 000000018005cb40 f i libucrt:output.obj
 0001:0005bb78       ?validate_and_update_state_at_end_of_format_string@?$format_validation_base@_WV?$stream_output_adapter@_W@__crt_stdio_output@@@__crt_stdio_output@@IEBA_NXZ 000000018005cb78 f i libucrt:output.obj
 0001:0005bbb0       ?validate_and_update_state_at_end_of_format_string@?$format_validation_base@_WV?$string_output_adapter@_W@__crt_stdio_output@@@__crt_stdio_output@@IEBA_NXZ 000000018005cbb0 f i libucrt:output.obj
 0001:0005bbe8       ?validate_and_update_state_at_end_of_format_string@?$positional_parameter_base@DV?$stream_output_adapter@D@__crt_stdio_output@@@__crt_stdio_output@@IEAA_NXZ 000000018005cbe8 f i libucrt:output.obj
 0001:0005bc94       ?validate_and_update_state_at_end_of_format_string@?$positional_parameter_base@DV?$string_output_adapter@D@__crt_stdio_output@@@__crt_stdio_output@@IEAA_NXZ 000000018005cc94 f i libucrt:output.obj
 0001:0005bd40       ?validate_and_update_state_at_end_of_format_string@?$positional_parameter_base@_WV?$stream_output_adapter@_W@__crt_stdio_output@@@__crt_stdio_output@@IEAA_NXZ 000000018005cd40 f i libucrt:output.obj
 0001:0005bdec       ?validate_and_update_state_at_end_of_format_string@?$positional_parameter_base@_WV?$string_output_adapter@_W@__crt_stdio_output@@@__crt_stdio_output@@IEAA_NXZ 000000018005cdec f i libucrt:output.obj
 0001:0005be98       ?validate_and_update_state_at_end_of_format_string@?$standard_base@DV?$stream_output_adapter@D@__crt_stdio_output@@@__crt_stdio_output@@IEBA_NXZ 000000018005ce98 f i libucrt:output.obj
 0001:0005be9c       ?validate_and_update_state_at_end_of_format_string@?$standard_base@DV?$string_output_adapter@D@__crt_stdio_output@@@__crt_stdio_output@@IEBA_NXZ 000000018005ce9c f i libucrt:output.obj
 0001:0005bea0       ?validate_and_update_state_at_end_of_format_string@?$standard_base@_WV?$stream_output_adapter@_W@__crt_stdio_output@@@__crt_stdio_output@@IEBA_NXZ 000000018005cea0 f i libucrt:output.obj
 0001:0005bea4       ?validate_and_update_state_at_end_of_format_string@?$standard_base@_WV?$string_output_adapter@_W@__crt_stdio_output@@@__crt_stdio_output@@IEBA_NXZ 000000018005cea4 f i libucrt:output.obj
 0001:0005bea8       ?validate_state_for_type_case_a@?$positional_parameter_base@DV?$stream_output_adapter@D@__crt_stdio_output@@@__crt_stdio_output@@IEAA_NXZ 000000018005cea8 f i libucrt:output.obj
 0001:0005bf6c       ?validate_state_for_type_case_a@?$positional_parameter_base@DV?$string_output_adapter@D@__crt_stdio_output@@@__crt_stdio_output@@IEAA_NXZ 000000018005cf6c f i libucrt:output.obj
 0001:0005c030       ?validate_state_for_type_case_a@?$positional_parameter_base@_WV?$stream_output_adapter@_W@__crt_stdio_output@@@__crt_stdio_output@@IEAA_NXZ 000000018005d030 f i libucrt:output.obj
 0001:0005c0f4       ?validate_state_for_type_case_a@?$positional_parameter_base@_WV?$string_output_adapter@_W@__crt_stdio_output@@@__crt_stdio_output@@IEAA_NXZ 000000018005d0f4 f i libucrt:output.obj
 0001:0005c1b8       ?validate_state_for_type_case_a@?$standard_base@DV?$stream_output_adapter@D@__crt_stdio_output@@@__crt_stdio_output@@IEBA_NXZ 000000018005d1b8 f i libucrt:output.obj
 0001:0005c1bc       ?validate_state_for_type_case_a@?$standard_base@DV?$string_output_adapter@D@__crt_stdio_output@@@__crt_stdio_output@@IEBA_NXZ 000000018005d1bc f i libucrt:output.obj
 0001:0005c1c0       ?validate_state_for_type_case_a@?$standard_base@_WV?$stream_output_adapter@_W@__crt_stdio_output@@@__crt_stdio_output@@IEBA_NXZ 000000018005d1c0 f i libucrt:output.obj
 0001:0005c1c4       ?validate_state_for_type_case_a@?$standard_base@_WV?$string_output_adapter@_W@__crt_stdio_output@@@__crt_stdio_output@@IEBA_NXZ 000000018005d1c4 f i libucrt:output.obj
 0001:0005c1c8       ?validate_stream_is_ansi_if_required@?$__acrt_stdio_char_traits@D@@SA_NQEAU_iobuf@@@Z 000000018005d1c8 f i libucrt:output.obj
 0001:0005c278       ?validate_stream_is_ansi_if_required@?$__acrt_stdio_char_traits@_W@@SA_NQEAU_iobuf@@@Z 000000018005d278 f i libucrt:output.obj
 0001:0005c27c       ?wide_null_string@?$output_processor@DV?$stream_output_adapter@D@__crt_stdio_output@@V?$format_validation_base@DV?$stream_output_adapter@D@__crt_stdio_output@@@2@@__crt_stdio_output@@CAPEA_WXZ 000000018005d27c f i libucrt:output.obj
 0001:0005c288       ?wide_null_string@?$output_processor@DV?$stream_output_adapter@D@__crt_stdio_output@@V?$positional_parameter_base@DV?$stream_output_adapter@D@__crt_stdio_output@@@2@@__crt_stdio_output@@CAPEA_WXZ 000000018005d288 f i libucrt:output.obj
 0001:0005c294       ?wide_null_string@?$output_processor@DV?$stream_output_adapter@D@__crt_stdio_output@@V?$standard_base@DV?$stream_output_adapter@D@__crt_stdio_output@@@2@@__crt_stdio_output@@CAPEA_WXZ 000000018005d294 f i libucrt:output.obj
 0001:0005c2a0       ?wide_null_string@?$output_processor@DV?$string_output_adapter@D@__crt_stdio_output@@V?$format_validation_base@DV?$string_output_adapter@D@__crt_stdio_output@@@2@@__crt_stdio_output@@CAPEA_WXZ 000000018005d2a0 f i libucrt:output.obj
 0001:0005c2ac       ?wide_null_string@?$output_processor@DV?$string_output_adapter@D@__crt_stdio_output@@V?$positional_parameter_base@DV?$string_output_adapter@D@__crt_stdio_output@@@2@@__crt_stdio_output@@CAPEA_WXZ 000000018005d2ac f i libucrt:output.obj
 0001:0005c2b8       ?wide_null_string@?$output_processor@DV?$string_output_adapter@D@__crt_stdio_output@@V?$standard_base@DV?$string_output_adapter@D@__crt_stdio_output@@@2@@__crt_stdio_output@@CAPEA_WXZ 000000018005d2b8 f i libucrt:output.obj
 0001:0005c2c4       ?wide_null_string@?$output_processor@_WV?$stream_output_adapter@_W@__crt_stdio_output@@V?$format_validation_base@_WV?$stream_output_adapter@_W@__crt_stdio_output@@@2@@__crt_stdio_output@@CAPEA_WXZ 000000018005d2c4 f i libucrt:output.obj
 0001:0005c2d0       ?wide_null_string@?$output_processor@_WV?$stream_output_adapter@_W@__crt_stdio_output@@V?$positional_parameter_base@_WV?$stream_output_adapter@_W@__crt_stdio_output@@@2@@__crt_stdio_output@@CAPEA_WXZ 000000018005d2d0 f i libucrt:output.obj
 0001:0005c2dc       ?wide_null_string@?$output_processor@_WV?$stream_output_adapter@_W@__crt_stdio_output@@V?$standard_base@_WV?$stream_output_adapter@_W@__crt_stdio_output@@@2@@__crt_stdio_output@@CAPEA_WXZ 000000018005d2dc f i libucrt:output.obj
 0001:0005c2e8       ?wide_null_string@?$output_processor@_WV?$string_output_adapter@_W@__crt_stdio_output@@V?$format_validation_base@_WV?$string_output_adapter@_W@__crt_stdio_output@@@2@@__crt_stdio_output@@CAPEA_WXZ 000000018005d2e8 f i libucrt:output.obj
 0001:0005c2f4       ?wide_null_string@?$output_processor@_WV?$string_output_adapter@_W@__crt_stdio_output@@V?$positional_parameter_base@_WV?$string_output_adapter@_W@__crt_stdio_output@@@2@@__crt_stdio_output@@CAPEA_WXZ 000000018005d2f4 f i libucrt:output.obj
 0001:0005c300       ?wide_null_string@?$output_processor@_WV?$string_output_adapter@_W@__crt_stdio_output@@V?$standard_base@_WV?$string_output_adapter@_W@__crt_stdio_output@@@2@@__crt_stdio_output@@CAPEA_WXZ 000000018005d300 f i libucrt:output.obj
 0001:0005c30c       ?write_character@?$stream_output_adapter@D@__crt_stdio_output@@QEBAXDQEAH@Z 000000018005d30c f i libucrt:output.obj
 0001:0005c364       ?write_character@?$stream_output_adapter@_W@__crt_stdio_output@@QEBAX_WQEAH@Z 000000018005d364 f i libucrt:output.obj
 0001:0005c3c4       ?write_character@?$string_output_adapter@D@__crt_stdio_output@@QEBA_NDQEAH@Z 000000018005d3c4 f i libucrt:output.obj
 0001:0005c41c       ?write_character@?$string_output_adapter@_W@__crt_stdio_output@@QEBA_N_WQEAH@Z 000000018005d41c f i libucrt:output.obj
 0001:0005c478       ?write_stored_string_tchar@?$output_processor@DV?$stream_output_adapter@D@__crt_stdio_output@@V?$format_validation_base@DV?$stream_output_adapter@D@__crt_stdio_output@@@2@@__crt_stdio_output@@AEAA_ND@Z 000000018005d478 f i libucrt:output.obj
 0001:0005c584       ?write_stored_string_tchar@?$output_processor@DV?$stream_output_adapter@D@__crt_stdio_output@@V?$positional_parameter_base@DV?$stream_output_adapter@D@__crt_stdio_output@@@2@@__crt_stdio_output@@AEAA_ND@Z 000000018005d584 f i libucrt:output.obj
 0001:0005c690       ?write_stored_string_tchar@?$output_processor@DV?$stream_output_adapter@D@__crt_stdio_output@@V?$standard_base@DV?$stream_output_adapter@D@__crt_stdio_output@@@2@@__crt_stdio_output@@AEAA_ND@Z 000000018005d690 f i libucrt:output.obj
 0001:0005c79c       ?write_stored_string_tchar@?$output_processor@DV?$string_output_adapter@D@__crt_stdio_output@@V?$format_validation_base@DV?$string_output_adapter@D@__crt_stdio_output@@@2@@__crt_stdio_output@@AEAA_ND@Z 000000018005d79c f i libucrt:output.obj
 0001:0005c8a8       ?write_stored_string_tchar@?$output_processor@DV?$string_output_adapter@D@__crt_stdio_output@@V?$positional_parameter_base@DV?$string_output_adapter@D@__crt_stdio_output@@@2@@__crt_stdio_output@@AEAA_ND@Z 000000018005d8a8 f i libucrt:output.obj
 0001:0005c9b4       ?write_stored_string_tchar@?$output_processor@DV?$string_output_adapter@D@__crt_stdio_output@@V?$standard_base@DV?$string_output_adapter@D@__crt_stdio_output@@@2@@__crt_stdio_output@@AEAA_ND@Z 000000018005d9b4 f i libucrt:output.obj
 0001:0005cac0       ?write_stored_string_tchar@?$output_processor@_WV?$stream_output_adapter@_W@__crt_stdio_output@@V?$format_validation_base@_WV?$stream_output_adapter@_W@__crt_stdio_output@@@2@@__crt_stdio_output@@AEAA_N_W@Z 000000018005dac0 f i libucrt:output.obj
 0001:0005cbe8       ?write_stored_string_tchar@?$output_processor@_WV?$stream_output_adapter@_W@__crt_stdio_output@@V?$positional_parameter_base@_WV?$stream_output_adapter@_W@__crt_stdio_output@@@2@@__crt_stdio_output@@AEAA_N_W@Z 000000018005dbe8 f i libucrt:output.obj
 0001:0005cd10       ?write_stored_string_tchar@?$output_processor@_WV?$stream_output_adapter@_W@__crt_stdio_output@@V?$standard_base@_WV?$stream_output_adapter@_W@__crt_stdio_output@@@2@@__crt_stdio_output@@AEAA_N_W@Z 000000018005dd10 f i libucrt:output.obj
 0001:0005ce38       ?write_stored_string_tchar@?$output_processor@_WV?$string_output_adapter@_W@__crt_stdio_output@@V?$format_validation_base@_WV?$string_output_adapter@_W@__crt_stdio_output@@@2@@__crt_stdio_output@@AEAA_N_W@Z 000000018005de38 f i libucrt:output.obj
 0001:0005cf60       ?write_stored_string_tchar@?$output_processor@_WV?$string_output_adapter@_W@__crt_stdio_output@@V?$positional_parameter_base@_WV?$string_output_adapter@_W@__crt_stdio_output@@@2@@__crt_stdio_output@@AEAA_N_W@Z 000000018005df60 f i libucrt:output.obj
 0001:0005d088       ?write_stored_string_tchar@?$output_processor@_WV?$string_output_adapter@_W@__crt_stdio_output@@V?$standard_base@_WV?$string_output_adapter@_W@__crt_stdio_output@@@2@@__crt_stdio_output@@AEAA_N_W@Z 000000018005e088 f i libucrt:output.obj
 0001:0005d1b0       ?write_string@?$stream_output_adapter@D@__crt_stdio_output@@QEBAXQEBDHQEAH1@Z 000000018005e1b0 f i libucrt:output.obj
 0001:0005d2e4       ?write_string@?$stream_output_adapter@_W@__crt_stdio_output@@QEBAXQEB_WHQEAH1@Z 000000018005e2e4 f i libucrt:output.obj
 0001:0005d430       ?write_string@?$string_output_adapter@D@__crt_stdio_output@@QEBAXQEBDHQEAH1@Z 000000018005e430 f i libucrt:output.obj
 0001:0005d518       ?write_string@?$string_output_adapter@_W@__crt_stdio_output@@QEBAXQEB_WHQEAH1@Z 000000018005e518 f i libucrt:output.obj
 0001:0005d608       __acrt_isleadbyte_l_noupdate 000000018005e608 f i libucrt:output.obj
 0001:0005d624       __acrt_locale_changed      000000018005e624 f i libucrt:output.obj
 0001:0005d634       __stdio_common_vfprintf    000000018005e634 f   libucrt:output.obj
 0001:0005d6e4       __stdio_common_vfprintf_p  000000018005e6e4 f   libucrt:output.obj
 0001:0005d794       __stdio_common_vfprintf_s  000000018005e794 f   libucrt:output.obj
 0001:0005d844       __stdio_common_vfwprintf   000000018005e844 f   libucrt:output.obj
 0001:0005d8f4       __stdio_common_vfwprintf_p 000000018005e8f4 f   libucrt:output.obj
 0001:0005d9a4       __stdio_common_vfwprintf_s 000000018005e9a4 f   libucrt:output.obj
 0001:0005da54       __stdio_common_vsnprintf_s 000000018005ea54 f   libucrt:output.obj
 0001:0005dc08       __stdio_common_vsnwprintf_s 000000018005ec08 f   libucrt:output.obj
 0001:0005ddd0       __stdio_common_vsprintf    000000018005edd0 f   libucrt:output.obj
 0001:0005e090       __stdio_common_vsprintf_p  000000018005f090 f   libucrt:output.obj
 0001:0005e350       __stdio_common_vsprintf_s  000000018005f350 f   libucrt:output.obj
 0001:0005e3cc       __stdio_common_vswprintf   000000018005f3cc f   libucrt:output.obj
 0001:0005e690       __stdio_common_vswprintf_p 000000018005f690 f   libucrt:output.obj
 0001:0005e954       __stdio_common_vswprintf_s 000000018005f954 f   libucrt:output.obj
 0001:0005e9e0       ??$is_overflow_condition@K@__crt_strtox@@YA_NIK@Z 000000018005f9e0 f i libucrt:atox.obj
 0001:0005ea14       ??$is_overflow_condition@_K@__crt_strtox@@YA_NI_K@Z 000000018005fa14 f i libucrt:atox.obj
 0001:0005ea58       ??$make_c_string_character_source@D$$T@__crt_strtox@@YA?AV?$c_string_character_source@D@0@QEBD$$T@Z 000000018005fa58 f i libucrt:atox.obj
 0001:0005ea70       ??$make_c_string_character_source@_W$$T@__crt_strtox@@YA?AV?$c_string_character_source@_W@0@QEB_W$$T@Z 000000018005fa70 f i libucrt:atox.obj
 0001:0005ea88       ??$parse_integer@KV?$c_string_character_source@D@__crt_strtox@@@__crt_strtox@@YAKQEAU__crt_locale_pointers@@V?$c_string_character_source@D@0@H_N@Z 000000018005fa88 f i libucrt:atox.obj
 0001:0005ee60       ??$parse_integer@KV?$c_string_character_source@_W@__crt_strtox@@@__crt_strtox@@YAKQEAU__crt_locale_pointers@@V?$c_string_character_source@_W@0@H_N@Z 000000018005fe60 f i libucrt:atox.obj
 0001:0005f6ec       ??$parse_integer@_KV?$c_string_character_source@D@__crt_strtox@@@__crt_strtox@@YA_KQEAU__crt_locale_pointers@@V?$c_string_character_source@D@0@H_N@Z 00000001800606ec f i libucrt:atox.obj
 0001:0005faec       ??$parse_integer@_KV?$c_string_character_source@_W@__crt_strtox@@@__crt_strtox@@YA_KQEAU__crt_locale_pointers@@V?$c_string_character_source@_W@0@H_N@Z 0000000180060aec f i libucrt:atox.obj
 0001:00060494       ??$parse_integer_from_string@JD$$T@__crt_strtox@@YAJQEBD$$THQEAU__crt_locale_pointers@@@Z 0000000180061494 f i libucrt:atox.obj
 0001:000604e0       ??$parse_integer_from_string@J_W$$T@__crt_strtox@@YAJQEB_W$$THQEAU__crt_locale_pointers@@@Z 00000001800614e0 f i libucrt:atox.obj
 0001:0006052c       ??$parse_integer_from_string@_JD$$T@__crt_strtox@@YA_JQEBD$$THQEAU__crt_locale_pointers@@@Z 000000018006152c f i libucrt:atox.obj
 0001:00060578       ??$parse_integer_from_string@_J_W$$T@__crt_strtox@@YA_JQEB_W$$THQEAU__crt_locale_pointers@@@Z 0000000180061578 f i libucrt:atox.obj
 0001:000605c4       ??0?$c_string_character_source@D@__crt_strtox@@QEAA@QEBDQEAPEBD@Z 00000001800615c4 f i libucrt:atox.obj
 0001:000605dc       ??0?$c_string_character_source@_W@__crt_strtox@@QEAA@QEB_WQEAPEB_W@Z 00000001800615dc f i libucrt:atox.obj
 0001:000605f4       ??1?$c_string_character_source@D@__crt_strtox@@QEAA@XZ 00000001800615f4 f i libucrt:atox.obj
 0001:00060608       ??1?$c_string_character_source@_W@__crt_strtox@@QEAA@XZ 0000000180061608 f i libucrt:atox.obj
 0001:0006061c       ?get@?$c_string_character_source@D@__crt_strtox@@QEAADXZ 000000018006161c f i libucrt:atox.obj
 0001:0006062c       ?get@?$c_string_character_source@_W@__crt_strtox@@QEAA_WXZ 000000018006162c f i libucrt:atox.obj
 0001:00060640       ?is_space@__crt_strtox@@YA_NDQEAU__crt_locale_pointers@@@Z 0000000180061640 f i libucrt:atox.obj
 0001:000606ac       ?is_space@__crt_strtox@@YA_N_WPEAU__crt_locale_pointers@@@Z 00000001800616ac f i libucrt:atox.obj
 0001:000606cc       ?maximum_signed_value@__crt_strtox@@YAJK@Z 00000001800616cc f i libucrt:atox.obj
 0001:000606d4       ?maximum_signed_value@__crt_strtox@@YA_J_K@Z 00000001800616d4 f i libucrt:atox.obj
 0001:000606e4       ?minimum_signed_value@__crt_strtox@@YAJK@Z 00000001800616e4 f i libucrt:atox.obj
 0001:000606ec       ?minimum_signed_value@__crt_strtox@@YA_J_K@Z 00000001800616ec f i libucrt:atox.obj
 0001:000606fc       ?parse_digit@__crt_strtox@@YAID@Z 00000001800616fc f i libucrt:atox.obj
 0001:00060738       ?parse_digit@__crt_strtox@@YAI_W@Z 0000000180061738 f i libucrt:atox.obj
 0001:00060984       ?restore_state@?$c_string_character_source@D@__crt_strtox@@QEAA_NQEBD@Z 0000000180061984 f i libucrt:atox.obj
 0001:0006098c       ?restore_state@?$c_string_character_source@_W@__crt_strtox@@QEAA_NQEB_W@Z 000000018006198c f i libucrt:atox.obj
 0001:00060994       ?save_state@?$c_string_character_source@D@__crt_strtox@@QEBAPEBDXZ 0000000180061994 f i libucrt:atox.obj
 0001:00060998       ?save_state@?$c_string_character_source@_W@__crt_strtox@@QEBAPEB_WXZ 0000000180061998 f i libucrt:atox.obj
 0001:0006099c       ?unget@?$c_string_character_source@D@__crt_strtox@@QEAAXD@Z 000000018006199c f i libucrt:atox.obj
 0001:000609cc       ?unget@?$c_string_character_source@_W@__crt_strtox@@QEAAX_W@Z 00000001800619cc f i libucrt:atox.obj
 0001:00060a00       ?validate@?$c_string_character_source@D@__crt_strtox@@QEBA_NXZ 0000000180061a00 f i libucrt:atox.obj
 0001:00060a30       ?validate@?$c_string_character_source@_W@__crt_strtox@@QEBA_NXZ 0000000180061a30 f i libucrt:atox.obj
 0001:00060a60       ?wide_character_to_digit@__crt_strtox@@YAH_W@Z 0000000180061a60 f i libucrt:atox.obj
 0001:00060c5c       __acrt_get_locale_data_prefix 0000000180061c5c f i libucrt:atox.obj
 0001:00060c60       _atoi64                    0000000180061c60 f   libucrt:atox.obj
 0001:00060c94       _atoi64_l                  0000000180061c94 f   libucrt:atox.obj
 0001:00060cd4       _atoi_l                    0000000180061cd4 f   libucrt:atox.obj
 0001:00060d14       _atol_l                    0000000180061d14 f   libucrt:atox.obj
 0001:00060d54       _atoll_l                   0000000180061d54 f   libucrt:atox.obj
 0001:00060d94       _chvalidchk_l              0000000180061d94 f i libucrt:atox.obj
 0001:00060ddc       _ischartype_l              0000000180061ddc f i libucrt:atox.obj
 0001:00060e34       _wtoi                      0000000180061e34 f   libucrt:atox.obj
 0001:00060e68       _wtoi64                    0000000180061e68 f   libucrt:atox.obj
 0001:00060e9c       _wtoi64_l                  0000000180061e9c f   libucrt:atox.obj
 0001:00060edc       _wtoi_l                    0000000180061edc f   libucrt:atox.obj
 0001:00060f1c       _wtol                      0000000180061f1c f   libucrt:atox.obj
 0001:00060f50       _wtol_l                    0000000180061f50 f   libucrt:atox.obj
 0001:00060f90       _wtoll                     0000000180061f90 f   libucrt:atox.obj
 0001:00060fc4       _wtoll_l                   0000000180061fc4 f   libucrt:atox.obj
 0001:00061004       atoi                       0000000180062004 f   libucrt:atox.obj
 0001:00061038       atol                       0000000180062038 f   libucrt:atox.obj
 0001:0006106c       atoll                      000000018006206c f   libucrt:atox.obj
 0001:000610a0       _calloc_base               00000001800620a0 f   libucrt:calloc_base.obj
 0001:00061134       wcsncmp                    0000000180062134 f   libucrt:wcsncmp.obj
 0001:0006116c       nextafter                  000000018006216c f   libucrt:nextafter.obj
 0001:00061174       nextafterf                 0000000180062174 f   libucrt:nextafterf.obj
 0001:000612e8       _handle_error              00000001800622e8 f   libucrt:libm_error.obj
 0001:00061458       _handle_errorf             0000000180062458 f   libucrt:libm_error.obj
 0001:000615d8       _handle_nan                00000001800625d8 f   libucrt:libm_error.obj
 0001:000615f8       _handle_nanf               00000001800625f8 f   libucrt:libm_error.obj
 0001:0006160c       ??$?RU__acrt_ptd@@@__crt_internal_free_policy@@QEBAXQEBU__acrt_ptd@@@Z 000000018006260c f i libucrt:per_thread_data.obj
 0001:00061618       ??$?RV<lambda_46352004c1216016012b18bd6f87e700>@@AEAV<lambda_3bd07e1a1191394380780325891bf33f>@@V<lambda_334532d3f185bcaa59b5be82d7d22bff>@@@?$__crt_seh_guarded_call@X@@QEAAX$$QEAV<lambda_46352004c1216016012b18bd6f87e700>@@AEAV<lambda_3bd07e1a1191394380780325891bf33f>@@$$QEAV<lambda_334532d3f185bcaa59b5be82d7d22bff>@@@Z 0000000180062618 f i libucrt:per_thread_data.obj
 0001:00061690       ??$?RV<lambda_5e887d1dcbef67a5eb4283622ba103bf>@@AEAV<lambda_4466841279450cc726390878d4a41900>@@V<lambda_341c25c0346d94847f1f3c463c57e077>@@@?$__crt_seh_guarded_call@X@@QEAAX$$QEAV<lambda_5e887d1dcbef67a5eb4283622ba103bf>@@AEAV<lambda_4466841279450cc726390878d4a41900>@@$$QEAV<lambda_341c25c0346d94847f1f3c463c57e077>@@@Z 0000000180062690 f i libucrt:per_thread_data.obj
 0001:000616e8       ??$?RV<lambda_72d1df2b273a38828b1ce30cbf4cdab5>@@AEAV<lambda_876a65b173b8412d3a47c70a915b0cf4>@@V<lambda_41932305e351933ebe8f8be3ed8bb5dc>@@@?$__crt_seh_guarded_call@X@@QEAAX$$QEAV<lambda_72d1df2b273a38828b1ce30cbf4cdab5>@@AEAV<lambda_876a65b173b8412d3a47c70a915b0cf4>@@$$QEAV<lambda_41932305e351933ebe8f8be3ed8bb5dc>@@@Z 00000001800626e8 f i libucrt:per_thread_data.obj
 0001:00061738       ??$?RV<lambda_fb3a7dec4e47f37f22dae91bb15c9095>@@AEAV<lambda_698284760c8add0bfb0756c19673e34b>@@V<lambda_dfb8eca1e75fef3034a8fb18dd509707>@@@?$__crt_seh_guarded_call@X@@QEAAX$$QEAV<lambda_fb3a7dec4e47f37f22dae91bb15c9095>@@AEAV<lambda_698284760c8add0bfb0756c19673e34b>@@$$QEAV<lambda_dfb8eca1e75fef3034a8fb18dd509707>@@@Z 0000000180062738 f i libucrt:per_thread_data.obj
 0001:00061784       ??$__acrt_lock_and_call@V<lambda_3bd07e1a1191394380780325891bf33f>@@@@YAXW4__acrt_lock_id@@$$QEAV<lambda_3bd07e1a1191394380780325891bf33f>@@@Z 0000000180062784 f i libucrt:per_thread_data.obj
 0001:000617b4       ??$__acrt_lock_and_call@V<lambda_4466841279450cc726390878d4a41900>@@@@YAXW4__acrt_lock_id@@$$QEAV<lambda_4466841279450cc726390878d4a41900>@@@Z 00000001800627b4 f i libucrt:per_thread_data.obj
 0001:000617e4       ??$__acrt_lock_and_call@V<lambda_698284760c8add0bfb0756c19673e34b>@@@@YAXW4__acrt_lock_id@@$$QEAV<lambda_698284760c8add0bfb0756c19673e34b>@@@Z 00000001800627e4 f i libucrt:per_thread_data.obj
 0001:00061814       ??$__acrt_lock_and_call@V<lambda_876a65b173b8412d3a47c70a915b0cf4>@@@@YAXW4__acrt_lock_id@@$$QEAV<lambda_876a65b173b8412d3a47c70a915b0cf4>@@@Z 0000000180062814 f i libucrt:per_thread_data.obj
 0001:000618cc       ??0?$__crt_unique_heap_ptr@U__acrt_ptd@@U__crt_internal_free_policy@@@@QEAA@QEAU__acrt_ptd@@@Z 00000001800628cc f i libucrt:per_thread_data.obj
 0001:000618d4       ??0__crt_scoped_get_last_error_reset@@QEAA@XZ 00000001800628d4 f i libucrt:per_thread_data.obj
 0001:000618f4       ??1?$__crt_unique_heap_ptr@U__acrt_ptd@@U__crt_internal_free_policy@@@@QEAA@XZ 00000001800628f4 f i libucrt:per_thread_data.obj
 0001:00061918       ??1__crt_scoped_get_last_error_reset@@QEAA@XZ 0000000180062918 f i libucrt:per_thread_data.obj
 0001:00061924       ??B?$__crt_unique_heap_ptr@U__acrt_ptd@@U__crt_internal_free_policy@@@@QEBA_NXZ 0000000180062924 f i libucrt:per_thread_data.obj
 0001:00061bf4       ?dangerous_get_state_array@?$dual_state_global@PEAU__crt_locale_data@@@__crt_state_management@@QEAAPEAPEAU__crt_locale_data@@XZ 0000000180062bf4 f i libucrt:per_thread_data.obj
 0001:00061e88       ?detach@?$__crt_unique_heap_ptr@U__acrt_ptd@@U__crt_internal_free_policy@@@@QEAAPEAU__acrt_ptd@@XZ 0000000180062e88 f i libucrt:per_thread_data.obj
 0001:00061e94       ?get@?$__crt_unique_heap_ptr@U__acrt_ptd@@U__crt_internal_free_policy@@@@QEBAPEAU__acrt_ptd@@XZ 0000000180062e94 f i libucrt:per_thread_data.obj
 0001:00061fe0       ?is_valid@?$__crt_unique_heap_ptr@U__acrt_ptd@@U__crt_internal_free_policy@@@@QEBA_NXZ 0000000180062fe0 f i libucrt:per_thread_data.obj
 0001:00061fec       ?release@?$__crt_unique_heap_ptr@U__acrt_ptd@@U__crt_internal_free_policy@@@@QEAAXXZ 0000000180062fec f i libucrt:per_thread_data.obj
 0001:000620a8       ?value@?$dual_state_global@PEAU__crt_locale_data@@@__crt_state_management@@QEAAAEAPEAU__crt_locale_data@@XZ 00000001800630a8 f i libucrt:per_thread_data.obj
 0001:000620ac       __acrt_freeptd             00000001800630ac f   libucrt:per_thread_data.obj
 0001:00062100       __acrt_getptd              0000000180063100 f   libucrt:per_thread_data.obj
 0001:000621bc       __acrt_getptd_noexit       00000001800631bc f   libucrt:per_thread_data.obj
 0001:00062284       __acrt_initialize_ptd      0000000180063284 f   libucrt:per_thread_data.obj
 0001:000622cc       __acrt_uninitialize_ptd    00000001800632cc f   libucrt:per_thread_data.obj
 0001:000622f8       __threadhandle             00000001800632f8 f   libucrt:per_thread_data.obj
 0001:00062300       __threadid                 0000000180063300 f   libucrt:per_thread_data.obj
 0001:00062308       __acrt_initialize_locks    0000000180063308 f   libucrt:locks.obj
 0001:00062364       __acrt_lock                0000000180063364 f   libucrt:locks.obj
 0001:00062384       __acrt_uninitialize_locks  0000000180063384 f   libucrt:locks.obj
 0001:000623c8       __acrt_unlock              00000001800633c8 f   libucrt:locks.obj
 0001:000623e8       _lock_locales              00000001800633e8 f   libucrt:locks.obj
 0001:000623fc       _unlock_locales            00000001800633fc f   libucrt:locks.obj
 0001:00062468       ??$?B$$A6AHPEA_WK_J@Z@__crt_fast_encoded_nullptr_t@@QEBAP6AHPEA_WK_J@ZXZ 0000000180063468 f i libucrt:winapi_thunks.obj
 0001:0006248c       ??$?RV<lambda_630b2aca97f6d20d5b5ea6529ea6b6af>@@AEAV<lambda_af91936f1d075d609f72d9d8cba980af>@@V<lambda_e82fa975f615b5c7c7b0e4d178fdae67>@@@?$__crt_seh_guarded_call@H@@QEAAH$$QEAV<lambda_630b2aca97f6d20d5b5ea6529ea6b6af>@@AEAV<lambda_af91936f1d075d609f72d9d8cba980af>@@$$QEAV<lambda_e82fa975f615b5c7c7b0e4d178fdae67>@@@Z 000000018006348c f i libucrt:winapi_thunks.obj
 0001:00062548       ??$__acrt_lock_and_call@V<lambda_af91936f1d075d609f72d9d8cba980af>@@@@YAHW4__acrt_lock_id@@$$QEAV<lambda_af91936f1d075d609f72d9d8cba980af>@@@Z 0000000180063548 f i libucrt:winapi_thunks.obj
 0001:00062578       ??$__crt_fast_decode_pointer@P6AHPEA_WK_J@Z@@YAP6AHPEA_WK_J@ZQ6AH0K1@Z@Z 0000000180063578 f i libucrt:winapi_thunks.obj
 0001:00062594       ??$__crt_fast_encode_pointer@P6AHPEA_WK_J@Z@@YAP6AHPEA_WK_J@ZQ6AH0K1@Z@Z 0000000180063594 f i libucrt:winapi_thunks.obj
 0001:000631bc       __acrt_AreFileApisANSI     00000001800641bc f   libucrt:winapi_thunks.obj
 0001:00063218       __acrt_CompareStringEx     0000000180064218 f   libucrt:winapi_thunks.obj
 0001:00063344       __acrt_EnumSystemLocalesEx 0000000180064344 f   libucrt:winapi_thunks.obj
 0001:00063414       __acrt_FlsAlloc            0000000180064414 f   libucrt:winapi_thunks.obj
 0001:00063480       __acrt_FlsFree             0000000180064480 f   libucrt:winapi_thunks.obj
 0001:000634ec       __acrt_FlsGetValue         00000001800644ec f   libucrt:winapi_thunks.obj
 0001:00063558       __acrt_FlsSetValue         0000000180064558 f   libucrt:winapi_thunks.obj
 0001:000635dc       __acrt_GetDateFormatEx     00000001800645dc f   libucrt:winapi_thunks.obj
 0001:000636d8       __acrt_GetEnabledXStateFeatures 00000001800646d8 f   libucrt:winapi_thunks.obj
 0001:00063730       __acrt_GetFileInformationByHandleEx 0000000180064730 f   libucrt:winapi_thunks.obj
 0001:000637e0       __acrt_GetLocaleInfoEx     00000001800647e0 f   libucrt:winapi_thunks.obj
 0001:000638a0       __acrt_GetSystemTimePreciseAsFileTime 00000001800648a0 f   libucrt:winapi_thunks.obj
 0001:00063910       __acrt_GetTimeFormatEx     0000000180064910 f   libucrt:winapi_thunks.obj
 0001:000639fc       __acrt_GetUserDefaultLocaleName 00000001800649fc f   libucrt:winapi_thunks.obj
 0001:00063a8c       __acrt_GetXStateFeaturesMask 0000000180064a8c f   libucrt:winapi_thunks.obj
 0001:00063b0c       __acrt_InitializeCriticalSectionEx 0000000180064b0c f   libucrt:winapi_thunks.obj
 0001:00063ba4       __acrt_IsValidLocaleName   0000000180064ba4 f   libucrt:winapi_thunks.obj
 0001:00063c24       __acrt_LCIDToLocaleName    0000000180064c24 f   libucrt:winapi_thunks.obj
 0001:00063cd4       __acrt_LCMapStringEx       0000000180064cd4 f   libucrt:winapi_thunks.obj
 0001:00063e00       __acrt_LocaleNameToLCID    0000000180064e00 f   libucrt:winapi_thunks.obj
 0001:00063e80       __acrt_LocateXStateFeature 0000000180064e80 f   libucrt:winapi_thunks.obj
 0001:00063f14       __acrt_MessageBoxA         0000000180064f14 f   libucrt:winapi_thunks.obj
 0001:00063fbc       __acrt_MessageBoxW         0000000180064fbc f   libucrt:winapi_thunks.obj
 0001:00064064       __acrt_RoInitialize        0000000180065064 f   libucrt:winapi_thunks.obj
 0001:000640c4       __acrt_RoUninitialize      00000001800650c4 f   libucrt:winapi_thunks.obj
 0001:00064114       __acrt_RtlGenRandom        0000000180065114 f   libucrt:winapi_thunks.obj
 0001:00064194       __acrt_SetThreadStackGuarantee 0000000180065194 f   libucrt:winapi_thunks.obj
 0001:000641f4       __acrt_can_show_message_box 00000001800651f4 f   libucrt:winapi_thunks.obj
 0001:00064268       __acrt_can_use_vista_locale_apis 0000000180065268 f   libucrt:winapi_thunks.obj
 0001:000642a4       __acrt_can_use_xstate_apis 00000001800652a4 f   libucrt:winapi_thunks.obj
 0001:000642e0       __acrt_get_parent_window   00000001800652e0 f   libucrt:winapi_thunks.obj
 0001:00064390       __acrt_initialize_winapi_thunks 0000000180065390 f   libucrt:winapi_thunks.obj
 0001:000643d4       __acrt_is_interactive      00000001800653d4 f   libucrt:winapi_thunks.obj
 0001:000644dc       __acrt_is_packaged_app     00000001800654dc f   libucrt:winapi_thunks.obj
 0001:00064584       __acrt_uninitialize_winapi_thunks 0000000180065584 f   libucrt:winapi_thunks.obj
 0001:000645d8       ??$__crt_fast_decode_pointer@P6AXPEB_W00I_K@Z@@YAP6AXPEB_W00I_K@ZQ6AX000I1@Z@Z 00000001800655d8 f i libucrt:invalid_parameter.obj
 0001:000645f4       ??$__crt_fast_encode_pointer@P6AXPEB_W00I_K@Z@@YAP6AXPEB_W00I_K@ZQ6AX000I1@Z@Z 00000001800655f4 f i libucrt:invalid_parameter.obj
 0001:000646a4       ?initialize@?$dual_state_global@P6AXPEB_W00I_K@Z@__crt_state_management@@QEAAXQ6AXPEB_W00I_K@Z@Z 00000001800656a4 f i libucrt:invalid_parameter.obj
 0001:000646e4       ?value@?$dual_state_global@P6AXPEB_W00I_K@Z@__crt_state_management@@QEAAAEAP6AXPEB_W00I_K@ZXZ 00000001800656e4 f i libucrt:invalid_parameter.obj
 0001:000646e8       __acrt_call_reportfault    00000001800656e8 f   libucrt:invalid_parameter.obj
 0001:0006489c       __acrt_initialize_invalid_parameter_handler 000000018006589c f   libucrt:invalid_parameter.obj
 0001:000648a8       _get_invalid_parameter_handler 00000001800658a8 f   libucrt:invalid_parameter.obj
 0001:000648c4       _get_thread_local_invalid_parameter_handler 00000001800658c4 f   libucrt:invalid_parameter.obj
 0001:000648e4       _invalid_parameter         00000001800658e4 f   libucrt:invalid_parameter.obj
 0001:000649b4       _invalid_parameter_noinfo  00000001800659b4 f   libucrt:invalid_parameter.obj
 0001:000649dc       _invalid_parameter_noinfo_noreturn 00000001800659dc f   libucrt:invalid_parameter.obj
 0001:00064a18       _invoke_watson             0000000180065a18 f   libucrt:invalid_parameter.obj
 0001:00064a70       _set_invalid_parameter_handler 0000000180065a70 f   libucrt:invalid_parameter.obj
 0001:00064ab4       _set_thread_local_invalid_parameter_handler 0000000180065ab4 f   libucrt:invalid_parameter.obj
 0001:00064ae4       __acrt_errno_from_os_error 0000000180065ae4 f   libucrt:errno.obj
 0001:00064b3c       __acrt_errno_map_os_error  0000000180065b3c f   libucrt:errno.obj
 0001:00064ba0       __doserrno                 0000000180065ba0 f   libucrt:errno.obj
 0001:00064bc8       _errno                     0000000180065bc8 f   libucrt:errno.obj
 0001:00064bf0       _get_doserrno              0000000180065bf0 f   libucrt:errno.obj
 0001:00064c3c       _get_errno                 0000000180065c3c f   libucrt:errno.obj
 0001:00064c88       _set_doserrno              0000000180065c88 f   libucrt:errno.obj
 0001:00064cd0       _set_errno                 0000000180065cd0 f   libucrt:errno.obj
 0001:00065970       ??$find_first_file_ex@AEBQEADW4_FINDEX_INFO_LEVELS@@PEAU_WIN32_FIND_DATAA@@W4_FINDEX_SEARCH_OPS@@$$TH@?$__crt_char_traits@D@@SAPEAXAEBQEAD$$QEAW4_FINDEX_INFO_LEVELS@@$$QEAPEAU_WIN32_FIND_DATAA@@$$QEAW4_FINDEX_SEARCH_OPS@@$$QEA$$T$$QEAH@Z 0000000180066970 f i libucrt:argv_wildcards.obj
 0001:000659a8       ??$find_first_file_ex@AEBQEA_WW4_FINDEX_INFO_LEVELS@@PEAU_WIN32_FIND_DATAW@@W4_FINDEX_SEARCH_OPS@@$$TH@?$__crt_char_traits@_W@@SAPEAXAEBQEA_W$$QEAW4_FINDEX_INFO_LEVELS@@$$QEAPEAU_WIN32_FIND_DATAW@@$$QEAW4_FINDEX_SEARCH_OPS@@$$QEA$$T$$QEAH@Z 00000001800669a8 f i libucrt:argv_wildcards.obj
 0001:000659e0       ??$find_next_file@PEAXPEAU_WIN32_FIND_DATAA@@@?$__crt_char_traits@D@@SAH$$QEAPEAX$$QEAPEAU_WIN32_FIND_DATAA@@@Z 00000001800669e0 f i libucrt:argv_wildcards.obj
 0001:000659f0       ??$find_next_file@PEAXPEAU_WIN32_FIND_DATAW@@@?$__crt_char_traits@_W@@SAH$$QEAPEAX$$QEAPEAU_WIN32_FIND_DATAW@@@Z 00000001800669f0 f i libucrt:argv_wildcards.obj
 0001:00065a00       ??$tcslen@AEBQEBD@?$__crt_char_traits@D@@SA_KAEBQEBD@Z 0000000180066a00 f i libucrt:argv_wildcards.obj
 0001:00065a18       ??$tcslen@AEBQEB_W@?$__crt_char_traits@_W@@SA_KAEBQEB_W@Z 0000000180066a18 f i libucrt:argv_wildcards.obj
 0001:00065a30       ??$tcsncpy_s@AEAPEAD_KAEAPEADAEB_K@?$__crt_char_traits@D@@SAHAEAPEAD$$QEA_K0AEB_K@Z 0000000180066a30 f i libucrt:argv_wildcards.obj
 0001:00065a48       ??$tcsncpy_s@AEAPEA_W_KAEAPEA_WAEB_K@?$__crt_char_traits@_W@@SAHAEAPEA_W$$QEA_K0AEB_K@Z 0000000180066a48 f i libucrt:argv_wildcards.obj
 0001:00065a60       ??$tcsncpy_s@PEAD$$CB_KAEBQEBDAEB_K@?$__crt_char_traits@D@@SAH$$QEAPEAD$$QEB_KAEBQEBDAEB_K@Z 0000000180066a60 f i libucrt:argv_wildcards.obj
 0001:00065a78       ??$tcsncpy_s@PEADAEB_KAEBQEBDAEB_K@?$__crt_char_traits@D@@SAH$$QEAPEADAEB_KAEBQEBD1@Z 0000000180066a78 f i libucrt:argv_wildcards.obj
 0001:00065a90       ??$tcsncpy_s@PEA_W$$CB_KAEBQEB_WAEB_K@?$__crt_char_traits@_W@@SAH$$QEAPEA_W$$QEB_KAEBQEB_WAEB_K@Z 0000000180066a90 f i libucrt:argv_wildcards.obj
 0001:00065aa8       ??$tcsncpy_s@PEA_WAEB_KAEBQEB_WAEB_K@?$__crt_char_traits@_W@@SAH$$QEAPEA_WAEB_KAEBQEB_W1@Z 0000000180066aa8 f i libucrt:argv_wildcards.obj
 0001:00065ac0       ??$tcspbrk@AEAPEADAEAY02$$CBD@?$__crt_char_traits@D@@SAPEADAEAPEADAEAY02$$CBD@Z 0000000180066ac0 f i libucrt:argv_wildcards.obj
 0001:00065acc       ??$tcspbrk@AEAPEA_WAEAY02$$CB_W@?$__crt_char_traits@_W@@SAPEA_WAEAPEA_WAEAY02$$CB_W@Z 0000000180066acc f i libucrt:argv_wildcards.obj
 0001:00065ad8       ??0?$__crt_unique_handle_t@U__crt_findfile_traits@@@@QEAA@QEAX@Z 0000000180066ad8 f i libucrt:argv_wildcards.obj
 0001:00065ae0       ??0?$argument_list@D@?A0xca0879c4@@QEAA@XZ 0000000180066ae0 f i libucrt:argv_wildcards.obj
 0001:00065af8       ??0?$argument_list@_W@?A0xca0879c4@@QEAA@XZ 0000000180066af8 f i libucrt:argv_wildcards.obj
 0001:00065b10       ??1?$__crt_unique_handle_t@U__crt_findfile_traits@@@@QEAA@XZ 0000000180066b10 f i libucrt:argv_wildcards.obj
 0001:00065b3c       ??1?$argument_list@D@?A0xca0879c4@@QEAA@XZ 0000000180066b3c f i libucrt:argv_wildcards.obj
 0001:00065b84       ??1?$argument_list@_W@?A0xca0879c4@@QEAA@XZ 0000000180066b84 f i libucrt:argv_wildcards.obj
 0001:00065c3c       ?append@?$argument_list@D@?A0xca0879c4@@QEAAHQEAD@Z 0000000180066c3c f i libucrt:argv_wildcards.obj
 0001:00065c98       ?append@?$argument_list@_W@?A0xca0879c4@@QEAAHQEA_W@Z 0000000180066c98 f i libucrt:argv_wildcards.obj
 0001:00065cf4       ?begin@?$argument_list@D@?A0xca0879c4@@QEBAPEAPEADXZ 0000000180066cf4 f i libucrt:argv_wildcards.obj
 0001:00065cf8       ?begin@?$argument_list@_W@?A0xca0879c4@@QEBAPEAPEA_WXZ 0000000180066cf8 f i libucrt:argv_wildcards.obj
 0001:00065cfc       ?close@?$__crt_unique_handle_t@U__crt_findfile_traits@@@@QEAAXXZ 0000000180066cfc f i libucrt:argv_wildcards.obj
 0001:00065d28       ?close@__crt_findfile_traits@@SA_NPEAX@Z 0000000180066d28 f i libucrt:argv_wildcards.obj
 0001:00065d44       ?end@?$argument_list@D@?A0xca0879c4@@QEBAPEAPEADXZ 0000000180066d44 f i libucrt:argv_wildcards.obj
 0001:00065d4c       ?end@?$argument_list@_W@?A0xca0879c4@@QEBAPEAPEA_WXZ 0000000180066d4c f i libucrt:argv_wildcards.obj
 0001:00065d54       ?expand_if_necessary@?$argument_list@D@?A0xca0879c4@@AEAAHXZ 0000000180066d54 f i libucrt:argv_wildcards.obj
 0001:00065e4c       ?expand_if_necessary@?$argument_list@_W@?A0xca0879c4@@AEAAHXZ 0000000180066e4c f i libucrt:argv_wildcards.obj
 0001:00065f44       ?get@?$__crt_unique_handle_t@U__crt_findfile_traits@@@@QEBAPEAXXZ 0000000180066f44 f i libucrt:argv_wildcards.obj
 0001:00065f48       ?get_invalid_value@__crt_findfile_traits@@SAPEAXXZ 0000000180066f48 f i libucrt:argv_wildcards.obj
 0001:00065f60       ?size@?$argument_list@D@?A0xca0879c4@@QEBA_KXZ 0000000180066f60 f i libucrt:argv_wildcards.obj
 0001:00065f70       ?size@?$argument_list@_W@?A0xca0879c4@@QEBA_KXZ 0000000180066f70 f i libucrt:argv_wildcards.obj
 0001:00065f80       ?strpbrk@@YAPEADQEADQEBD@Z 0000000180066f80 f i libucrt:argv_wildcards.obj
 0001:00065f88       ?wcspbrk@@YAPEA_WPEA_WPEB_W@Z 0000000180066f88 f i libucrt:argv_wildcards.obj
 0001:00065f90       __acrt_expand_narrow_argv_wildcards 0000000180066f90 f   libucrt:argv_wildcards.obj
 0001:00065f98       __acrt_expand_wide_argv_wildcards 0000000180066f98 f   libucrt:argv_wildcards.obj
 0001:00065fa0       ??$?RU__crt_multibyte_data@@@__crt_internal_free_policy@@QEBAXQEBU__crt_multibyte_data@@@Z 0000000180066fa0 f i libucrt:mbctype.obj
 0001:00065fac       ??$?RV<lambda_99476a1ad63dd22509b5d3e65b0ffc95>@@AEAV<lambda_ad1ced32f4ac17aa236e5ef05d6b3b7c>@@V<lambda_f7424dd8d45958661754dc4f2697e9c3>@@@?$__crt_seh_guarded_call@X@@QEAAX$$QEAV<lambda_99476a1ad63dd22509b5d3e65b0ffc95>@@AEAV<lambda_ad1ced32f4ac17aa236e5ef05d6b3b7c>@@$$QEAV<lambda_f7424dd8d45958661754dc4f2697e9c3>@@@Z 0000000180066fac f i libucrt:mbctype.obj
 0001:00065ff4       ??$__acrt_lock_and_call@V<lambda_ad1ced32f4ac17aa236e5ef05d6b3b7c>@@@@YAXW4__acrt_lock_id@@$$QEAV<lambda_ad1ced32f4ac17aa236e5ef05d6b3b7c>@@@Z 0000000180066ff4 f i libucrt:mbctype.obj
 0001:00066044       ??0?$__crt_unique_heap_ptr@U__crt_multibyte_data@@U__crt_internal_free_policy@@@@QEAA@QEAU__crt_multibyte_data@@@Z 0000000180067044 f i libucrt:mbctype.obj
 0001:0006604c       ??1?$__crt_unique_heap_ptr@U__crt_multibyte_data@@U__crt_internal_free_policy@@@@QEAA@XZ 000000018006704c f i libucrt:mbctype.obj
 0001:00066070       ??B?$__crt_unique_heap_ptr@U__crt_multibyte_data@@U__crt_internal_free_policy@@@@QEBA_NXZ 0000000180067070 f i libucrt:mbctype.obj
 0001:00066370       ?detach@?$__crt_unique_heap_ptr@U__crt_multibyte_data@@U__crt_internal_free_policy@@@@QEAAPEAU__crt_multibyte_data@@XZ 0000000180067370 f i libucrt:mbctype.obj
 0001:0006637c       ?get@?$__crt_unique_heap_ptr@U__crt_multibyte_data@@U__crt_internal_free_policy@@@@QEBAPEAU__crt_multibyte_data@@XZ 000000018006737c f i libucrt:mbctype.obj
 0001:0006641c       ?is_valid@?$__crt_unique_heap_ptr@U__crt_multibyte_data@@U__crt_internal_free_policy@@@@QEBA_NXZ 000000018006741c f i libucrt:mbctype.obj
 0001:00066428       ?release@?$__crt_unique_heap_ptr@U__crt_multibyte_data@@U__crt_internal_free_policy@@@@QEAAXXZ 0000000180067428 f i libucrt:mbctype.obj
 0001:00066980       __acrt_initialize_multibyte 0000000180067980 f   libucrt:mbctype.obj
 0001:000669b0       __acrt_update_thread_multibyte_data 00000001800679b0 f   libucrt:mbctype.obj
 0001:00066aa0       __p__mbcasemap             0000000180067aa0 f   libucrt:mbctype.obj
 0001:00066aac       __p__mbctype               0000000180067aac f   libucrt:mbctype.obj
 0001:00066ab8       _getmbcp                   0000000180067ab8 f   libucrt:mbctype.obj
 0001:00066b00       _setmbcp                   0000000180067b00 f   libucrt:mbctype.obj
 0001:00066b08       _setmbcp_nolock            0000000180067b08 f   libucrt:mbctype.obj
 0001:00066f94       _ismbbalnum                0000000180067f94 f   libucrt:ismbbyte.obj
 0001:00066fb0       _ismbbalnum_l              0000000180067fb0 f   libucrt:ismbbyte.obj
 0001:00066fd0       _ismbbalpha                0000000180067fd0 f   libucrt:ismbbyte.obj
 0001:00066fec       _ismbbalpha_l              0000000180067fec f   libucrt:ismbbyte.obj
 0001:0006700c       _ismbbblank                000000018006800c f   libucrt:ismbbyte.obj
 0001:00067030       _ismbbblank_l              0000000180068030 f   libucrt:ismbbyte.obj
 0001:00067058       _ismbbgraph                0000000180068058 f   libucrt:ismbbyte.obj
 0001:00067074       _ismbbgraph_l              0000000180068074 f   libucrt:ismbbyte.obj
 0001:00067094       _ismbbkalnum               0000000180068094 f   libucrt:ismbbyte.obj
 0001:000670ac       _ismbbkalnum_l             00000001800680ac f   libucrt:ismbbyte.obj
 0001:000670c8       _ismbbkana                 00000001800680c8 f   libucrt:ismbbyte.obj
 0001:000670d0       _ismbbkana_l               00000001800680d0 f   libucrt:ismbbyte.obj
 0001:00067150       _ismbbkprint               0000000180068150 f   libucrt:ismbbyte.obj
 0001:00067168       _ismbbkprint_l             0000000180068168 f   libucrt:ismbbyte.obj
 0001:00067184       _ismbbkpunct               0000000180068184 f   libucrt:ismbbyte.obj
 0001:0006719c       _ismbbkpunct_l             000000018006819c f   libucrt:ismbbyte.obj
 0001:000671b8       _ismbblead                 00000001800681b8 f   libucrt:ismbbyte.obj
 0001:000671d0       _ismbblead_l               00000001800681d0 f   libucrt:ismbbyte.obj
 0001:000671ec       _ismbbprint                00000001800681ec f   libucrt:ismbbyte.obj
 0001:00067208       _ismbbprint_l              0000000180068208 f   libucrt:ismbbyte.obj
 0001:00067228       _ismbbpunct                0000000180068228 f   libucrt:ismbbyte.obj
 0001:00067240       _ismbbpunct_l              0000000180068240 f   libucrt:ismbbyte.obj
 0001:0006725c       _ismbbtrail                000000018006825c f   libucrt:ismbbyte.obj
 0001:00067274       _ismbbtrail_l              0000000180068274 f   libucrt:ismbbyte.obj
 0001:00067290       __acrt_initialize_command_line 0000000180068290 f   libucrt:argv_data.obj
 0001:000672c0       __acrt_uninitialize_command_line 00000001800682c0 f   libucrt:argv_data.obj
 0001:000672c4       __p___argc                 00000001800682c4 f   libucrt:argv_data.obj
 0001:000672d0       __p___argv                 00000001800682d0 f   libucrt:argv_data.obj
 0001:000672dc       __p___wargv                00000001800682dc f   libucrt:argv_data.obj
 0001:000672e8       __p__acmdln                00000001800682e8 f   libucrt:argv_data.obj
 0001:000672f4       __p__pgmptr                00000001800682f4 f   libucrt:argv_data.obj
 0001:00067300       __p__wcmdln                0000000180068300 f   libucrt:argv_data.obj
 0001:0006730c       __p__wpgmptr               000000018006830c f   libucrt:argv_data.obj
 0001:00067318       _get_pgmptr                0000000180068318 f   libucrt:argv_data.obj
 0001:0006735c       _get_wpgmptr               000000018006835c f   libucrt:argv_data.obj
 0001:00067428       wcscpy_s                   0000000180068428 f   libucrt:wcscpy_s.obj
 0001:000674a8       ??0?$__crt_unique_handle_t@Uenvironment_strings_traits@?A0x17d69fb8@@@@QEAA@QEA_W@Z 00000001800684a8 f i libucrt:get_environment_from_os.obj
 0001:000674b0       ??1?$__crt_unique_handle_t@Uenvironment_strings_traits@?A0x17d69fb8@@@@QEAA@XZ 00000001800684b0 f i libucrt:get_environment_from_os.obj
 0001:000674dc       ??B?$__crt_unique_handle_t@Uenvironment_strings_traits@?A0x17d69fb8@@@@QEBA_NXZ 00000001800684dc f i libucrt:get_environment_from_os.obj
 0001:000674e8       ?close@?$__crt_unique_handle_t@Uenvironment_strings_traits@?A0x17d69fb8@@@@QEAAXXZ 00000001800684e8 f i libucrt:get_environment_from_os.obj
 0001:00067514       ?close@environment_strings_traits@?A0x17d69fb8@@SA_NPEA_W@Z 0000000180068514 f i libucrt:get_environment_from_os.obj
 0001:00067558       ?get@?$__crt_unique_handle_t@Uenvironment_strings_traits@?A0x17d69fb8@@@@QEBAPEA_WXZ 0000000180068558 f i libucrt:get_environment_from_os.obj
 0001:0006755c       ?get_invalid_value@environment_strings_traits@?A0x17d69fb8@@SAPEA_WXZ 000000018006855c f i libucrt:get_environment_from_os.obj
 0001:00067560       ?is_valid@?$__crt_unique_handle_t@Uenvironment_strings_traits@?A0x17d69fb8@@@@QEBA_NXZ 0000000180068560 f i libucrt:get_environment_from_os.obj
 0001:0006756c       __dcrt_get_narrow_environment_from_os 000000018006856c f   libucrt:get_environment_from_os.obj
 0001:000676b0       __dcrt_get_wide_environment_from_os 00000001800686b0 f   libucrt:get_environment_from_os.obj
 0001:00068264       ??$get_or_create_environment_nolock@$$$V@?$__crt_char_traits@D@@SAPEAPEADXZ 0000000180069264 f i libucrt:setenv.obj
 0001:0006826c       ??$get_or_create_environment_nolock@$$$V@?$__crt_char_traits@_W@@SAPEAPEA_WXZ 000000018006926c f i libucrt:setenv.obj
 0001:00068274       ??$set_environment_variable@AEBQEADQEAD@?$__crt_char_traits@D@@SAHAEBQEAD$$QEBQEAD@Z 0000000180069274 f i libucrt:setenv.obj
 0001:00068284       ??$set_environment_variable@AEBQEA_WQEA_W@?$__crt_char_traits@_W@@SAHAEBQEA_W$$QEBQEA_W@Z 0000000180069284 f i libucrt:setenv.obj
 0001:00068294       ??$tcschr@AEBQEADD@?$__crt_char_traits@D@@SAPEADAEBQEAD$$QEAD@Z 0000000180069294 f i libucrt:setenv.obj
 0001:000682a4       ??$tcschr@AEBQEA_WD@?$__crt_char_traits@_W@@SAPEA_WAEBQEA_W$$QEAD@Z 00000001800692a4 f i libucrt:setenv.obj
 0001:000682b4       ??$tcscpy_s@AEAPEADAEB_KAEAPEAD@?$__crt_char_traits@D@@SAHAEAPEADAEB_K0@Z 00000001800692b4 f i libucrt:setenv.obj
 0001:000682c8       ??$tcscpy_s@AEAPEA_WAEB_KAEAPEA_W@?$__crt_char_traits@_W@@SAHAEAPEA_WAEB_K0@Z 00000001800692c8 f i libucrt:setenv.obj
 0001:000682dc       ??$tcscpy_s@AEBQEADAEB_KAEBQEAD@?$__crt_char_traits@D@@SAHAEBQEADAEB_K0@Z 00000001800692dc f i libucrt:setenv.obj
 0001:000682f0       ??$tcscpy_s@AEBQEA_WAEB_KAEBQEA_W@?$__crt_char_traits@_W@@SAHAEBQEA_WAEB_K0@Z 00000001800692f0 f i libucrt:setenv.obj
 0001:00068304       ??$tcslen@AEBQEAD@?$__crt_char_traits@D@@SA_KAEBQEAD@Z 0000000180069304 f i libucrt:setenv.obj
 0001:0006831c       ??$tcslen@AEBQEA_W@?$__crt_char_traits@_W@@SA_KAEBQEA_W@Z 000000018006931c f i libucrt:setenv.obj
 0001:00068334       ??$tcsnicoll@AEBQEBDAEAPEADAEB_K@?$__crt_char_traits@D@@SAHAEBQEBDAEAPEADAEB_K@Z 0000000180069334 f i libucrt:setenv.obj
 0001:00068348       ??$tcsnicoll@AEBQEB_WAEAPEA_WAEB_K@?$__crt_char_traits@_W@@SAHAEBQEB_WAEAPEA_WAEB_K@Z 0000000180069348 f i libucrt:setenv.obj
 0001:000683a4       ?strchr@@YAPEADQEADH@Z     00000001800693a4 f i libucrt:setenv.obj
 0001:000683ac       ?wcschr@@YAPEA_WPEA_W_W@Z  00000001800693ac f i libucrt:setenv.obj
 0001:000683b4       __dcrt_set_variable_in_narrow_environment_nolock 00000001800693b4 f   libucrt:setenv.obj
 0001:000683bc       __dcrt_set_variable_in_wide_environment_nolock 00000001800693bc f   libucrt:setenv.obj
 0001:000683c4       _recalloc                  00000001800693c4 f   libucrt:recalloc.obj
 0001:000683cc       _recalloc_base             00000001800693cc f   libucrt:recalloc.obj
 0001:00068488       __acrt_getheap             0000000180069488 f   libucrt:heap_handle.obj
 0001:00068494       __acrt_initialize_heap     0000000180069494 f   libucrt:heap_handle.obj
 0001:000684b8       __acrt_uninitialize_heap   00000001800694b8 f   libucrt:heap_handle.obj
 0001:000684c8       _get_heap_handle           00000001800694c8 f   libucrt:heap_handle.obj
 0001:0006875c       __acrt_initialize_lowio    000000018006975c f   libucrt:ioinit.obj
 0001:000687a8       __acrt_uninitialize_lowio  00000001800697a8 f   libucrt:ioinit.obj
 0001:000687f8       __acrt_execute_initializers 00000001800697f8 f   libucrt:shared_initialization.obj
 0001:000688b4       __acrt_execute_uninitializers 00000001800698b4 f   libucrt:shared_initialization.obj
 0001:00068918       ??$?B$$A6AH_K@Z@__crt_fast_encoded_nullptr_t@@QEBAP6AH_K@ZXZ 0000000180069918 f i libucrt:new_handler.obj
 0001:0006893c       ??$__crt_fast_decode_pointer@P6AH_K@Z@@YAP6AH_K@ZQ6AH0@Z@Z 000000018006993c f i libucrt:new_handler.obj
 0001:00068958       ??$__crt_fast_encode_pointer@P6AH_K@Z@@YAP6AH_K@ZQ6AH0@Z@Z 0000000180069958 f i libucrt:new_handler.obj
 0001:00068980       ?_set_new_handler@@YAP6AH_K@ZH@Z 0000000180069980 f   libucrt:new_handler.obj
 0001:000689ac       ?initialize@?$dual_state_global@P6AH_K@Z@__crt_state_management@@QEAAXQ6AH_K@Z@Z 00000001800699ac f i libucrt:new_handler.obj
 0001:000689ec       ?value@?$dual_state_global@P6AH_K@Z@__crt_state_management@@QEAAAEAP6AH_K@ZXZ 00000001800699ec f i libucrt:new_handler.obj
 0001:000689f0       __acrt_initialize_new_handler 00000001800699f0 f   libucrt:new_handler.obj
 0001:000689fc       _callnewh                  00000001800699fc f   libucrt:new_handler.obj
 0001:00068a4c       _query_new_handler         0000000180069a4c f   libucrt:new_handler.obj
 0001:00068a90       _set_new_handler           0000000180069a90 f   libucrt:new_handler.obj
 0001:00068b00       ??$?B$$A6AXH@Z@__crt_fast_encoded_nullptr_t@@QEBAP6AXH@ZXZ 0000000180069b00 f i libucrt:signal.obj
 0001:00068b24       ??$?RV<lambda_c36588078e9f5dfd39652860aa6b3aaf>@@AEAV<lambda_ec61778202f4f5fc7e7711acc23c3bca>@@V<lambda_dc9d2797ccde5d239b4a0efae8ebd7db>@@@?$__crt_seh_guarded_call@P6AXH@Z@@QEAAP6AXH@Z$$QEAV<lambda_c36588078e9f5dfd39652860aa6b3aaf>@@AEAV<lambda_ec61778202f4f5fc7e7711acc23c3bca>@@$$QEAV<lambda_dc9d2797ccde5d239b4a0efae8ebd7db>@@@Z 0000000180069b24 f i libucrt:signal.obj
 0001:00068b7c       ??$__acrt_lock_and_call@V<lambda_ec61778202f4f5fc7e7711acc23c3bca>@@@@YAP6AXH@ZW4__acrt_lock_id@@$$QEAV<lambda_ec61778202f4f5fc7e7711acc23c3bca>@@@Z 0000000180069b7c f i libucrt:signal.obj
 0001:00068bac       ??$__crt_fast_decode_pointer@P6AXH@Z@@YAP6AXH@ZQ6AXH@Z@Z 0000000180069bac f i libucrt:signal.obj
 0001:00068bc8       ??$__crt_fast_encode_pointer@P6AXH@Z@@YAP6AXH@ZQ6AXH@Z@Z 0000000180069bc8 f i libucrt:signal.obj
 0001:00068d50       ?initialize@?$dual_state_global@P6AXH@Z@__crt_state_management@@QEAAXQ6AXH@Z@Z 0000000180069d50 f i libucrt:signal.obj
 0001:00068df0       ?value@?$dual_state_global@P6AXH@Z@__crt_state_management@@QEAAAEAP6AXH@ZXZ 0000000180069df0 f i libucrt:signal.obj
 0001:00068df4       __acrt_get_sigabrt_handler 0000000180069df4 f   libucrt:signal.obj
 0001:00068e30       __acrt_initialize_signal_handlers 0000000180069e30 f   libucrt:signal.obj
 0001:00068e54       __fpecode                  0000000180069e54 f   libucrt:signal.obj
 0001:00068e6c       __pxcptinfoptrs            0000000180069e6c f   libucrt:signal.obj
 0001:00068e84       raise                      0000000180069e84 f   libucrt:signal.obj
 0001:000691c4       signal                     000000018006a1c4 f   libucrt:signal.obj
 0001:00069428       ??$__crt_fast_decode_pointer@P6AHPEAU_exception@@@Z@@YAP6AHPEAU_exception@@@ZQ6AH0@Z@Z 000000018006a428 f i libucrt:matherr.obj
 0001:00069444       ??$__crt_fast_encode_pointer@P6AHPEAU_exception@@@Z@@YAP6AHPEAU_exception@@@ZQ6AH0@Z@Z 000000018006a444 f i libucrt:matherr.obj
 0001:0006946c       ?initialize@?$dual_state_global@P6AHPEAU_exception@@@Z@__crt_state_management@@QEAAXQ6AHPEAU_exception@@@Z@Z 000000018006a46c f i libucrt:matherr.obj
 0001:000694ac       ?value@?$dual_state_global@P6AHPEAU_exception@@@Z@__crt_state_management@@QEAAAEAP6AHPEAU_exception@@@ZXZ 000000018006a4ac f i libucrt:matherr.obj
 0001:000694b0       __acrt_has_user_matherr    000000018006a4b0 f   libucrt:matherr.obj
 0001:000694d4       __acrt_initialize_user_matherr 000000018006a4d4 f   libucrt:matherr.obj
 0001:000694e0       __acrt_invoke_user_matherr 000000018006a4e0 f   libucrt:matherr.obj
 0001:00069538       __setusermatherr           000000018006a538 f   libucrt:matherr.obj
 0001:00069568       __p___mb_cur_max           000000018006a568 f   libucrt:nlsdata.obj
 0001:000695a4       ?has_any_buffer@__crt_stdio_stream@@QEBA_NXZ 000000018006a5a4 f i libucrt:_sftbuf.obj
 0001:000695b8       ?has_any_of@__crt_stdio_stream@@QEBA_NJ@Z 000000018006a5b8 f i libucrt:_sftbuf.obj
 0001:000695c8       ?has_temporary_buffer@__crt_stdio_stream@@QEBA_NXZ 000000018006a5c8 f i libucrt:_sftbuf.obj
 0001:000695d8       ?set_flags@__crt_stdio_stream@@QEBA_NJ@Z 000000018006a5d8 f i libucrt:_sftbuf.obj
 0001:00069600       ?unset_flags@__crt_stdio_stream@@QEBA_NJ@Z 000000018006a600 f i libucrt:_sftbuf.obj
 0001:00069630       __acrt_stdio_begin_temporary_buffering_nolock 000000018006a630 f   libucrt:_sftbuf.obj
 0001:00069734       __acrt_stdio_end_temporary_buffering_nolock 000000018006a734 f   libucrt:_sftbuf.obj
 0001:0006977c       ?value@?$dual_state_global@J@__crt_state_management@@QEAAAEAJXZ 000000018006a77c f i libucrt:new_mode.obj
 0001:00069780       _query_new_mode            000000018006a780 f   libucrt:new_mode.obj
 0001:00069788       _set_new_mode              000000018006a788 f   libucrt:new_mode.obj
 0001:000697d8       __isascii                  000000018006a7d8 f i libucrt:_ctype.obj
 0001:000697e8       __iscsym                   000000018006a7e8 f i libucrt:_ctype.obj
 0001:0006981c       __iscsymf                  000000018006a81c f i libucrt:_ctype.obj
 0001:0006984c       __toascii                  000000018006a84c f i libucrt:_ctype.obj
 0001:00069854       _isalnum_l                 000000018006a854 f i libucrt:_ctype.obj
 0001:000698c8       _isalpha_l                 000000018006a8c8 f i libucrt:_ctype.obj
 0001:0006993c       _isblank_l                 000000018006a93c f i libucrt:_ctype.obj
 0001:000699bc       _iscntrl_l                 000000018006a9bc f i libucrt:_ctype.obj
 0001:00069a2c       _iscsym_l                  000000018006aa2c f i libucrt:_ctype.obj
 0001:00069ab0       _iscsymf_l                 000000018006aab0 f i libucrt:_ctype.obj
 0001:00069b34       _isdigit_l                 000000018006ab34 f i libucrt:_ctype.obj
 0001:00069ba4       _isgraph_l                 000000018006aba4 f i libucrt:_ctype.obj
 0001:00069c18       _islower_l                 000000018006ac18 f i libucrt:_ctype.obj
 0001:00069c88       _isprint_l                 000000018006ac88 f i libucrt:_ctype.obj
 0001:00069cfc       _ispunct_l                 000000018006acfc f i libucrt:_ctype.obj
 0001:00069d6c       _isspace_l                 000000018006ad6c f i libucrt:_ctype.obj
 0001:00069ddc       _isupper_l                 000000018006addc f i libucrt:_ctype.obj
 0001:00069e4c       _isxdigit_l                000000018006ae4c f i libucrt:_ctype.obj
 0001:00069ec0       isalnum                    000000018006aec0 f i libucrt:_ctype.obj
 0001:00069f58       isalpha                    000000018006af58 f i libucrt:_ctype.obj
 0001:00069ff0       isblank                    000000018006aff0 f i libucrt:_ctype.obj
 0001:0006a0a0       iscntrl                    000000018006b0a0 f i libucrt:_ctype.obj
 0001:0006a134       isdigit                    000000018006b134 f i libucrt:_ctype.obj
 0001:0006a1c8       isgraph                    000000018006b1c8 f i libucrt:_ctype.obj
 0001:0006a260       islower                    000000018006b260 f i libucrt:_ctype.obj
 0001:0006a2f4       isprint                    000000018006b2f4 f i libucrt:_ctype.obj
 0001:0006a38c       ispunct                    000000018006b38c f i libucrt:_ctype.obj
 0001:0006a420       isspace                    000000018006b420 f i libucrt:_ctype.obj
 0001:0006a4b4       isupper                    000000018006b4b4 f i libucrt:_ctype.obj
 0001:0006a548       isxdigit                   000000018006b548 f i libucrt:_ctype.obj
 0001:0006a9e8       _tolower                   000000018006b9e8 f   libucrt:tolower_toupper.obj
 0001:0006a9ec       _tolower_l                 000000018006b9ec f   libucrt:tolower_toupper.obj
 0001:0006ab7c       _toupper                   000000018006bb7c f   libucrt:tolower_toupper.obj
 0001:0006ab80       _toupper_l                 000000018006bb80 f   libucrt:tolower_toupper.obj
 0001:0006ad10       tolower                    000000018006bd10 f   libucrt:tolower_toupper.obj
 0001:0006ad48       toupper                    000000018006bd48 f   libucrt:tolower_toupper.obj
 0001:0006ad80       ??$make_c_string_character_source@DPEAPEAD@__crt_strtox@@YA?AV?$c_string_character_source@D@0@QEBDQEAPEAD@Z 000000018006bd80 f i libucrt:strtox.obj
 0001:0006ad98       ??$make_c_string_character_source@_WPEAPEA_W@__crt_strtox@@YA?AV?$c_string_character_source@_W@0@QEB_WQEAPEA_W@Z 000000018006bd98 f i libucrt:strtox.obj
 0001:0006adb0       ??$parse_integer_from_string@JDPEAPEAD@__crt_strtox@@YAJQEBDQEAPEADHQEAU__crt_locale_pointers@@@Z 000000018006bdb0 f i libucrt:strtox.obj
 0001:0006adfc       ??$parse_integer_from_string@J_WPEAPEA_W@__crt_strtox@@YAJQEB_WQEAPEA_WHQEAU__crt_locale_pointers@@@Z 000000018006bdfc f i libucrt:strtox.obj
 0001:0006ae48       ??$parse_integer_from_string@KDPEAPEAD@__crt_strtox@@YAKQEBDQEAPEADHQEAU__crt_locale_pointers@@@Z 000000018006be48 f i libucrt:strtox.obj
 0001:0006ae94       ??$parse_integer_from_string@K_WPEAPEA_W@__crt_strtox@@YAKQEB_WQEAPEA_WHQEAU__crt_locale_pointers@@@Z 000000018006be94 f i libucrt:strtox.obj
 0001:0006aee0       ??$parse_integer_from_string@_JDPEAPEAD@__crt_strtox@@YA_JQEBDQEAPEADHQEAU__crt_locale_pointers@@@Z 000000018006bee0 f i libucrt:strtox.obj
 0001:0006af2c       ??$parse_integer_from_string@_J_WPEAPEA_W@__crt_strtox@@YA_JQEB_WQEAPEA_WHQEAU__crt_locale_pointers@@@Z 000000018006bf2c f i libucrt:strtox.obj
 0001:0006af78       ??$parse_integer_from_string@_KDPEAPEAD@__crt_strtox@@YA_KQEBDQEAPEADHQEAU__crt_locale_pointers@@@Z 000000018006bf78 f i libucrt:strtox.obj
 0001:0006afc4       ??$parse_integer_from_string@_K_WPEAPEA_W@__crt_strtox@@YA_KQEB_WQEAPEA_WHQEAU__crt_locale_pointers@@@Z 000000018006bfc4 f i libucrt:strtox.obj
 0001:0006b010       _strtoi64                  000000018006c010 f   libucrt:strtox.obj
 0001:0006b04c       _strtoi64_l                000000018006c04c f   libucrt:strtox.obj
 0001:0006b098       _strtoimax_l               000000018006c098 f   libucrt:strtox.obj
 0001:0006b0e4       _strtol_l                  000000018006c0e4 f   libucrt:strtox.obj
 0001:0006b130       _strtoll_l                 000000018006c130 f   libucrt:strtox.obj
 0001:0006b17c       _strtoui64                 000000018006c17c f   libucrt:strtox.obj
 0001:0006b1b8       _strtoui64_l               000000018006c1b8 f   libucrt:strtox.obj
 0001:0006b204       _strtoul_l                 000000018006c204 f   libucrt:strtox.obj
 0001:0006b250       _strtoull_l                000000018006c250 f   libucrt:strtox.obj
 0001:0006b29c       _strtoumax_l               000000018006c29c f   libucrt:strtox.obj
 0001:0006b2e8       _wcstoi64                  000000018006c2e8 f   libucrt:strtox.obj
 0001:0006b324       _wcstoi64_l                000000018006c324 f   libucrt:strtox.obj
 0001:0006b370       _wcstoimax_l               000000018006c370 f   libucrt:strtox.obj
 0001:0006b3bc       _wcstol_l                  000000018006c3bc f   libucrt:strtox.obj
 0001:0006b408       _wcstoll_l                 000000018006c408 f   libucrt:strtox.obj
 0001:0006b454       _wcstoui64                 000000018006c454 f   libucrt:strtox.obj
 0001:0006b490       _wcstoui64_l               000000018006c490 f   libucrt:strtox.obj
 0001:0006b4dc       _wcstoul_l                 000000018006c4dc f   libucrt:strtox.obj
 0001:0006b528       _wcstoull_l                000000018006c528 f   libucrt:strtox.obj
 0001:0006b574       _wcstoumax_l               000000018006c574 f   libucrt:strtox.obj
 0001:0006b5c0       strtoimax                  000000018006c5c0 f   libucrt:strtox.obj
 0001:0006b5fc       strtol                     000000018006c5fc f   libucrt:strtox.obj
 0001:0006b638       strtoll                    000000018006c638 f   libucrt:strtox.obj
 0001:0006b674       strtoul                    000000018006c674 f   libucrt:strtox.obj
 0001:0006b6b0       strtoull                   000000018006c6b0 f   libucrt:strtox.obj
 0001:0006b6ec       strtoumax                  000000018006c6ec f   libucrt:strtox.obj
 0001:0006b728       wcstoimax                  000000018006c728 f   libucrt:strtox.obj
 0001:0006b764       wcstol                     000000018006c764 f   libucrt:strtox.obj
 0001:0006b7a0       wcstoll                    000000018006c7a0 f   libucrt:strtox.obj
 0001:0006b7dc       wcstoul                    000000018006c7dc f   libucrt:strtox.obj
 0001:0006b818       wcstoull                   000000018006c818 f   libucrt:strtox.obj
 0001:0006b854       wcstoumax                  000000018006c854 f   libucrt:strtox.obj
 0001:0006b890       _mbtowc_l                  000000018006c890 f   libucrt:mbtowc.obj
 0001:0006ba2c       mbtowc                     000000018006ca2c f   libucrt:mbtowc.obj
 0001:0006ba38       _wctomb_l                  000000018006ca38 f   libucrt:wctomb.obj
 0001:0006bac8       _wctomb_s_l                000000018006cac8 f   libucrt:wctomb.obj
 0001:0006bcb0       wctomb                     000000018006ccb0 f   libucrt:wctomb.obj
 0001:0006bd10       wctomb_s                   000000018006cd10 f   libucrt:wctomb.obj
 0001:0006c544       ??1?$__crt_simd_cleanup_guard@$00@@QEAA@XZ 000000018006d544 f i libucrt:strnlen.obj
 0001:0006c548       ??1?$__crt_simd_cleanup_guard@$0A@@@QEAA@XZ 000000018006d548 f i libucrt:strnlen.obj
 0001:0006c54c       ?compare_equals@?$__crt_simd_traits@$00E@@SA?AT__m256i@@T2@0@Z 000000018006d54c f i libucrt:strnlen.obj
 0001:0006c570       ?compare_equals@?$__crt_simd_traits@$00G@@SA?AT__m256i@@T2@0@Z 000000018006d570 f i libucrt:strnlen.obj
 0001:0006c594       ?compare_equals@?$__crt_simd_traits@$0A@E@@SA?AT__m128i@@T2@0@Z 000000018006d594 f i libucrt:strnlen.obj
 0001:0006c5a0       ?compare_equals@?$__crt_simd_traits@$0A@G@@SA?AT__m128i@@T2@0@Z 000000018006d5a0 f i libucrt:strnlen.obj
 0001:0006c5ac       ?compute_byte_mask@?$__crt_simd_pack_traits@$00@@SAHT__m256i@@@Z 000000018006d5ac f i libucrt:strnlen.obj
 0001:0006c5b8       ?compute_byte_mask@?$__crt_simd_pack_traits@$0A@@@SAHT__m128i@@@Z 000000018006d5b8 f i libucrt:strnlen.obj
 0001:0006c5c4       ?get_zero_pack@?$__crt_simd_pack_traits@$00@@SA?AT__m256i@@XZ 000000018006d5c4 f i libucrt:strnlen.obj
 0001:0006c5e4       ?get_zero_pack@?$__crt_simd_pack_traits@$0A@@@SA?AT__m128i@@XZ 000000018006d5e4 f i libucrt:strnlen.obj
 0001:0006c5e8       strnlen                    000000018006d5e8 f   libucrt:strnlen.obj
 0001:0006c798       wcsnlen                    000000018006d798 f   libucrt:strnlen.obj
 0001:0006ca04       __acrt_update_locale_info  000000018006da04 f   libucrt:locale_update.obj
 0001:0006ca44       __acrt_update_multibyte_info 000000018006da44 f   libucrt:locale_update.obj
 0001:0006ca84       ?__acrt_fp_classify@@YA?AW4__acrt_fp_class@@AEBN@Z 000000018006da84 f i libucrt:cvt.obj
 0001:0006cb04       ?__acrt_fp_is_negative@@YA_NAEBN@Z 000000018006db04 f i libucrt:cvt.obj
 0001:0006d85c       ?strrchr@@YAPEADQEADH@Z    000000018006e85c f i libucrt:cvt.obj
 0001:0006d864       __acrt_fp_format           000000018006e864 f   libucrt:cvt.obj
 0001:0006db7c       _fputwc_nolock             000000018006eb7c f   libucrt:fputwc.obj
 0001:0006dd54       _fputwchar                 000000018006ed54 f   libucrt:fputwc.obj
 0001:0006dd80       _putwc_nolock              000000018006ed80 f   libucrt:fputwc.obj
 0001:0006dd88       fputwc                     000000018006ed88 f   libucrt:fputwc.obj
 0001:0006de08       putwc                      000000018006ee08 f   libucrt:fputwc.obj
 0001:0006de10       putwchar                   000000018006ee10 f   libucrt:fputwc.obj
 0001:0006de18       ?lowio_handle@__crt_stdio_stream@@QEBAHXZ 000000018006ee18 f i libucrt:fileno.obj
 0001:0006de20       _fileno                    000000018006ee20 f   libucrt:fileno.obj
 0001:0006de50       ??$?RPEAU__crt_stdio_stream_data@@@__crt_internal_free_policy@@QEBAXQEBQEAU__crt_stdio_stream_data@@@Z 000000018006ee50 f i libucrt:_file.obj
 0001:0006de5c       ??0?$__crt_unique_heap_ptr@PEAU__crt_stdio_stream_data@@U__crt_internal_free_policy@@@@QEAA@QEAPEAU__crt_stdio_stream_data@@@Z 000000018006ee5c f i libucrt:_file.obj
 0001:0006de64       ??1?$__crt_unique_heap_ptr@PEAU__crt_stdio_stream_data@@U__crt_internal_free_policy@@@@QEAA@XZ 000000018006ee64 f i libucrt:_file.obj
 0001:0006de88       ?detach@?$__crt_unique_heap_ptr@PEAU__crt_stdio_stream_data@@U__crt_internal_free_policy@@@@QEAAPEAPEAU__crt_stdio_stream_data@@XZ 000000018006ee88 f i libucrt:_file.obj
 0001:0006de94       ?release@?$__crt_unique_heap_ptr@PEAU__crt_stdio_stream_data@@U__crt_internal_free_policy@@@@QEAAXXZ 000000018006ee94 f i libucrt:_file.obj
 0001:0006deb8       __acrt_initialize_stdio    000000018006eeb8 f   libucrt:_file.obj
 0001:0006e020       __acrt_iob_func            000000018006f020 f   libucrt:_file.obj
 0001:0006e038       __acrt_uninitialize_stdio  000000018006f038 f   libucrt:_file.obj
 0001:0006e0ac       _get_stream_buffer_pointers 000000018006f0ac f   libucrt:_file.obj
 0001:0006e104       _lock_file                 000000018006f104 f   libucrt:_file.obj
 0001:0006e114       _unlock_file               000000018006f114 f   libucrt:_file.obj
 0001:0006e124       _fputc_nolock              000000018006f124 f   libucrt:fputc.obj
 0001:0006e140       _fputchar                  000000018006f140 f   libucrt:fputc.obj
 0001:0006e16c       _putc_nolock               000000018006f16c f   libucrt:fputc.obj
 0001:0006e188       fputc                      000000018006f188 f   libucrt:fputc.obj
 0001:0006e2f0       putc                       000000018006f2f0 f   libucrt:fputc.obj
 0001:0006e2f8       putchar                    000000018006f2f8 f   libucrt:fputc.obj
 0001:0006e300       _get_printf_count_output   000000018006f300 f   libucrt:printf_count_output.obj
 0001:0006e320       _set_printf_count_output   000000018006f320 f   libucrt:printf_count_output.obj
 0001:0006e354       ??$?RU__crt_locale_data@@@__crt_internal_free_policy@@QEBAXQEBU__crt_locale_data@@@Z 000000018006f354 f i libucrt:wsetlocale.obj
 0001:0006e360       ??$?RU__crt_locale_pointers@@@__crt_internal_free_policy@@QEBAXQEBU__crt_locale_pointers@@@Z 000000018006f360 f i libucrt:wsetlocale.obj
 0001:0006e36c       ??$?RV<lambda_3e0436e1742da57cd73032a8c01babf8>@@AEAV<lambda_b7fb1a997d3ebc0cc0186c5835178808>@@V<lambda_eece23d6871d1810c6784d81edd5a05e>@@@?$__crt_seh_guarded_call@X@@QEAAX$$QEAV<lambda_3e0436e1742da57cd73032a8c01babf8>@@AEAV<lambda_b7fb1a997d3ebc0cc0186c5835178808>@@$$QEAV<lambda_eece23d6871d1810c6784d81edd5a05e>@@@Z 000000018006f36c f i libucrt:wsetlocale.obj
 0001:0006e3c0       ??$?RV<lambda_5df02c53a8f32f81fd64e5bbb78039f1>@@AEAV<lambda_2af78c5f5901b1372d98f9ab3177dfa6>@@AEAV<lambda_f51fe5fd7c79a33db34fc9310f277369>@@@?$__crt_seh_guarded_call@X@@QEAAX$$QEAV<lambda_5df02c53a8f32f81fd64e5bbb78039f1>@@AEAV<lambda_2af78c5f5901b1372d98f9ab3177dfa6>@@AEAV<lambda_f51fe5fd7c79a33db34fc9310f277369>@@@Z 000000018006f3c0 f i libucrt:wsetlocale.obj
 0001:0006e3f4       ??$?RV<lambda_d67e8342c384adda8f857579ab50b2ae>@@AEAV<lambda_30712929f77e709619002f448b6a9510>@@V<lambda_4525336fd7e478d965fb7ca7a337cad8>@@@?$__crt_seh_guarded_call@X@@QEAAX$$QEAV<lambda_d67e8342c384adda8f857579ab50b2ae>@@AEAV<lambda_30712929f77e709619002f448b6a9510>@@$$QEAV<lambda_4525336fd7e478d965fb7ca7a337cad8>@@@Z 000000018006f3f4 f i libucrt:wsetlocale.obj
 0001:0006e57c       ??$?RV<lambda_ede63489d7330338e618311e15f0c366>@@AEAV<lambda_176e34f99554166dd2fac165c457248c>@@V<lambda_b0463272cb7667df9361a74a62ea8ca5>@@@?$__crt_seh_guarded_call@X@@QEAAX$$QEAV<lambda_ede63489d7330338e618311e15f0c366>@@AEAV<lambda_176e34f99554166dd2fac165c457248c>@@$$QEAV<lambda_b0463272cb7667df9361a74a62ea8ca5>@@@Z 000000018006f57c f i libucrt:wsetlocale.obj
 0001:0006e5cc       ??$__acrt_lock_and_call@V<lambda_176e34f99554166dd2fac165c457248c>@@@@YAXW4__acrt_lock_id@@$$QEAV<lambda_176e34f99554166dd2fac165c457248c>@@@Z 000000018006f5cc f i libucrt:wsetlocale.obj
 0001:0006e5fc       ??$__acrt_lock_and_call@V<lambda_30712929f77e709619002f448b6a9510>@@@@YAXW4__acrt_lock_id@@$$QEAV<lambda_30712929f77e709619002f448b6a9510>@@@Z 000000018006f5fc f i libucrt:wsetlocale.obj
 0001:0006e62c       ??$__acrt_lock_and_call@V<lambda_b7fb1a997d3ebc0cc0186c5835178808>@@@@YAXW4__acrt_lock_id@@$$QEAV<lambda_b7fb1a997d3ebc0cc0186c5835178808>@@@Z 000000018006f62c f i libucrt:wsetlocale.obj
 0001:0006e65c       ??$__crt_call_and_cleanup@V<lambda_2af78c5f5901b1372d98f9ab3177dfa6>@@V<lambda_f51fe5fd7c79a33db34fc9310f277369>@@@@YAX$$QEAV<lambda_2af78c5f5901b1372d98f9ab3177dfa6>@@$$QEAV<lambda_f51fe5fd7c79a33db34fc9310f277369>@@@Z 000000018006f65c f i libucrt:wsetlocale.obj
 0001:0006e678       ??$__vcrt_va_start_verify_argument_type@H@@YAXXZ 000000018006f678 f i libucrt:wsetlocale.obj
 0001:0006e734       ??0?$__crt_unique_heap_ptr@U__crt_locale_data@@U__crt_internal_free_policy@@@@QEAA@QEAU__crt_locale_data@@@Z 000000018006f734 f i libucrt:wsetlocale.obj
 0001:0006e73c       ??0?$__crt_unique_heap_ptr@U__crt_locale_pointers@@U__crt_internal_free_policy@@@@QEAA@QEAU__crt_locale_pointers@@@Z 000000018006f73c f i libucrt:wsetlocale.obj
 0001:0006e744       ??1?$__crt_unique_heap_ptr@U__crt_locale_data@@U__crt_internal_free_policy@@@@QEAA@XZ 000000018006f744 f i libucrt:wsetlocale.obj
 0001:0006e768       ??1?$__crt_unique_heap_ptr@U__crt_locale_pointers@@U__crt_internal_free_policy@@@@QEAA@XZ 000000018006f768 f i libucrt:wsetlocale.obj
 0001:0006e78c       ??B?$__crt_unique_heap_ptr@U__crt_locale_data@@U__crt_internal_free_policy@@@@QEBA_NXZ 000000018006f78c f i libucrt:wsetlocale.obj
 0001:0006e798       ??B?$__crt_unique_heap_ptr@U__crt_locale_pointers@@U__crt_internal_free_policy@@@@QEBA_NXZ 000000018006f798 f i libucrt:wsetlocale.obj
 0001:0006ea2c       ?detach@?$__crt_unique_heap_ptr@U__crt_locale_data@@U__crt_internal_free_policy@@@@QEAAPEAU__crt_locale_data@@XZ 000000018006fa2c f i libucrt:wsetlocale.obj
 0001:0006ea38       ?detach@?$__crt_unique_heap_ptr@U__crt_locale_pointers@@U__crt_internal_free_policy@@@@QEAAPEAU__crt_locale_pointers@@XZ 000000018006fa38 f i libucrt:wsetlocale.obj
 0001:0006ea44       ?get@?$__crt_unique_heap_ptr@U__crt_locale_data@@U__crt_internal_free_policy@@@@QEBAPEAU__crt_locale_data@@XZ 000000018006fa44 f i libucrt:wsetlocale.obj
 0001:0006ea48       ?get@?$__crt_unique_heap_ptr@U__crt_locale_pointers@@U__crt_internal_free_policy@@@@QEBAPEAU__crt_locale_pointers@@XZ 000000018006fa48 f i libucrt:wsetlocale.obj
 0001:0006ea4c       ?is_valid@?$__crt_unique_heap_ptr@U__crt_locale_data@@U__crt_internal_free_policy@@@@QEBA_NXZ 000000018006fa4c f i libucrt:wsetlocale.obj
 0001:0006ea58       ?is_valid@?$__crt_unique_heap_ptr@U__crt_locale_pointers@@U__crt_internal_free_policy@@@@QEBA_NXZ 000000018006fa58 f i libucrt:wsetlocale.obj
 0001:0006ea64       ?release@?$__crt_unique_heap_ptr@U__crt_locale_data@@U__crt_internal_free_policy@@@@QEAAXXZ 000000018006fa64 f i libucrt:wsetlocale.obj
 0001:0006ea88       ?release@?$__crt_unique_heap_ptr@U__crt_locale_pointers@@U__crt_internal_free_policy@@@@QEAAXXZ 000000018006fa88 f i libucrt:wsetlocale.obj
 0001:0006eaac       __acrt_copy_locale_name    000000018006faac f   libucrt:wsetlocale.obj
 0001:0006eb50       __acrt_set_locale_changed  000000018006fb50 f   libucrt:wsetlocale.obj
 0001:0006eb60       __acrt_uninitialize_locale 000000018006fb60 f   libucrt:wsetlocale.obj
 0001:0006ebb8       __lc_lctowcs               000000018006fbb8 f   libucrt:wsetlocale.obj
 0001:0006ec84       __lc_wcstolc               000000018006fc84 f   libucrt:wsetlocale.obj
 0001:0006eea8       _configthreadlocale        000000018006fea8 f   libucrt:wsetlocale.obj
 0001:0006f01c       _create_locale             000000018007001c f   libucrt:wsetlocale.obj
 0001:0006f0b0       _expandlocale              00000001800700b0 f   libucrt:wsetlocale.obj
 0001:0006f5ac       _free_locale               00000001800705ac f   libucrt:wsetlocale.obj
 0001:0006f678       _get_current_locale        0000000180070678 f   libucrt:wsetlocale.obj
 0001:0006f764       _wcreate_locale            0000000180070764 f   libucrt:wsetlocale.obj
 0001:0006f900       _wcscats                   0000000180070900 f   libucrt:wsetlocale.obj
 0001:0006f980       _wsetlocale                0000000180070980 f   libucrt:wsetlocale.obj
 0001:00070410       __pctype_func              0000000180071410 f   libucrt:ctype.obj
 0001:0007044c       __pwctype_func             000000018007144c f   libucrt:ctype.obj
 0001:00070458       _iswctype_l                0000000180071458 f   libucrt:iswctype.obj
 0001:00070460       iswctype                   0000000180071460 f   libucrt:iswctype.obj
 0001:000704ec       _isctype                   00000001800714ec f   libucrt:isctype.obj
 0001:00070518       _isctype_l                 0000000180071518 f   libucrt:isctype.obj
 0001:0007066c       nexttoward                 000000018007166c f   libucrt:nexttoward.obj
 0001:00070828       nexttowardf                0000000180071828 f   libucrt:nexttowardf.obj
 0001:000709ac       _errcode                   00000001800719ac f   libucrt:fpexcept.obj
 0001:00070a00       _except1                   0000000180071a00 f   libucrt:fpexcept.obj
 0001:00070b30       _except2                   0000000180071b30 f   libucrt:fpexcept.obj
 0001:00070cb8       _handle_exc                0000000180071cb8 f   libucrt:fpexcept.obj
 0001:00070fb8       _handle_qnan2              0000000180071fb8 f   libucrt:fpexcept.obj
 0001:00070fc0       _raise_exc                 0000000180071fc0 f   libucrt:fpexcept.obj
 0001:00070ff0       _raise_exc_ex              0000000180071ff0 f   libucrt:fpexcept.obj
 0001:000713b8       _raise_excf                00000001800723b8 f   libucrt:fpexcept.obj
 0001:000713ec       _set_errno_from_matherr    00000001800723ec f   libucrt:fpexcept.obj
 0001:00071428       _umatherr                  0000000180072428 f   libucrt:fpexcept.obj
 0001:00071534       _clrfp                     0000000180072534 f   libucrt:fpctrl.obj
 0001:00071558       _ctrlfp                    0000000180072558 f   libucrt:fpctrl.obj
 0001:000715f4       _set_statfp                00000001800725f4 f   libucrt:fpctrl.obj
 0001:0007161c       _statfp                    000000018007261c f   libucrt:fpctrl.obj
 0001:00071634       __acrt_add_locale_ref      0000000180072634 f   libucrt:locale_refcounting.obj
 0001:000716e4       __acrt_free_locale         00000001800726e4 f   libucrt:locale_refcounting.obj
 0001:000718b8       __acrt_locale_add_lc_time_reference 00000001800728b8 f   libucrt:locale_refcounting.obj
 0001:000718e8       __acrt_locale_free_lc_time_if_unreferenced 00000001800728e8 f   libucrt:locale_refcounting.obj
 0001:0007192c       __acrt_locale_release_lc_time_reference 000000018007292c f   libucrt:locale_refcounting.obj
 0001:0007195c       __acrt_release_locale_ref  000000018007295c f   libucrt:locale_refcounting.obj
 0001:00071a30       __acrt_update_thread_locale_data 0000000180072a30 f   libucrt:locale_refcounting.obj
 0001:00071abc       _updatetlocinfoEx_nolock   0000000180072abc f   libucrt:locale_refcounting.obj
 0001:00071cf8       __acrt_DownlevelLCIDToLocaleName 0000000180072cf8 f   libucrt:lcidtoname_downlevel.obj
 0001:00071e14       __acrt_DownlevelLocaleNameToLCID 0000000180072e14 f   libucrt:lcidtoname_downlevel.obj
 0001:00071e54       ??1scoped_global_state_reset@__crt_state_management@@QEAA@XZ 0000000180072e54 f i libucrt:qsort.obj
 0001:00071fa0       qsort                      0000000180072fa0 f   libucrt:qsort.obj
 0001:000724b4       wcsncpy_s                  00000001800734b4 f   libucrt:wcsncpy_s.obj
 0001:000725d0       wcspbrk                    00000001800735d0 f   libucrt:wcspbrk.obj
 0001:00072708       strncpy_s                  0000000180073708 f   libucrt:strncpy_s.obj
 0001:00072810       strpbrk                    0000000180073810 f   libucrt:strpbrk.obj
 0001:000728d8       _mbsdec                    00000001800738d8 f   libucrt:mbsdec.obj
 0001:000728e4       _mbsdec_l                  00000001800738e4 f   libucrt:mbsdec.obj
 0001:000729bc       ??0?$__crt_scoped_stack_ptr@_W@@QEAA@U?$__crt_scoped_stack_ptr_tag@_W@@@Z 00000001800739bc f i libucrt:getstringtypea.obj
 0001:000729c4       ??0?$__crt_scoped_stack_ptr_tag@_W@@QEAA@QEA_W@Z 00000001800739c4 f i libucrt:getstringtypea.obj
 0001:000729cc       ??1?$__crt_scoped_stack_ptr@_W@@QEAA@XZ 00000001800739cc f i libucrt:getstringtypea.obj
 0001:000729f8       ?get@?$__crt_scoped_stack_ptr@_W@@QEBAPEA_WXZ 00000001800739f8 f i libucrt:getstringtypea.obj
 0001:000729fc       _MallocaComputeSize        00000001800739fc f i libucrt:getstringtypea.obj
 0001:00072a10       _MarkAllocaS               0000000180073a10 f i libucrt:getstringtypea.obj
 0001:00072a24       __acrt_GetStringTypeA      0000000180073a24 f   libucrt:getstringtypea.obj
 0001:00072c44       _freea_crt                 0000000180073c44 f i libucrt:getstringtypea.obj
 0001:00072c6c       ??B?$__crt_scoped_stack_ptr@_W@@QEBA_NXZ 0000000180073c6c f i libucrt:lcmapstringa.obj
 0001:000730ac       __acrt_LCMapStringA        00000001800740ac f   libucrt:lcmapstringa.obj
 0001:00073168       _wcsnicoll                 0000000180074168 f   libucrt:wcsnicol.obj
 0001:00073224       _wcsnicoll_l               0000000180074224 f   libucrt:wcsnicol.obj
 0001:000733a4       _strnicoll                 00000001800743a4 f   libucrt:strnicol.obj
 0001:000733c0       _strnicoll_l               00000001800743c0 f   libucrt:strnicol.obj
 0001:00073548       _msize                     0000000180074548 f   libucrt:msize.obj
 0001:00073590       _realloc_base              0000000180074590 f   libucrt:realloc_base.obj
 0001:00073634       ??$?RU__crt_lowio_handle_data@@@__crt_internal_free_policy@@QEBAXQEBU__crt_lowio_handle_data@@@Z 0000000180074634 f i libucrt:osfinfo.obj
 0001:00073640       ??0?$__crt_unique_heap_ptr@U__crt_lowio_handle_data@@U__crt_internal_free_policy@@@@QEAA@QEAU__crt_lowio_handle_data@@@Z 0000000180074640 f i libucrt:osfinfo.obj
 0001:00073648       ??1?$__crt_unique_heap_ptr@U__crt_lowio_handle_data@@U__crt_internal_free_policy@@@@QEAA@XZ 0000000180074648 f i libucrt:osfinfo.obj
 0001:0007366c       ??B?$__crt_unique_heap_ptr@U__crt_lowio_handle_data@@U__crt_internal_free_policy@@@@QEBA_NXZ 000000018007466c f i libucrt:osfinfo.obj
 0001:00073678       ?detach@?$__crt_unique_heap_ptr@U__crt_lowio_handle_data@@U__crt_internal_free_policy@@@@QEAAPEAU__crt_lowio_handle_data@@XZ 0000000180074678 f i libucrt:osfinfo.obj
 0001:00073684       ?get@?$__crt_unique_heap_ptr@U__crt_lowio_handle_data@@U__crt_internal_free_policy@@@@QEBAPEAU__crt_lowio_handle_data@@XZ 0000000180074684 f i libucrt:osfinfo.obj
 0001:00073688       ?is_valid@?$__crt_unique_heap_ptr@U__crt_lowio_handle_data@@U__crt_internal_free_policy@@@@QEBA_NXZ 0000000180074688 f i libucrt:osfinfo.obj
 0001:00073694       ?release@?$__crt_unique_heap_ptr@U__crt_lowio_handle_data@@U__crt_internal_free_policy@@@@QEAAXXZ 0000000180074694 f i libucrt:osfinfo.obj
 0001:000736b8       __acrt_lowio_create_handle_array 00000001800746b8 f   libucrt:osfinfo.obj
 0001:00073774       __acrt_lowio_destroy_handle_array 0000000180074774 f   libucrt:osfinfo.obj
 0001:000737d8       __acrt_lowio_ensure_fh_exists 00000001800747d8 f   libucrt:osfinfo.obj
 0001:000738bc       __acrt_lowio_lock_fh       00000001800748bc f   libucrt:osfinfo.obj
 0001:000738e8       __acrt_lowio_set_os_handle 00000001800748e8 f   libucrt:osfinfo.obj
 0001:000739d8       __acrt_lowio_unlock_fh     00000001800749d8 f   libucrt:osfinfo.obj
 0001:00073a04       _alloc_osfhnd              0000000180074a04 f   libucrt:osfinfo.obj
 0001:00073b80       _free_osfhnd               0000000180074b80 f   libucrt:osfinfo.obj
 0001:00073c68       _get_osfhandle             0000000180074c68 f   libucrt:osfinfo.obj
 0001:00073cfc       _open_osfhandle            0000000180074cfc f   libucrt:osfinfo.obj
 0001:00073e38       localeconv                 0000000180074e38 f   libucrt:localeconv.obj
 0001:00073e78       _isatty                    0000000180074e78 f   libucrt:isatty.obj
 0001:00073ef0       ??0__crt_stdio_stream@@QEAA@QEAU__crt_stdio_stream_data@@@Z 0000000180074ef0 f i libucrt:fflush.obj
 0001:00073ef8       ?__acrt_stdio_reset_buffer@@YAXV__crt_stdio_stream@@@Z 0000000180074ef8 f i libucrt:fflush.obj
 0001:00073f14       ?has_all_of@__crt_stdio_stream@@QEBA_NJ@Z 0000000180074f14 f i libucrt:fflush.obj
 0001:00073f28       ?has_big_buffer@__crt_stdio_stream@@QEBA_NXZ 0000000180074f28 f i libucrt:fflush.obj
 0001:00073f38       ?is_in_use@__crt_stdio_stream@@QEBA_NXZ 0000000180074f38 f i libucrt:fflush.obj
 0001:00073f48       __acrt_stdio_flush_nolock  0000000180074f48 f   libucrt:fflush.obj
 0001:00073fdc       _fflush_nolock             0000000180074fdc f   libucrt:fflush.obj
 0001:0007403c       _flushall                  000000018007503c f   libucrt:fflush.obj
 0001:00074168       fflush                     0000000180075168 f   libucrt:fflush.obj
 0001:000741bc       __iswcsym                  00000001800751bc f i libucrt:_wctype.obj
 0001:000741f4       __iswcsymf                 00000001800751f4 f i libucrt:_wctype.obj
 0001:0007422c       _isleadbyte_l              000000018007522c f i libucrt:_wctype.obj
 0001:0007427c       _iswalnum_l                000000018007527c f i libucrt:_wctype.obj
 0001:00074288       _iswalpha_l                0000000180075288 f i libucrt:_wctype.obj
 0001:00074294       _iswblank_l                0000000180075294 f i libucrt:_wctype.obj
 0001:000742b0       _iswcntrl_l                00000001800752b0 f i libucrt:_wctype.obj
 0001:000742bc       _iswcsym_l                 00000001800752bc f i libucrt:_wctype.obj
 0001:000742f4       _iswcsymf_l                00000001800752f4 f i libucrt:_wctype.obj
 0001:0007432c       _iswdigit_l                000000018007532c f i libucrt:_wctype.obj
 0001:00074338       _iswgraph_l                0000000180075338 f i libucrt:_wctype.obj
 0001:00074344       _iswlower_l                0000000180075344 f i libucrt:_wctype.obj
 0001:00074350       _iswprint_l                0000000180075350 f i libucrt:_wctype.obj
 0001:0007435c       _iswpunct_l                000000018007535c f i libucrt:_wctype.obj
 0001:00074368       _iswspace_l                0000000180075368 f i libucrt:_wctype.obj
 0001:00074374       _iswupper_l                0000000180075374 f i libucrt:_wctype.obj
 0001:00074380       _iswxdigit_l               0000000180075380 f i libucrt:_wctype.obj
 0001:0007438c       isleadbyte                 000000018007538c f i libucrt:_wctype.obj
 0001:000743e0       iswalnum                   00000001800753e0 f i libucrt:_wctype.obj
 0001:000743ec       iswalpha                   00000001800753ec f i libucrt:_wctype.obj
 0001:000743f8       iswascii                   00000001800753f8 f i libucrt:_wctype.obj
 0001:0007440c       iswblank                   000000018007540c f i libucrt:_wctype.obj
 0001:00074428       iswcntrl                   0000000180075428 f i libucrt:_wctype.obj
 0001:00074434       iswdigit                   0000000180075434 f i libucrt:_wctype.obj
 0001:00074440       iswgraph                   0000000180075440 f i libucrt:_wctype.obj
 0001:0007444c       iswlower                   000000018007544c f i libucrt:_wctype.obj
 0001:00074458       iswprint                   0000000180075458 f i libucrt:_wctype.obj
 0001:00074464       iswpunct                   0000000180075464 f i libucrt:_wctype.obj
 0001:00074470       iswspace                   0000000180075470 f i libucrt:_wctype.obj
 0001:0007447c       iswupper                   000000018007547c f i libucrt:_wctype.obj
 0001:00074488       iswxdigit                  0000000180075488 f i libucrt:_wctype.obj
 0001:00074494       ??$?RG@__crt_internal_free_policy@@QEBAXQEBG@Z 0000000180075494 f i libucrt:initctype.obj
 0001:000744a0       ??$?RJ@__crt_internal_free_policy@@QEBAXQEBJ@Z 00000001800754a0 f i libucrt:initctype.obj
 0001:000744ac       ??0?$__crt_unique_heap_ptr@GU__crt_internal_free_policy@@@@QEAA@QEAG@Z 00000001800754ac f i libucrt:initctype.obj
 0001:000744b4       ??0?$__crt_unique_heap_ptr@JU__crt_internal_free_policy@@@@QEAA@QEAJ@Z 00000001800754b4 f i libucrt:initctype.obj
 0001:000744bc       ??1?$__crt_unique_heap_ptr@GU__crt_internal_free_policy@@@@QEAA@XZ 00000001800754bc f i libucrt:initctype.obj
 0001:000744e0       ??1?$__crt_unique_heap_ptr@JU__crt_internal_free_policy@@@@QEAA@XZ 00000001800754e0 f i libucrt:initctype.obj
 0001:00074504       ?detach@?$__crt_unique_heap_ptr@GU__crt_internal_free_policy@@@@QEAAPEAGXZ 0000000180075504 f i libucrt:initctype.obj
 0001:00074510       ?detach@?$__crt_unique_heap_ptr@JU__crt_internal_free_policy@@@@QEAAPEAJXZ 0000000180075510 f i libucrt:initctype.obj
 0001:0007451c       ?release@?$__crt_unique_heap_ptr@GU__crt_internal_free_policy@@@@QEAAXXZ 000000018007551c f i libucrt:initctype.obj
 0001:00074540       ?release@?$__crt_unique_heap_ptr@JU__crt_internal_free_policy@@@@QEAAXXZ 0000000180075540 f i libucrt:initctype.obj
 0001:00074564       ___lc_codepage_func        0000000180075564 f   libucrt:initctype.obj
 0001:000745a0       ___lc_collate_cp_func      00000001800755a0 f   libucrt:initctype.obj
 0001:000745dc       ___lc_locale_name_func     00000001800755dc f   libucrt:initctype.obj
 0001:0007461c       ___mb_cur_max_func         000000018007561c f   libucrt:initctype.obj
 0001:00074658       ___mb_cur_max_l_func       0000000180075658 f   libucrt:initctype.obj
 0001:0007466c       __acrt_locale_initialize_ctype 000000018007566c f   libucrt:initctype.obj
 0001:00074db8       __acrt_fp_strflt_to_string 0000000180075db8 f   libucrt:_fptostr.obj
 0001:00076480       ??0big_integer@__crt_strtox@@QEAA@AEBU01@@Z 0000000180077480 f i libucrt:cfout.obj
 0001:000764c0       ??0big_integer@__crt_strtox@@QEAA@XZ 00000001800774c0 f i libucrt:cfout.obj
 0001:000764cc       ??0scoped_fp_state_reset@?A0x202f3722@@QEAA@XZ 00000001800774cc f i libucrt:cfout.obj
 0001:0007650c       ??1scoped_fp_state_reset@?A0x202f3722@@QEAA@XZ 000000018007750c f i libucrt:cfout.obj
 0001:00076530       ??4big_integer@__crt_strtox@@QEAAAEAU01@AEBU01@@Z 0000000180077530 f i libucrt:cfout.obj
 0001:00076570       ??8__crt_strtox@@YA_NAEBUbig_integer@0@0@Z 0000000180077570 f i libucrt:cfout.obj
 0001:000765c0       ??9__crt_strtox@@YA_NAEBUbig_integer@0@0@Z 00000001800775c0 f i libucrt:cfout.obj
 0001:00076620       ?add_carry@__crt_strtox@@YAIAEAIII@Z 0000000180077620 f i libucrt:cfout.obj
 0001:00076640       ?add_multiply_carry@__crt_strtox@@YAIAEAIIII@Z 0000000180077640 f i libucrt:cfout.obj
 0001:00076670       ?bit_scan_reverse@__crt_strtox@@YAII@Z 0000000180077670 f i libucrt:cfout.obj
 0001:00076690       ?count_sequential_high_zeroes@__crt_strtox@@YAII@Z 0000000180077690 f i libucrt:cfout.obj
 0001:000766b0       ?divide@__crt_strtox@@YA_KAEAUbig_integer@1@AEBU21@@Z 00000001800776b0 f i libucrt:cfout.obj
 0001:00076cc0       ?is_zero@__crt_strtox@@YA_NAEBUbig_integer@1@@Z 0000000180077cc0 f i libucrt:cfout.obj
 0001:00076cd0       ?make_big_integer@__crt_strtox@@YA?AUbig_integer@1@_K@Z 0000000180077cd0 f i libucrt:cfout.obj
 0001:00076cf0       ?make_big_integer_power_of_two@__crt_strtox@@YA?AUbig_integer@1@I@Z 0000000180077cf0 f i libucrt:cfout.obj
 0001:00076d70       ?multiply@__crt_strtox@@YA_NAEAUbig_integer@1@AEBU21@@Z 0000000180077d70 f i libucrt:cfout.obj
 0001:000771c0       ?multiply@__crt_strtox@@YA_NAEAUbig_integer@1@I@Z 00000001800781c0 f i libucrt:cfout.obj
 0001:00077300       ?multiply_64_32@__crt_strtox@@YA_K_KI@Z 0000000180078300 f i libucrt:cfout.obj
 0001:00077310       ?multiply_by_power_of_ten@__crt_strtox@@YA_NAEAUbig_integer@1@I@Z 0000000180078310 f i libucrt:cfout.obj
 0001:00077a40       ?multiply_core@__crt_strtox@@YAIQEAIII@Z 0000000180078a40 f i libucrt:cfout.obj
 0001:00077aa0       ?shift_left@__crt_strtox@@YA_NAEAUbig_integer@1@I@Z 0000000180078aa0 f i libucrt:cfout.obj
 0001:00077c7c       __acrt_fltout              0000000180078c7c f   libucrt:cfout.obj
 0001:00079b10       __acrt_stdio_flush_and_write_narrow_nolock 000000018007ab10 f   libucrt:_flsbuf.obj
 0001:00079c34       __acrt_stdio_flush_and_write_wide_nolock 000000018007ac34 f   libucrt:_flsbuf.obj
 0001:00079d58       _fcloseall                 000000018007ad58 f   libucrt:closeall.obj
 0001:00079e38       ?has_crt_buffer@__crt_stdio_stream@@QEBA_NXZ 000000018007ae38 f i libucrt:_freebuf.obj
 0001:00079e48       __acrt_stdio_free_buffer_nolock 000000018007ae48 f   libucrt:_freebuf.obj
 0001:00079e98       ??$?RUlconv@@@__crt_internal_free_policy@@QEBAXQEBUlconv@@@Z 000000018007ae98 f i libucrt:initmon.obj
 0001:00079ea4       ??0?$__crt_unique_heap_ptr@Ulconv@@U__crt_internal_free_policy@@@@QEAA@QEAUlconv@@@Z 000000018007aea4 f i libucrt:initmon.obj
 0001:00079eac       ??1?$__crt_unique_heap_ptr@Ulconv@@U__crt_internal_free_policy@@@@QEAA@XZ 000000018007aeac f i libucrt:initmon.obj
 0001:00079ed0       ?detach@?$__crt_unique_heap_ptr@Ulconv@@U__crt_internal_free_policy@@@@QEAAPEAUlconv@@XZ 000000018007aed0 f i libucrt:initmon.obj
 0001:00079edc       ?release@?$__crt_unique_heap_ptr@Ulconv@@U__crt_internal_free_policy@@@@QEAAXXZ 000000018007aedc f i libucrt:initmon.obj
 0001:00079f00       __acrt_locale_free_monetary 000000018007af00 f   libucrt:initmon.obj
 0001:0007a04c       __acrt_locale_initialize_monetary 000000018007b04c f   libucrt:initmon.obj
 0001:0007a720       __acrt_locale_free_numeric 000000018007b720 f   libucrt:initnum.obj
 0001:0007a7a8       __acrt_locale_initialize_numeric 000000018007b7a8 f   libucrt:initnum.obj
 0001:0007ab8c       ??$?RU__crt_lc_time_data@@@__crt_internal_free_policy@@QEBAXQEBU__crt_lc_time_data@@@Z 000000018007bb8c f i libucrt:inittime.obj
 0001:0007abe0       ??0?$__crt_unique_heap_ptr@U__crt_lc_time_data@@U__crt_internal_free_policy@@@@QEAA@QEAU__crt_lc_time_data@@@Z 000000018007bbe0 f i libucrt:inittime.obj
 0001:0007abe8       ??1?$__crt_unique_heap_ptr@U__crt_lc_time_data@@U__crt_internal_free_policy@@@@QEAA@XZ 000000018007bbe8 f i libucrt:inittime.obj
 0001:0007ac0c       ??B?$__crt_unique_heap_ptr@U__crt_lc_time_data@@U__crt_internal_free_policy@@@@QEBA_NXZ 000000018007bc0c f i libucrt:inittime.obj
 0001:0007ac18       ?detach@?$__crt_unique_heap_ptr@U__crt_lc_time_data@@U__crt_internal_free_policy@@@@QEAAPEAU__crt_lc_time_data@@XZ 000000018007bc18 f i libucrt:inittime.obj
 0001:0007ac90       ?get@?$__crt_unique_heap_ptr@U__crt_lc_time_data@@U__crt_internal_free_policy@@@@QEBAPEAU__crt_lc_time_data@@XZ 000000018007bc90 f i libucrt:inittime.obj
 0001:0007b148       ?is_valid@?$__crt_unique_heap_ptr@U__crt_lc_time_data@@U__crt_internal_free_policy@@@@QEBA_NXZ 000000018007c148 f i libucrt:inittime.obj
 0001:0007b154       ?release@?$__crt_unique_heap_ptr@U__crt_lc_time_data@@U__crt_internal_free_policy@@@@QEAAXXZ 000000018007c154 f i libucrt:inittime.obj
 0001:0007b178       __acrt_locale_free_time    000000018007c178 f   libucrt:inittime.obj
 0001:0007b2c4       __acrt_locale_initialize_time 000000018007c2c4 f   libucrt:inittime.obj
 0001:0007b424       wcscat_s                   000000018007c424 f   libucrt:wcscat_s.obj
 0001:0007b4c4       wcscspn                    000000018007c4c4 f   libucrt:wcscspn.obj
 0001:0007c060       __acrt_get_qualified_locale 000000018007d060 f   libucrt:get_qualified_locale.obj
 0001:0007cdcc       __acrt_get_qualified_locale_downlevel 000000018007ddcc f   libucrt:getqloc_downlevel.obj
 0001:0007d0fc       _d_int                     000000018007e0fc f   libucrt:_test.obj
 0001:0007d258       _dtest                     000000018007e258 f   libucrt:_test.obj
 0001:0007d2d0       _fd_int                    000000018007e2d0 f   libucrt:_test.obj
 0001:0007d3dc       _fdtest                    000000018007e3dc f   libucrt:_test.obj
 0001:0007d434       _fperrraise                000000018007e434 f   libucrt:_test.obj
 0001:0007d4fc       _ld_int                    000000018007e4fc f   libucrt:_test.obj
 0001:0007d504       _ldtest                    000000018007e504 f   libucrt:_test.obj
 0001:0007d5b8       _add_exp                   000000018007e5b8 f   libucrt:util.obj
 0001:0007d61c       _decomp                    000000018007e61c f   libucrt:util.obj
 0001:0007d7a0       _get_exp                   000000018007e7a0 f   libucrt:util.obj
 0001:0007d7d0       _set_bexp                  000000018007e7d0 f   libucrt:util.obj
 0001:0007d80c       _set_exp                   000000018007e80c f   libucrt:util.obj
 0001:0007d854       _sptype                    000000018007e854 f   libucrt:util.obj
 0001:0007d900       _get_fpsr                  000000018007e900 f   libucrt:fpsr.obj
 0001:0007d910       _set_fpsr                  000000018007e910 f   libucrt:fpsr.obj
 0001:0007d91a       _fclrf                     000000018007e91a f   libucrt:fpsr.obj
 0001:0007d92e       _frnd                      000000018007e92e f   libucrt:fpsr.obj
 0001:0007d964       __strncnt                  000000018007e964 f   libucrt:strncnt.obj
 0001:0007d980       __acrt_CompareStringW      000000018007e980 f   libucrt:comparestringw.obj
 0001:0007da6c       __ascii_strnicmp           000000018007ea6c f   libucrt:strnicmp.obj
 0001:0007dac4       _strnicmp                  000000018007eac4 f   libucrt:strnicmp.obj
 0001:0007db28       _strnicmp_l                000000018007eb28 f   libucrt:strnicmp.obj
 0001:0007e0b0       __acrt_CompareStringA      000000018007f0b0 f   libucrt:comparestringa.obj
 0001:0007e26c       __acrt_report_runtime_error 000000018007f26c f   libucrt:report_runtime_error.obj
 0001:0007e498       _query_app_type            000000018007f498 f   libucrt:report_runtime_error.obj
 0001:0007e4a0       _set_app_type              000000018007f4a0 f   libucrt:report_runtime_error.obj
 0001:0007e4a8       ??$?RV<lambda_b521505b218e5242e90febf6bfebc422>@@AEAV<lambda_6978c1fb23f02e42e1d9e99668cc68aa>@@V<lambda_314360699dd331753a4119843814e9a7>@@@?$__crt_seh_guarded_call@H@@QEAAH$$QEAV<lambda_b521505b218e5242e90febf6bfebc422>@@AEAV<lambda_6978c1fb23f02e42e1d9e99668cc68aa>@@$$QEAV<lambda_314360699dd331753a4119843814e9a7>@@@Z 000000018007f4a8 f i libucrt:commit.obj
 0001:0007e558       ??$__acrt_lowio_lock_fh_and_call@V<lambda_6978c1fb23f02e42e1d9e99668cc68aa>@@@@YAHH$$QEAV<lambda_6978c1fb23f02e42e1d9e99668cc68aa>@@@Z 000000018007f558 f i libucrt:commit.obj
 0001:0007e63c       _commit                    000000018007f63c f   libucrt:commit.obj
 0001:0007eff0       _write                     000000018007fff0 f   libucrt:write.obj
 0001:0007f118       _write_nolock              0000000180080118 f   libucrt:write.obj
 0001:0007f6b8       __acrt_GetLocaleInfoA      00000001800806b8 f   libucrt:getlocaleinfoa.obj
 0001:0007f8f4       fegetenv                   00000001800808f4 f   libucrt:fegetenv.obj
 0001:0007f91c       fesetenv                   000000018008091c f   libucrt:fesetenv.obj
 0001:0007f97c       feholdexcept               000000018008097c f   libucrt:feholdexcept.obj
 0001:0007f9e0       ceil                       00000001800809e0 f   libucrt:ceil.obj
 0001:0007fae0       log10                      0000000180080ae0 f   libucrt:log10.obj
 0001:000806c4       _lseek                     00000001800816c4 f   libucrt:lseek.obj
 0001:000806cc       _lseek_nolock              00000001800816cc f   libucrt:lseek.obj
 0001:000806d4       _lseeki64                  00000001800816d4 f   libucrt:lseek.obj
 0001:000806dc       _lseeki64_nolock           00000001800816dc f   libucrt:lseek.obj
 0001:000806e4       __acrt_stdio_allocate_buffer_nolock 00000001800816e4 f   libucrt:_getbuf.obj
 0001:00080760       _fclose_nolock             0000000180081760 f   libucrt:fclose.obj
 0001:00080804       fclose                     0000000180081804 f   libucrt:fclose.obj
 0001:00080e10       _i64toa                    0000000180081e10 f   libucrt:xtoa.obj
 0001:00080e50       _i64toa_s                  0000000180081e50 f   libucrt:xtoa.obj
 0001:00080e7c       _i64tow                    0000000180081e7c f   libucrt:xtoa.obj
 0001:00080ebc       _i64tow_s                  0000000180081ebc f   libucrt:xtoa.obj
 0001:00080ee8       _itoa                      0000000180081ee8 f   libucrt:xtoa.obj
 0001:00080f24       _itoa_s                    0000000180081f24 f   libucrt:xtoa.obj
 0001:00080f4c       _itow                      0000000180081f4c f   libucrt:xtoa.obj
 0001:00080f88       _itow_s                    0000000180081f88 f   libucrt:xtoa.obj
 0001:00080fb0       _ltoa                      0000000180081fb0 f   libucrt:xtoa.obj
 0001:00080fec       _ltoa_s                    0000000180081fec f   libucrt:xtoa.obj
 0001:00081014       _ltow                      0000000180082014 f   libucrt:xtoa.obj
 0001:00081050       _ltow_s                    0000000180082050 f   libucrt:xtoa.obj
 0001:00081078       _ui64toa                   0000000180082078 f   libucrt:xtoa.obj
 0001:000810a4       _ui64toa_s                 00000001800820a4 f   libucrt:xtoa.obj
 0001:000810bc       _ui64tow                   00000001800820bc f   libucrt:xtoa.obj
 0001:000810e8       _ui64tow_s                 00000001800820e8 f   libucrt:xtoa.obj
 0001:00081100       _ultoa                     0000000180082100 f   libucrt:xtoa.obj
 0001:0008112c       _ultoa_s                   000000018008212c f   libucrt:xtoa.obj
 0001:00081144       _ultow                     0000000180082144 f   libucrt:xtoa.obj
 0001:00081170       _ultow_s                   0000000180082170 f   libucrt:xtoa.obj
 0001:00081188       _wcsicmp                   0000000180082188 f   libucrt:wcsicmp.obj
 0001:00081230       _wcsicmp_l                 0000000180082230 f   libucrt:wcsicmp.obj
 0001:00081358       _wcsnicmp                  0000000180082358 f   libucrt:wcsnicmp.obj
 0001:00081418       _wcsnicmp_l                0000000180082418 f   libucrt:wcsnicmp.obj
 0001:00081578       wcscmp                     0000000180082578 f   libucrt:wcscmp.obj
 0001:000815bc       fegetexceptflag            00000001800825bc f   libucrt:fegetexceptflag.obj
 0001:00081610       fesetexceptflag            0000000180082610 f   libucrt:fesetexceptflag.obj
 0001:0008168c       __acrt_fenv_get_fp_status_word_from_exception_mask 000000018008268c f   libucrt:_fenvutils.obj
 0001:000816d4       _getfpcontrolword          00000001800826d4 f   libucrt:_fenvutils.obj
 0001:000816f0       _getfpstatusword           00000001800826f0 f   libucrt:_fenvutils.obj
 0001:00081708       _setfpcontrolword          0000000180082708 f   libucrt:_fenvutils.obj
 0001:00081714       _setfpstatusword           0000000180082714 f   libucrt:_fenvutils.obj
 0001:00081778       _set_error_mode            0000000180082778 f   libucrt:set_error_mode.obj
 0001:00081a90       ??$message_box@$$TAEAPEBDAEAPEBDAEAI@?$__crt_char_traits@D@@SAH$$QEA$$TAEAPEBD1AEAI@Z 0000000180082a90 f i libucrt:crtmbox.obj
 0001:00081aa8       ??$message_box@$$TAEAPEB_WAEAPEB_WAEAI@?$__crt_char_traits@_W@@SAH$$QEA$$TAEAPEB_W1AEAI@Z 0000000180082aa8 f i libucrt:crtmbox.obj
 0001:00081ac0       ??$message_box@$$TAEBQEBDAEBQEBDK@?$__crt_char_traits@D@@SAH$$QEA$$TAEBQEBD1$$QEAK@Z 0000000180082ac0 f i libucrt:crtmbox.obj
 0001:00081ad8       ??$message_box@$$TAEBQEB_WAEBQEB_WK@?$__crt_char_traits@_W@@SAH$$QEA$$TAEBQEB_W1$$QEAK@Z 0000000180082ad8 f i libucrt:crtmbox.obj
 0001:00081af0       ??$message_box@PEAUHWND__@@AEBQEBDAEBQEBDAEBI@?$__crt_char_traits@D@@SAH$$QEAPEAUHWND__@@AEBQEBD1AEBI@Z 0000000180082af0 f i libucrt:crtmbox.obj
 0001:00081b08       ??$message_box@PEAUHWND__@@AEBQEB_WAEBQEB_WAEBI@?$__crt_char_traits@_W@@SAH$$QEAPEAUHWND__@@AEBQEB_W1AEBI@Z 0000000180082b08 f i libucrt:crtmbox.obj
 0001:00081b80       ??$output_debug_string@AEBQEBD@?$__crt_char_traits@D@@SAXAEBQEBD@Z 0000000180082b80 f i libucrt:crtmbox.obj
 0001:00081b8c       ??$output_debug_string@AEBQEB_W@?$__crt_char_traits@_W@@SAXAEBQEB_W@Z 0000000180082b8c f i libucrt:crtmbox.obj
 0001:00081b98       ??0?$__crt_unique_handle_t@U__crt_handle_traits@@@@QEAA@QEAX@Z 0000000180082b98 f i libucrt:crtmbox.obj
 0001:00081ba0       ??1?$__crt_unique_handle_t@U__crt_handle_traits@@@@QEAA@XZ 0000000180082ba0 f i libucrt:crtmbox.obj
 0001:00081bcc       ??B?$__crt_unique_handle_t@U__crt_handle_traits@@@@QEBA_NXZ 0000000180082bcc f i libucrt:crtmbox.obj
 0001:00081bd8       ?close@?$__crt_unique_handle_t@U__crt_handle_traits@@@@QEAAXXZ 0000000180082bd8 f i libucrt:crtmbox.obj
 0001:00081c04       ?close@__crt_handle_traits@@SA_NPEAX@Z 0000000180082c04 f i libucrt:crtmbox.obj
 0001:00081c20       ?get@?$__crt_unique_handle_t@U__crt_handle_traits@@@@QEBAPEAXXZ 0000000180082c20 f i libucrt:crtmbox.obj
 0001:00081c24       ?get_invalid_value@__crt_handle_traits@@SAPEAXXZ 0000000180082c24 f i libucrt:crtmbox.obj
 0001:00081c2c       ?is_valid@?$__crt_unique_handle_t@U__crt_handle_traits@@@@QEBA_NXZ 0000000180082c2c f i libucrt:crtmbox.obj
 0001:00081c38       __acrt_show_narrow_message_box 0000000180082c38 f   libucrt:crtmbox.obj
 0001:00081d98       __acrt_show_wide_message_box 0000000180082d98 f   libucrt:crtmbox.obj
 0001:00081ef8       ??$?RV<lambda_9fda798407f8391327e99fec20084266>@@AEAV<lambda_6e3e78bb6855d1e4040e022c1b427e22>@@V<lambda_5d54a80e00f5dcce6acfc22736ebf0cf>@@@?$__crt_seh_guarded_call@G@@QEAAG$$QEAV<lambda_9fda798407f8391327e99fec20084266>@@AEAV<lambda_6e3e78bb6855d1e4040e022c1b427e22>@@$$QEAV<lambda_5d54a80e00f5dcce6acfc22736ebf0cf>@@@Z 0000000180082ef8 f i libucrt:putwch.obj
 0001:00081f48       ??$__acrt_lock_and_call@V<lambda_6e3e78bb6855d1e4040e022c1b427e22>@@@@YAGW4__acrt_lock_id@@$$QEAV<lambda_6e3e78bb6855d1e4040e022c1b427e22>@@@Z 0000000180082f48 f i libucrt:putwch.obj
 0001:00081fb8       _putwch                    0000000180082fb8 f   libucrt:putwch.obj
 0001:00082004       _putwch_nolock             0000000180083004 f   libucrt:putwch.obj
 0001:00082190       _clearfp                   0000000180083190 f   libucrt:ieee.obj
 0001:000821f8       _control87                 00000001800831f8 f   libucrt:ieee.obj
 0001:00082200       _controlfp                 0000000180083200 f   libucrt:ieee.obj
 0001:0008220c       _fpreset                   000000018008320c f   libucrt:ieee.obj
 0001:000822e8       _set_controlfp             00000001800832e8 f   libucrt:ieee.obj
 0001:0008232c       _statusfp                  000000018008332c f   libucrt:ieee.obj
 0001:000826d0       __acrt_initialize_fma3     00000001800836d0 f   libucrt:fma3_available.obj
 0001:0008275c       _get_FMA3_enable           000000018008375c f   libucrt:fma3_available.obj
 0001:00082764       _set_FMA3_enable           0000000180083764 f   libucrt:fma3_available.obj
 0001:00082780       _log10_special             0000000180083780 f   libucrt:log_special.obj
 0001:000827a8       _log10f_special            00000001800837a8 f   libucrt:log_special.obj
 0001:000827d0       _log_special               00000001800837d0 f   libucrt:log_special.obj
 0001:000828b4       _logf_special              00000001800838b4 f   libucrt:log_special.obj
 0001:000829a0       ??$?RV<lambda_bfedae4ebbf01fab1bb6dcc6a9e276e0>@@AEAV<lambda_2fe9b910cf3cbf4a0ab98a02ba45b3ec>@@V<lambda_237c231691f317818eb88cc1d5d642d6>@@@?$__crt_seh_guarded_call@H@@QEAAH$$QEAV<lambda_bfedae4ebbf01fab1bb6dcc6a9e276e0>@@AEAV<lambda_2fe9b910cf3cbf4a0ab98a02ba45b3ec>@@$$QEAV<lambda_237c231691f317818eb88cc1d5d642d6>@@@Z 00000001800839a0 f i libucrt:close.obj
 0001:00082a30       ??$__acrt_lowio_lock_fh_and_call@V<lambda_2fe9b910cf3cbf4a0ab98a02ba45b3ec>@@@@YAHH$$QEAV<lambda_2fe9b910cf3cbf4a0ab98a02ba45b3ec>@@@Z 0000000180083a30 f i libucrt:close.obj
 0001:00082b88       _close                     0000000180083b88 f   libucrt:close.obj
 0001:00082c54       _close_nolock              0000000180083c54 f   libucrt:close.obj
 0001:00082d3c       ??$?RU__crt_stdio_stream_data@@@__crt_internal_free_policy@@QEBAXQEBU__crt_stdio_stream_data@@@Z 0000000180083d3c f i libucrt:stream.obj
 0001:00082d48       ??0?$__crt_unique_heap_ptr@U__crt_stdio_stream_data@@U__crt_internal_free_policy@@@@QEAA@QEAU__crt_stdio_stream_data@@@Z 0000000180083d48 f i libucrt:stream.obj
 0001:00082d50       ??0__crt_stdio_stream@@QEAA@XZ 0000000180083d50 f i libucrt:stream.obj
 0001:00082d5c       ??1?$__crt_unique_heap_ptr@U__crt_stdio_stream_data@@U__crt_internal_free_policy@@@@QEAA@XZ 0000000180083d5c f i libucrt:stream.obj
 0001:00082d80       ?__acrt_stdio_allocate_stream@@YA?AV__crt_stdio_stream@@XZ 0000000180083d80 f   libucrt:stream.obj
 0001:00082df0       ?__acrt_stdio_free_stream@@YAXV__crt_stdio_stream@@@Z 0000000180083df0 f   libucrt:stream.obj
 0001:00082e44       ?deallocate@__crt_stdio_stream@@QEAAXXZ 0000000180083e44 f i libucrt:stream.obj
 0001:00082e50       ?detach@?$__crt_unique_heap_ptr@U__crt_stdio_stream_data@@U__crt_internal_free_policy@@@@QEAAPEAU__crt_stdio_stream_data@@XZ 0000000180083e50 f i libucrt:stream.obj
 0001:00082f80       ?lock@__crt_stdio_stream@@QEBAXXZ 0000000180083f80 f i libucrt:stream.obj
 0001:00082f8c       ?release@?$__crt_unique_heap_ptr@U__crt_stdio_stream_data@@U__crt_internal_free_policy@@@@QEAAXXZ 0000000180083f8c f i libucrt:stream.obj
 0001:00082fb0       ?try_allocate@__crt_stdio_stream@@QEAA_NXZ 0000000180083fb0 f i libucrt:stream.obj
 0001:00082fd8       ?unlock@__crt_stdio_stream@@QEBAXXZ 0000000180083fd8 f i libucrt:stream.obj
 0001:00082fe4       _towlower_l                0000000180083fe4 f   libucrt:towlower.obj
 0001:000830dc       towlower                   00000001800840dc f   libucrt:towlower.obj
 0001:000830e4       fetestexcept               00000001800840e4 f   libucrt:fetestexcept.obj
 0001:00083110       __dcrt_lowio_initialize_console_output 0000000180084110 f   libucrt:initcon.obj
 0001:0008315c       __dcrt_terminate_console_output 000000018008415c f   libucrt:initcon.obj
 0001:00083184       __acrt_LCMapStringW        0000000180084184 f   libucrt:lcmapstringw.obj
 0001:0008322c       InitializeSListHead        000000018008422c f   kernel32:KERNEL32.dll
 0001:00083232       QueryPerformanceCounter    0000000180084232 f   kernel32:KERNEL32.dll
 0001:00083238       GetCurrentProcessId        0000000180084238 f   kernel32:KERNEL32.dll
 0001:0008323e       GetCurrentThreadId         000000018008423e f   kernel32:KERNEL32.dll
 0001:00083244       GetSystemTimeAsFileTime    0000000180084244 f   kernel32:KERNEL32.dll
 0001:0008324a       RtlCaptureContext          000000018008424a f   kernel32:KERNEL32.dll
 0001:00083250       RtlLookupFunctionEntry     0000000180084250 f   kernel32:KERNEL32.dll
 0001:00083256       RtlVirtualUnwind           0000000180084256 f   kernel32:KERNEL32.dll
 0001:0008325c       IsDebuggerPresent          000000018008425c f   kernel32:KERNEL32.dll
 0001:00083262       UnhandledExceptionFilter   0000000180084262 f   kernel32:KERNEL32.dll
 0001:00083268       SetUnhandledExceptionFilter 0000000180084268 f   kernel32:KERNEL32.dll
 0001:0008326e       GetStartupInfoW            000000018008426e f   kernel32:KERNEL32.dll
 0001:00083274       IsProcessorFeaturePresent  0000000180084274 f   kernel32:KERNEL32.dll
 0001:0008327a       GetModuleHandleW           000000018008427a f   kernel32:KERNEL32.dll
 0001:00083280       InterlockedPushEntrySList  0000000180084280 f   kernel32:KERNEL32.dll
 0001:00083286       InterlockedFlushSList      0000000180084286 f   kernel32:KERNEL32.dll
 0001:0008328c       RtlUnwindEx                000000018008428c f   kernel32:KERNEL32.dll
 0001:00083292       GetLastError               0000000180084292 f   kernel32:KERNEL32.dll
 0001:00083298       SetLastError               0000000180084298 f   kernel32:KERNEL32.dll
 0001:0008329e       EnterCriticalSection       000000018008429e f   kernel32:KERNEL32.dll
 0001:000832a4       LeaveCriticalSection       00000001800842a4 f   kernel32:KERNEL32.dll
 0001:000832aa       DeleteCriticalSection      00000001800842aa f   kernel32:KERNEL32.dll
 0001:000832b0       InitializeCriticalSectionAndSpinCount 00000001800842b0 f   kernel32:KERNEL32.dll
 0001:000832b6       TlsAlloc                   00000001800842b6 f   kernel32:KERNEL32.dll
 0001:000832bc       TlsGetValue                00000001800842bc f   kernel32:KERNEL32.dll
 0001:000832c2       TlsSetValue                00000001800842c2 f   kernel32:KERNEL32.dll
 0001:000832c8       TlsFree                    00000001800842c8 f   kernel32:KERNEL32.dll
 0001:000832ce       FreeLibrary                00000001800842ce f   kernel32:KERNEL32.dll
 0001:000832d4       GetProcAddress             00000001800842d4 f   kernel32:KERNEL32.dll
 0001:000832da       LoadLibraryExW             00000001800842da f   kernel32:KERNEL32.dll
 0001:000832e0       GetCurrentProcess          00000001800842e0 f   kernel32:KERNEL32.dll
 0001:000832e6       ExitProcess                00000001800842e6 f   kernel32:KERNEL32.dll
 0001:000832ec       TerminateProcess           00000001800842ec f   kernel32:KERNEL32.dll
 0001:000832f2       GetModuleHandleExW         00000001800842f2 f   kernel32:KERNEL32.dll
 0001:000832f8       GetModuleFileNameA         00000001800842f8 f   kernel32:KERNEL32.dll
 0001:000832fe       GetModuleFileNameW         00000001800842fe f   kernel32:KERNEL32.dll
 0001:00083304       MultiByteToWideChar        0000000180084304 f   kernel32:KERNEL32.dll
 0001:0008330a       WideCharToMultiByte        000000018008430a f   kernel32:KERNEL32.dll
 0001:00083310       HeapFree                   0000000180084310 f   kernel32:KERNEL32.dll
 0001:00083316       HeapAlloc                  0000000180084316 f   kernel32:KERNEL32.dll
 0001:0008331c       GetCurrentThread           000000018008431c f   kernel32:KERNEL32.dll
 0001:00083322       GetDateFormatW             0000000180084322 f   kernel32:KERNEL32.dll
 0001:00083328       GetTimeFormatW             0000000180084328 f   kernel32:KERNEL32.dll
 0001:0008332e       CompareStringW             000000018008432e f   kernel32:KERNEL32.dll
 0001:00083334       LCMapStringW               0000000180084334 f   kernel32:KERNEL32.dll
 0001:0008333a       GetLocaleInfoW             000000018008433a f   kernel32:KERNEL32.dll
 0001:00083340       IsValidLocale              0000000180084340 f   kernel32:KERNEL32.dll
 0001:00083346       GetUserDefaultLCID         0000000180084346 f   kernel32:KERNEL32.dll
 0001:0008334c       EnumSystemLocalesW         000000018008434c f   kernel32:KERNEL32.dll
 0001:00083352       FindClose                  0000000180084352 f   kernel32:KERNEL32.dll
 0001:00083358       FindFirstFileExA           0000000180084358 f   kernel32:KERNEL32.dll
 0001:0008335e       FindFirstFileExW           000000018008435e f   kernel32:KERNEL32.dll
 0001:00083364       FindNextFileA              0000000180084364 f   kernel32:KERNEL32.dll
 0001:0008336a       FindNextFileW              000000018008436a f   kernel32:KERNEL32.dll
 0001:00083370       IsValidCodePage            0000000180084370 f   kernel32:KERNEL32.dll
 0001:00083376       GetACP                     0000000180084376 f   kernel32:KERNEL32.dll
 0001:0008337c       GetOEMCP                   000000018008437c f   kernel32:KERNEL32.dll
 0001:00083382       GetCPInfo                  0000000180084382 f   kernel32:KERNEL32.dll
 0001:00083388       GetCommandLineA            0000000180084388 f   kernel32:KERNEL32.dll
 0001:0008338e       GetCommandLineW            000000018008438e f   kernel32:KERNEL32.dll
 0001:00083394       GetEnvironmentStringsW     0000000180084394 f   kernel32:KERNEL32.dll
 0001:0008339a       FreeEnvironmentStringsW    000000018008439a f   kernel32:KERNEL32.dll
 0001:000833a0       SetEnvironmentVariableA    00000001800843a0 f   kernel32:KERNEL32.dll
 0001:000833a6       SetEnvironmentVariableW    00000001800843a6 f   kernel32:KERNEL32.dll
 0001:000833ac       GetProcessHeap             00000001800843ac f   kernel32:KERNEL32.dll
 0001:000833b2       GetStdHandle               00000001800843b2 f   kernel32:KERNEL32.dll
 0001:000833b8       GetFileType                00000001800843b8 f   kernel32:KERNEL32.dll
 0001:000833be       SetConsoleCtrlHandler      00000001800843be f   kernel32:KERNEL32.dll
 0001:000833c4       GetStringTypeW             00000001800843c4 f   kernel32:KERNEL32.dll
 0001:000833ca       RaiseException             00000001800843ca f   kernel32:KERNEL32.dll
 0001:000833d0       HeapSize                   00000001800843d0 f   kernel32:KERNEL32.dll
 0001:000833d6       HeapReAlloc                00000001800843d6 f   kernel32:KERNEL32.dll
 0001:000833dc       SetStdHandle               00000001800843dc f   kernel32:KERNEL32.dll
 0001:000833e2       WriteFile                  00000001800843e2 f   kernel32:KERNEL32.dll
 0001:000833e8       FlushFileBuffers           00000001800843e8 f   kernel32:KERNEL32.dll
 0001:000833ee       GetConsoleCP               00000001800843ee f   kernel32:KERNEL32.dll
 0001:000833f4       GetConsoleMode             00000001800843f4 f   kernel32:KERNEL32.dll
 0001:000833fa       SetFilePointerEx           00000001800843fa f   kernel32:KERNEL32.dll
 0001:00083400       OutputDebugStringA         0000000180084400 f   kernel32:KERNEL32.dll
 0001:00083406       OutputDebugStringW         0000000180084406 f   kernel32:KERNEL32.dll
 0001:0008340c       CloseHandle                000000018008440c f   kernel32:KERNEL32.dll
 0001:00083412       WaitForSingleObjectEx      0000000180084412 f   kernel32:KERNEL32.dll
 0001:00083418       CreateThread               0000000180084418 f   kernel32:KERNEL32.dll
 0001:0008341e       WriteConsoleW              000000018008441e f   kernel32:KERNEL32.dll
 0001:00083424       CreateFileW                0000000180084424 f   kernel32:KERNEL32.dll
 0001:00083430       _FindPESection             0000000180084430 f   LIBCMT:pesect.obj
 0001:00083490       _IsNonwritableInCurrentImage 0000000180084490 f   LIBCMT:pesect.obj
 0001:000834f0       _ValidateImageBase         00000001800844f0 f   LIBCMT:pesect.obj
 0001:0008352c       __GSHandlerCheck           000000018008452c f   LIBCMT:_gshandler_.obj
 0001:00083550       __GSHandlerCheckCommon     0000000180084550 f   LIBCMT:_gshandler_.obj
 0001:000835e0       __security_check_cookie    00000001800845e0 f   LIBCMT:_amdsecgs_.obj
 0001:00083610       __raise_securityfailure    0000000180084610 f   LIBCMT:gs_report.obj
 0001:00083654       __report_gsfailure         0000000180084654 f   LIBCMT:gs_report.obj
 0001:0008375c       __report_rangecheckfailure 000000018008475c f   LIBCMT:gs_report.obj
 0001:00083774       __report_securityfailure   0000000180084774 f   LIBCMT:gs_report.obj
 0001:00083838       __report_securityfailureEx 0000000180084838 f   LIBCMT:gs_report.obj
 0001:00083aa4       strchr                     0000000180084aa4 f   libvcruntime:strchr.obj
 0001:00083b50       wcschr                     0000000180084b50 f   libvcruntime:wcschr.obj
 0001:00083c08       strrchr                    0000000180084c08 f   libvcruntime:strrchr.obj
 0001:00083dc0       memcmp                     0000000180084dc0 f   libvcruntime:memcmp.obj
 0001:00085b50       _guard_dispatch_icall_nop  0000000180086b50 f   LIBCMT:_guard_dispatch_.obj
 0001:00085b70       __guard_ss_verify_failure  0000000180086b70 f   LIBCMT:_rfgfailure_.obj
 0001:00085b7b       __guard_ss_verify_failure_rcx 0000000180086b7b     LIBCMT:_rfgfailure_.obj
 0001:00085b81       __guard_ss_verify_failure_rdx 0000000180086b81     LIBCMT:_rfgfailure_.obj
 0001:00085b87       __guard_ss_verify_failure_r8 0000000180086b87     LIBCMT:_rfgfailure_.obj
 0001:00085b8d       __guard_ss_verify_failure_r9 0000000180086b8d     LIBCMT:_rfgfailure_.obj
 0001:00085b93       __guard_ss_verify_failure_r10 0000000180086b93     LIBCMT:_rfgfailure_.obj
 0001:00085ba0       __guard_ss_verify_failure_default 0000000180086ba0 f   LIBCMT:_rfgfailure_.obj
 0001:00085c00       __guard_ss_verify_sp       0000000180086c00 f   LIBCMT:_rfgfailure_.obj
 0001:00085c10       __guard_ss_verify_sp_default 0000000180086c10 f   LIBCMT:_rfgfailure_.obj
 0002:00000000       __xc_a                     000000018008a000     LIBCMT:initializers.obj
 0002:00000250       __xc_z                     000000018008a250     LIBCMT:initializers.obj
 0002:00000360       __xi_a                     000000018008a360     LIBCMT:initializers.obj
 0002:00000470       __acrt_multibyte_initializer 000000018008a470     libucrt:multibyte_initializer.obj
 0002:00000480       __acrt_stdio_initializer   000000018008a480     libucrt:stdio_initializer.obj
 0002:00000490       __acrt_tran_fma3_initializer 000000018008a490     libucrt:fma3_initializer.obj
 0002:000005a0       __xi_z                     000000018008a5a0     LIBCMT:initializers.obj
 0002:000006b0       __xp_a                     000000018008a6b0     LIBCMT:initializers.obj
 0002:000007c0       __acrt_locale_terminator   000000018008a7c0     libucrt:locale_initializer.obj
 0002:000007d0       __dcrt_console_output_terminator 000000018008a7d0     libucrt:console_output_initializer.obj
 0002:000008e0       __acrt_stdio_terminator    000000018008a8e0     libucrt:stdio_initializer.obj
 0002:000009f0       __xp_z                     000000018008a9f0     LIBCMT:initializers.obj
 0002:00000b00       __xt_a                     000000018008ab00     LIBCMT:initializers.obj
 0002:00000c10       __xt_z                     000000018008ac10     LIBCMT:initializers.obj
 0002:00000d20       ??_7PxController@physx@@6B@ 000000018008ad20     CctBoxController.obj
 0002:00000e20       ??_7PxControllerManager@physx@@6B@ 000000018008ae20     CctBoxController.obj
 0002:00000ed0       ??_7PxFoundation@physx@@6B@ 000000018008aed0     CctBoxController.obj
 0002:00000f20       ??_7PxBoxController@physx@@6B@ 000000018008af20     CctBoxController.obj
 0002:00001058       ??_7BoxController@Cct@physx@@6BPxBoxController@2@@ 000000018008b058     CctBoxController.obj
 0002:00001190       ??_7BoxController@Cct@physx@@6BController@12@@ 000000018008b190     CctBoxController.obj
 0002:000011b8       __real@3f000000            000000018008b1b8     CctBoxController.obj
 0002:000011c0       __xmm@3fe00000000000003fe0000000000000 000000018008b1c0     CctBoxController.obj
 0002:000011d8       ??_7PxCapsuleController@physx@@6B@ 000000018008b1d8     CctCapsuleController.obj
 0002:00001310       ??_7CapsuleController@Cct@physx@@6BPxCapsuleController@2@@ 000000018008b310     CctCapsuleController.obj
 0002:00001448       ??_7CapsuleController@Cct@physx@@6BController@12@@ 000000018008b448     CctCapsuleController.obj
 0002:00001470       ??_7?$PxHitCallback@UPxRaycastHit@physx@@@physx@@6B@ 000000018008b470     CctCharacterController.obj
 0002:00001490       ??_7?$PxHitBuffer@UPxRaycastHit@physx@@@physx@@6B@ 000000018008b490     CctCharacterController.obj
 0002:000014b0       ??_7PxQueryFilterCallback@physx@@6B@ 000000018008b4b0     CctCharacterController.obj
 0002:000014f0       ??_C@_0BJ@ONMIBLA@sweepTestTriangleIndices?$AA@ 000000018008b4f0     CctCharacterController.obj
 0002:00001510       ??_C@_0BA@MNOANCHM@sweepTestStream?$AA@ 000000018008b510     CctCharacterController.obj
 0002:00001528       ??_C@_0CA@CFKKDOLG@CharacterController?4doSweepTest?$AA@ 000000018008b528     CctCharacterController.obj
 0002:00001550       ??_C@_0CC@KMLEHBGF@CharacterController?4moveCharacte@ 000000018008b550     CctCharacterController.obj
 0002:00001578       ??_7ControllerFilter@@6B@  000000018008b578     CctCharacterController.obj
 0002:00001598       ??_C@_0CP@PMDHKMKE@CharacterController?4filterCandid@ 000000018008b598     CctCharacterController.obj
 0002:000015d0       ??_C@_0BJ@FHANBDIB@CharacterController?4move?$AA@ 000000018008b5d0     CctCharacterController.obj
 0002:000015f0       ??_C@_0DO@PFMHKFBL@W?3?2PhysX?93?44?9master?2PxShared?2src@ 000000018008b5f0     CctCharacterController.obj
 0002:0000163c       __real@358637bd            000000018008b63c     CctCharacterController.obj
 0002:00001640       __real@3dcccccd            000000018008b640     CctCharacterController.obj
 0002:00001644       __real@3ee66666            000000018008b644     CctCharacterController.obj
 0002:00001648       __real@3f800000            000000018008b648     CctCharacterController.obj
 0002:00001650       __real@3fe0000000000000    000000018008b650     CctCharacterController.obj
 0002:0000165c       __real@7f7fffff            000000018008b65c     CctCharacterController.obj
 0002:00001660       __xmm@0000000000000000000000003f800000 000000018008b660     CctCharacterController.obj
 0002:00001680       __xmm@00000000000000007f7fffff00000000 000000018008b680     CctCharacterController.obj
 0002:000016a0       __xmm@3f800000000000000000000000000000 000000018008b6a0     CctCharacterController.obj
 0002:000016c0       __xmm@7fffffff7fffffff7fffffff7fffffff 000000018008b6c0     CctCharacterController.obj
 0002:000016e0       __xmm@80000000800000008000000080000000 000000018008b6e0     CctCharacterController.obj
 0002:00001700       ?g_PXSinCoefficients0@aos@shdfnd@physx@@3UPX_VECTORF32@123@B 000000018008b700     CctCharacterControllerCallbacks.obj
 0002:00001720       ?g_PXSinCoefficients1@aos@shdfnd@physx@@3UPX_VECTORF32@123@B 000000018008b720     CctCharacterControllerCallbacks.obj
 0002:00001740       ?g_PXSinCoefficients2@aos@shdfnd@physx@@3UPX_VECTORF32@123@B 000000018008b740     CctCharacterControllerCallbacks.obj
 0002:00001760       ?g_PXCosCoefficients0@aos@shdfnd@physx@@3UPX_VECTORF32@123@B 000000018008b760     CctCharacterControllerCallbacks.obj
 0002:00001780       ?g_PXCosCoefficients1@aos@shdfnd@physx@@3UPX_VECTORF32@123@B 000000018008b780     CctCharacterControllerCallbacks.obj
 0002:000017a0       ?g_PXCosCoefficients2@aos@shdfnd@physx@@3UPX_VECTORF32@123@B 000000018008b7a0     CctCharacterControllerCallbacks.obj
 0002:000017c0       ?g_PXTanCoefficients0@aos@shdfnd@physx@@3UPX_VECTORF32@123@B 000000018008b7c0     CctCharacterControllerCallbacks.obj
 0002:000017e0       ?g_PXTanCoefficients1@aos@shdfnd@physx@@3UPX_VECTORF32@123@B 000000018008b7e0     CctCharacterControllerCallbacks.obj
 0002:00001800       ?g_PXTanCoefficients2@aos@shdfnd@physx@@3UPX_VECTORF32@123@B 000000018008b800     CctCharacterControllerCallbacks.obj
 0002:00001820       ?g_PXASinCoefficients0@aos@shdfnd@physx@@3UPX_VECTORF32@123@B 000000018008b820     CctCharacterControllerCallbacks.obj
 0002:00001840       ?g_PXASinCoefficients1@aos@shdfnd@physx@@3UPX_VECTORF32@123@B 000000018008b840     CctCharacterControllerCallbacks.obj
 0002:00001860       ?g_PXASinCoefficients2@aos@shdfnd@physx@@3UPX_VECTORF32@123@B 000000018008b860     CctCharacterControllerCallbacks.obj
 0002:00001880       ?g_PXATanCoefficients0@aos@shdfnd@physx@@3UPX_VECTORF32@123@B 000000018008b880     CctCharacterControllerCallbacks.obj
 0002:000018a0       ?g_PXATanCoefficients1@aos@shdfnd@physx@@3UPX_VECTORF32@123@B 000000018008b8a0     CctCharacterControllerCallbacks.obj
 0002:000018c0       ?g_PXATanCoefficients2@aos@shdfnd@physx@@3UPX_VECTORF32@123@B 000000018008b8c0     CctCharacterControllerCallbacks.obj
 0002:000018e0       ?g_PXSinEstCoefficients@aos@shdfnd@physx@@3UPX_VECTORF32@123@B 000000018008b8e0     CctCharacterControllerCallbacks.obj
 0002:00001900       ?g_PXCosEstCoefficients@aos@shdfnd@physx@@3UPX_VECTORF32@123@B 000000018008b900     CctCharacterControllerCallbacks.obj
 0002:00001920       ?g_PXTanEstCoefficients@aos@shdfnd@physx@@3UPX_VECTORF32@123@B 000000018008b920     CctCharacterControllerCallbacks.obj
 0002:00001940       ?g_PXATanEstCoefficients@aos@shdfnd@physx@@3UPX_VECTORF32@123@B 000000018008b940     CctCharacterControllerCallbacks.obj
 0002:00001960       ?g_PXASinEstCoefficients@aos@shdfnd@physx@@3UPX_VECTORF32@123@B 000000018008b960     CctCharacterControllerCallbacks.obj
 0002:00001980       ?g_PXASinEstConstants@aos@shdfnd@physx@@3UPX_VECTORF32@123@B 000000018008b980     CctCharacterControllerCallbacks.obj
 0002:000019a0       ?g_PXPiConstants0@aos@shdfnd@physx@@3UPX_VECTORF32@123@B 000000018008b9a0     CctCharacterControllerCallbacks.obj
 0002:000019c0       ?g_PXReciprocalTwoPi@aos@shdfnd@physx@@3UPX_VECTORF32@123@B 000000018008b9c0     CctCharacterControllerCallbacks.obj
 0002:000019e0       ?g_PXTwoPi@aos@shdfnd@physx@@3UPX_VECTORF32@123@B 000000018008b9e0     CctCharacterControllerCallbacks.obj
 0002:00001a28       ??_7?$PxHitCallback@UPxOverlapHit@physx@@@physx@@6B@ 000000018008ba28     CctCharacterControllerCallbacks.obj
 0002:00001a48       ??_7?$PxHitBuffer@UPxOverlapHit@physx@@@physx@@6B@ 000000018008ba48     CctCharacterControllerCallbacks.obj
 0002:00001a68       ??_C@_0CI@EALPEGI@CharacterController?4findTouchedG@ 000000018008ba68     CctCharacterControllerCallbacks.obj
 0002:00001a98       __real@3a83126f            000000018008ba98     CctCharacterControllerCallbacks.obj
 0002:00001a9c       __real@3c23d70a            000000018008ba9c     CctCharacterControllerCallbacks.obj
 0002:00001aa0       __real@3f7ff972            000000018008baa0     CctCharacterControllerCallbacks.obj
 0002:00001aa4       __real@7f7fc99e            000000018008baa4     CctCharacterControllerCallbacks.obj
 0002:00001aa8       __real@ba83126f            000000018008baa8     CctCharacterControllerCallbacks.obj
 0002:00001ab0       __xmm@000000003a83126f3a83126f3a83126f 000000018008bab0     CctCharacterControllerCallbacks.obj
 0002:00001ad0       __xmm@000000003f8000003f8000003f800000 000000018008bad0     CctCharacterControllerCallbacks.obj
 0002:00001af0       __xmm@00000000ba83126fba83126fba83126f 000000018008baf0     CctCharacterControllerCallbacks.obj
 0002:00001b10       __xmm@80000000000000008000000000000000 000000018008bb10     CctCharacterControllerCallbacks.obj
 0002:00001b28       ??_7PxRenderBuffer@physx@@6B@ 000000018008bb28     CctCharacterControllerManager.obj
 0002:00001b98       ??_7PxDeletionListener@physx@@6B@ 000000018008bb98     CctCharacterControllerManager.obj
 0002:00001bb0       ??_C@_0BA@DLCJDKDM@NonTrackedAlloc?$AA@ 000000018008bbb0     CctCharacterControllerManager.obj
 0002:00001bc8       ??_7RenderBuffer@Cm@physx@@6B@ 000000018008bbc8     CctCharacterControllerManager.obj
 0002:00001c38       ??_C@_0BD@LANCFJDL@renderBufferPoints?$AA@ 000000018008bc38     CctCharacterControllerManager.obj
 0002:00001c50       ??_C@_0BC@OOFKEPCD@renderBufferLines?$AA@ 000000018008bc50     CctCharacterControllerManager.obj
 0002:00001c68       ??_C@_0BG@IFGFFBGL@renderBufferTriangles?$AA@ 000000018008bc68     CctCharacterControllerManager.obj
 0002:00001c88       ??_C@_0BC@KMLJODNA@renderBufferTexts?$AA@ 000000018008bc88     CctCharacterControllerManager.obj
 0002:00001ca0       ??_C@_0BE@CNABNMDL@renderBufferCharBuf?$AA@ 000000018008bca0     CctCharacterControllerManager.obj
 0002:00001cb8       ??_7CharacterControllerManager@Cct@physx@@6BPxControllerManager@2@@ 000000018008bcb8     CctCharacterControllerManager.obj
 0002:00001d68       ??_7CharacterControllerManager@Cct@physx@@6BPxDeletionListener@2@@ 000000018008bd68     CctCharacterControllerManager.obj
 0002:00001d80       ??_C@_0EE@IHHKBLHK@?4?4?2?4?4?2PhysXCharacterKinematic?2sr@ 000000018008bd80     CctCharacterControllerManager.obj
 0002:00001dd8       ??_C@_0DJ@FJGFFNLM@PxControllerManager?3?3getControll@ 000000018008bdd8     CctCharacterControllerManager.obj
 0002:00001e20       ??_C@_0DO@NLBEEDJJ@PxControllerManager?3?3getObstacle@ 000000018008be20     CctCharacterControllerManager.obj
 0002:00001e70       ??_C@_0DA@EMJKANDJ@CharacterControllerManager?3?3comp@ 000000018008be70     CctCharacterControllerManager.obj
 0002:00001eb0       ??_C@_0DO@PMKKKMGC@W?3?2PhysX?93?44?9master?2PxShared?2src@ 000000018008beb0     CctCharacterControllerManager.obj
 0002:00001f00       ??_C@_0BM@OIFKLHDN@?$DMallocation?5names?5disabled?$DO?$AA@ 000000018008bf00     CctCharacterControllerManager.obj
 0002:00001f30       ??_C@_0EG@EACFLJBA@w?3?2physx?93?44?9master?2pxshared?2src@ 000000018008bf30     CctCharacterControllerManager.obj
 0002:00001f84       __real@40800000            000000018008bf84     CctCharacterControllerManager.obj
 0002:00001f90       __xmm@00000001000000010000000100000001 000000018008bf90     CctCharacterControllerManager.obj
 0002:00001fb0       __xmm@00000003000000020000000100000000 000000018008bfb0     CctCharacterControllerManager.obj
 0002:00001fc8       ??_7Controller@Cct@physx@@6B@ 000000018008bfc8     CctController.obj
 0002:00001ff0       ??_C@_0CF@LJAGPAMD@CCT?3?5up?5direction?5must?5be?5normal@ 000000018008bff0     CctController.obj
 0002:00002020       ??_C@_0DE@LBFOOJJE@?4?4?2?4?4?2PhysXCharacterKinematic?2sr@ 000000018008c020     CctController.obj
 0002:00002060       __real@38d1b717            000000018008c060     CctController.obj
 0002:00002068       ??_7PxObstacleContext@physx@@6B@ 000000018008c068     CctObstacleContext.obj
 0002:000020c0       ??_7ObstacleContext@Cct@physx@@6B@ 000000018008c0c0     CctObstacleContext.obj
 0002:00002118       ??_C@_0O@IPJBGLCC@HandleManager?$AA@ 000000018008c118     CctObstacleContext.obj
 0002:00002128       ??_C@_0DJ@FPEJDNHL@?4?4?2?4?4?2PhysXCharacterKinematic?2sr@ 000000018008c128     CctObstacleContext.obj
 0002:00002170       ??_7SweptBox@Cct@physx@@6B@ 000000018008c170     CctSweptBox.obj
 0002:00002188       ??_7SweptCapsule@Cct@physx@@6B@ 000000018008c188     CctSweptCapsule.obj
 0002:000021a0       ??_7SweptVolume@Cct@physx@@6B@ 000000018008c1a0     CctSweptVolume.obj
 0002:000021b8       ??_C@_0BP@LLBHALBD@PxMeshOverlapUtil?3?3findOverlap?$AA@ 000000018008c1b8     PhysX3ExtensionsCHECKED:ExtTriangleMeshExt.obj
 0002:000021e0       ??_C@_0DB@HFONPIBD@?4?4?2?4?4?2PhysXExtensions?2src?2ExtTri@ 000000018008c1e0     PhysX3ExtensionsCHECKED:ExtTriangleMeshExt.obj
 0002:00002220       ??_7?$PxHitCallback@UPxSweepHit@physx@@@physx@@6B@ 000000018008c220     PhysX3ExtensionsCHECKED:ExtRigidBodyExt.obj
 0002:00002240       ??_7?$PxHitBuffer@UPxSweepHit@physx@@@physx@@6B@ 000000018008c240     PhysX3ExtensionsCHECKED:ExtRigidBodyExt.obj
 0002:00002260       ??_C@_0IE@PMLMABKM@?$CFs?3?5inertia?5tensor?5has?5negative?5@ 000000018008c260     PhysX3ExtensionsCHECKED:ExtRigidBodyExt.obj
 0002:00002300       ??_C@_0CO@PEEEKJKP@?4?4?2?4?4?2PhysXExtensions?2src?2ExtRig@ 000000018008c300     PhysX3ExtensionsCHECKED:ExtRigidBodyExt.obj
 0002:00002338       ??_C@_08MJBGFJN@PxShape?$CK?$AA@ 000000018008c338     PhysX3ExtensionsCHECKED:ExtRigidBodyExt.obj
 0002:00002350       ??_C@_0ED@GFJAKEFC@computeMassAndInertia?3?5Provided?5@ 000000018008c350     PhysX3ExtensionsCHECKED:ExtRigidBodyExt.obj
 0002:000023a0       ??_C@_0FL@MGPHIFPL@computeMassAndInertia?3?5Not?5enoug@ 000000018008c3a0     PhysX3ExtensionsCHECKED:ExtRigidBodyExt.obj
 0002:00002410       ??_C@_0ED@IINBLCPB@computeMassAndInertia?3?5Dynamic?5a@ 000000018008c410     PhysX3ExtensionsCHECKED:ExtRigidBodyExt.obj
 0002:00002460       ??_C@_0CF@NFENOJIA@PxRigidBodyExt?3?3updateMassAndIne@ 000000018008c460     PhysX3ExtensionsCHECKED:ExtRigidBodyExt.obj
 0002:00002490       ??_C@_0FC@JIKFFKAL@?$CFs?3?5Mass?5and?5inertia?5computation@ 000000018008c490     PhysX3ExtensionsCHECKED:ExtRigidBodyExt.obj
 0002:00002500       ??_C@_0ED@BHIJHOEP@?$CFs?3?5No?5density?5specified?0?5settin@ 000000018008c500     PhysX3ExtensionsCHECKED:ExtRigidBodyExt.obj
 0002:00002550       ??_C@_0CI@NNBNKKJG@PxRigidBodyExt?3?3setMassAndUpdate@ 000000018008c550     PhysX3ExtensionsCHECKED:ExtRigidBodyExt.obj
 0002:00002580       ??_C@_0EA@JNKKHEHF@?$CFs?3?5No?5mass?5specified?0?5setting?5m@ 000000018008c580     PhysX3ExtensionsCHECKED:ExtRigidBodyExt.obj
 0002:000025d0       ??_C@_0FI@DKLFOMEB@PxRigidBodyExt?3?3addForce?5methods@ 000000018008c5d0     PhysX3ExtensionsCHECKED:ExtRigidBodyExt.obj
 0002:00002640       ??_C@_0DO@JBBNMKIJ@w?3?2physx?93?44?9master?2pxshared?2src@ 000000018008c640     PhysX3ExtensionsCHECKED:ExtRigidBodyExt.obj
 0002:0000268c       __real@3daaaaab            000000018008c68c     PhysX3ExtensionsCHECKED:ExtRigidBodyExt.obj
 0002:00002690       __real@3e747645            000000018008c690     PhysX3ExtensionsCHECKED:ExtRigidBodyExt.obj
 0002:00002694       __real@3e800000            000000018008c694     PhysX3ExtensionsCHECKED:ExtRigidBodyExt.obj
 0002:00002698       __real@3eaaaaab            000000018008c698     PhysX3ExtensionsCHECKED:ExtRigidBodyExt.obj
 0002:0000269c       __real@3ecccccd            000000018008c69c     PhysX3ExtensionsCHECKED:ExtRigidBodyExt.obj
 0002:000026a0       __real@3f088889            000000018008c6a0     PhysX3ExtensionsCHECKED:ExtRigidBodyExt.obj
 0002:000026a4       __real@3f2aaaab            000000018008c6a4     PhysX3ExtensionsCHECKED:ExtRigidBodyExt.obj
 0002:000026a8       __real@3f8147ae            000000018008c6a8     PhysX3ExtensionsCHECKED:ExtRigidBodyExt.obj
 0002:000026ac       __real@3f860a92            000000018008c6ac     PhysX3ExtensionsCHECKED:ExtRigidBodyExt.obj
 0002:000026b0       __real@3faaaaab            000000018008c6b0     PhysX3ExtensionsCHECKED:ExtRigidBodyExt.obj
 0002:000026b4       __real@3fc00000            000000018008c6b4     PhysX3ExtensionsCHECKED:ExtRigidBodyExt.obj
 0002:000026b8       __real@40000000            000000018008c6b8     PhysX3ExtensionsCHECKED:ExtRigidBodyExt.obj
 0002:000026bc       __real@402aaaab            000000018008c6bc     PhysX3ExtensionsCHECKED:ExtRigidBodyExt.obj
 0002:000026c0       __real@40490fdb            000000018008c6c0     PhysX3ExtensionsCHECKED:ExtRigidBodyExt.obj
 0002:000026c4       __real@40860a92            000000018008c6c4     PhysX3ExtensionsCHECKED:ExtRigidBodyExt.obj
 0002:000026c8       __real@40c90fdb            000000018008c6c8     PhysX3ExtensionsCHECKED:ExtRigidBodyExt.obj
 0002:000026cc       __real@41000000            000000018008c6cc     PhysX3ExtensionsCHECKED:ExtRigidBodyExt.obj
 0002:000026d0       __xmm@7f7fffff000000000000000000000000 000000018008c6d0     PhysX3ExtensionsCHECKED:ExtRigidBodyExt.obj
 0002:000026f0       ??_7type_info@@6B@         000000018008c6f0     LIBCMT:std_type_info_static.obj
 0002:00002700       _pRawDllMain               000000018008c700     LIBCMT:dll_dllmain.obj
 0002:00002700       _pDefaultRawDllMain        000000018008c700     LIBCMT:dll_dllmain.obj
 0002:00002ae0       ??_C@_08EHJDFFNH@__based?$CI?$AA@ 000000018008cae0     libvcruntime:undname.obj
 0002:00002af0       ??_C@_07KOLFKCDI@__cdecl?$AA@ 000000018008caf0     libvcruntime:undname.obj
 0002:00002b00       ??_C@_08GHMPAG@__pascal?$AA@ 000000018008cb00     libvcruntime:undname.obj
 0002:00002b10       ??_C@_09IFJBGAPI@__stdcall?$AA@ 000000018008cb10     libvcruntime:undname.obj
 0002:00002b20       ??_C@_0L@NPHFGOKO@__thiscall?$AA@ 000000018008cb20     libvcruntime:undname.obj
 0002:00002b30       ??_C@_0L@JMKHOMEK@__fastcall?$AA@ 000000018008cb30     libvcruntime:undname.obj
 0002:00002b40       ??_C@_0N@BCKKPABJ@__vectorcall?$AA@ 000000018008cb40     libvcruntime:undname.obj
 0002:00002b50       ??_C@_09HIJEGCPM@__clrcall?$AA@ 000000018008cb50     libvcruntime:undname.obj
 0002:00002b5c       ??_C@_06GHPCKEAG@__eabi?$AA@ 000000018008cb5c     libvcruntime:undname.obj
 0002:00002b68       ??_C@_07JOMMBBKO@__ptr64?$AA@ 000000018008cb68     libvcruntime:undname.obj
 0002:00002b78       ??_C@_0L@PILCLIHE@__restrict?$AA@ 000000018008cb78     libvcruntime:undname.obj
 0002:00002b88       ??_C@_0M@GFIIJFMG@__unaligned?$AA@ 000000018008cb88     libvcruntime:undname.obj
 0002:00002b98       ??_C@_09DHDLOLLB@restrict?$CI?$AA@ 000000018008cb98     libvcruntime:undname.obj
 0002:00002ba4       ??_C@_00CNPNBAHC@?$AA@     000000018008cba4     libvcruntime:undname.obj
 0002:00002ba8       ??_C@_04NIHEBCM@?5new?$AA@ 000000018008cba8     libvcruntime:undname.obj
 0002:00002bb0       ??_C@_07FPCDHGMM@?5delete?$AA@ 000000018008cbb0     libvcruntime:undname.obj
 0002:00002bbc       ??_C@_01NEMOKFLO@?$DN?$AA@ 000000018008cbbc     libvcruntime:undname.obj
 0002:00002bc0       ??_C@_02GPIOPFAK@?$DO?$DO?$AA@ 000000018008cbc0     libvcruntime:undname.obj
 0002:00002bc4       ??_C@_02FODMEDOG@?$DM?$DM?$AA@ 000000018008cbc4     libvcruntime:undname.obj
 0002:00002bc8       ??_C@_01DCLJPIOD@?$CB?$AA@ 000000018008cbc8     libvcruntime:undname.obj
 0002:00002bcc       ??_C@_02EGOFBIJA@?$DN?$DN?$AA@ 000000018008cbcc     libvcruntime:undname.obj
 0002:00002bd0       ??_C@_02FDNJECIE@?$CB?$DN?$AA@ 000000018008cbd0     libvcruntime:undname.obj
 0002:00002bd4       ??_C@_02GPECMEKF@?$FL?$FN?$AA@ 000000018008cbd4     libvcruntime:undname.obj
 0002:00002bd8       ??_C@_08LHJFAFGD@operator?$AA@ 000000018008cbd8     libvcruntime:undname.obj
 0002:00002be4       ??_C@_02HBOOOICD@?9?$DO?$AA@ 000000018008cbe4     libvcruntime:undname.obj
 0002:00002be8       ??_C@_01NBENCBCI@?$CK?$AA@ 000000018008cbe8     libvcruntime:undname.obj
 0002:00002bec       ??_C@_02ECNGHCIF@?$CL?$CL?$AA@ 000000018008cbec     libvcruntime:undname.obj
 0002:00002bf0       ??_C@_02BAABKJLB@?9?9?$AA@ 000000018008cbf0     libvcruntime:undname.obj
 0002:00002bf4       ??_C@_01JOAMLHOP@?9?$AA@   000000018008cbf4     libvcruntime:undname.obj
 0002:00002bf8       ??_C@_01MIFGBAGJ@?$CL?$AA@ 000000018008cbf8     libvcruntime:undname.obj
 0002:00002bfc       ??_C@_01HNPIGOCE@?$CG?$AA@ 000000018008cbfc     libvcruntime:undname.obj
 0002:00002c00       ??_C@_03MNHNFDLC@?9?$DO?$CK?$AA@ 000000018008cc00     libvcruntime:undname.obj
 0002:00002c04       ??_C@_01KMDKNFGN@?1?$AA@   000000018008cc04     libvcruntime:undname.obj
 0002:00002c08       ??_C@_01FGNFDNOH@?$CF?$AA@ 000000018008cc08     libvcruntime:undname.obj
 0002:00002c0c       ??_C@_01MNNFJEPP@?$DM?$AA@ 000000018008cc0c     libvcruntime:undname.obj
 0002:00002c10       ??_C@_02EHCHHCKH@?$DM?$DN?$AA@ 000000018008cc10     libvcruntime:undname.obj
 0002:00002c14       ??_C@_01PPODPGHN@?$DO?$AA@ 000000018008cc14     libvcruntime:undname.obj
 0002:00002c18       ??_C@_02EEKDKGMJ@?$DO?$DN?$AA@ 000000018008cc18     libvcruntime:undname.obj
 0002:00002c1c       ??_C@_01IHBHIGKO@?0?$AA@   000000018008cc1c     libvcruntime:undname.obj
 0002:00002c20       ??_C@_02HCKGKOFO@?$CI?$CJ?$AA@ 000000018008cc20     libvcruntime:undname.obj
 0002:00002c24       ??_C@_01PJKLJHI@?$HO?$AA@  000000018008cc24     libvcruntime:undname.obj
 0002:00002c28       ??_C@_01JKBOJNNK@?$FO?$AA@ 000000018008cc28     libvcruntime:undname.obj
 0002:00002c2c       ??_C@_01DNKMNLPK@?$HM?$AA@ 000000018008cc2c     libvcruntime:undname.obj
 0002:00002c30       ??_C@_02PPKAJPJL@?$CG?$CG?$AA@ 000000018008cc30     libvcruntime:undname.obj
 0002:00002c34       ??_C@_02NONPIBCD@?$HM?$HM?$AA@ 000000018008cc34     libvcruntime:undname.obj
 0002:00002c38       ??_C@_02FPIMKNGF@?$CK?$DN?$AA@ 000000018008cc38     libvcruntime:undname.obj
 0002:00002c3c       ??_C@_02FOEOMHFC@?$CL?$DN?$AA@ 000000018008cc3c     libvcruntime:undname.obj
 0002:00002c40       ??_C@_02FKMDLLOA@?9?$DN?$AA@ 000000018008cc40     libvcruntime:undname.obj
 0002:00002c44       ??_C@_02FJEHGPIO@?1?$DN?$AA@ 000000018008cc44     libvcruntime:undname.obj
 0002:00002c48       ??_C@_02FENAOKFI@?$CF?$DN?$AA@ 000000018008cc48     libvcruntime:undname.obj
 0002:00002c4c       ??_C@_03IKFCCPFF@?$DO?$DO?$DN?$AA@ 000000018008cc4c     libvcruntime:undname.obj
 0002:00002c50       ??_C@_03CDNPDDLA@?$DM?$DM?$DN?$AA@ 000000018008cc50     libvcruntime:undname.obj
 0002:00002c54       ??_C@_02FGJGFEAB@?$CG?$DN?$AA@ 000000018008cc54     libvcruntime:undname.obj
 0002:00002c58       ??_C@_02DHLNPPGH@?$HM?$DN?$AA@ 000000018008cc58     libvcruntime:undname.obj
 0002:00002c5c       ??_C@_02MHEGNOJ@?$FO?$DN?$AA@ 000000018008cc5c     libvcruntime:undname.obj
 0002:00002c60       ??_C@_09IFPLHPGF@?$GAvftable?8?$AA@ 000000018008cc60     libvcruntime:undname.obj
 0002:00002c70       ??_C@_09BLBHBJP@?$GAvbtable?8?$AA@ 000000018008cc70     libvcruntime:undname.obj
 0002:00002c80       ??_C@_07FEEIOKP@?$GAvcall?8?$AA@ 000000018008cc80     libvcruntime:undname.obj
 0002:00002c90       ??_C@_08LLFFHHDJ@?$GAtypeof?8?$AA@ 000000018008cc90     libvcruntime:undname.obj
 0002:00002ca0       ??_C@_0BF@KDPPACIK@?$GAlocal?5static?5guard?8?$AA@ 000000018008cca0     libvcruntime:undname.obj
 0002:00002cc0       ??_C@_08OBABFOLI@?$GAstring?8?$AA@ 000000018008ccc0     libvcruntime:undname.obj
 0002:00002cd0       ??_C@_0BD@JDLKDPAB@?$GAvbase?5destructor?8?$AA@ 000000018008ccd0     libvcruntime:undname.obj
 0002:00002ce8       ??_C@_0BN@DEGPLNFK@?$GAvector?5deleting?5destructor?8?$AA@ 000000018008cce8     libvcruntime:undname.obj
 0002:00002d10       ??_C@_0BO@OBMKPJIG@?$GAdefault?5constructor?5closure?8?$AA@ 000000018008cd10     libvcruntime:undname.obj
 0002:00002d38       ??_C@_0BN@IMDCHIKM@?$GAscalar?5deleting?5destructor?8?$AA@ 000000018008cd38     libvcruntime:undname.obj
 0002:00002d60       ??_C@_0BO@PFGOCPJJ@?$GAvector?5constructor?5iterator?8?$AA@ 000000018008cd60     libvcruntime:undname.obj
 0002:00002d88       ??_C@_0BN@LFPFMEDL@?$GAvector?5destructor?5iterator?8?$AA@ 000000018008cd88     libvcruntime:undname.obj
 0002:00002db0       ??_C@_0CE@IKBNEHA@?$GAvector?5vbase?5constructor?5iterat@ 000000018008cdb0     libvcruntime:undname.obj
 0002:00002de0       ??_C@_0BL@NILFHHPC@?$GAvirtual?5displacement?5map?8?$AA@ 000000018008cde0     libvcruntime:undname.obj
 0002:00002e00       ??_C@_0CB@JONCMFFK@?$GAeh?5vector?5constructor?5iterator?8@ 000000018008ce00     libvcruntime:undname.obj
 0002:00002e28       ??_C@_0CA@GCEOPDGL@?$GAeh?5vector?5destructor?5iterator?8?$AA@ 000000018008ce28     libvcruntime:undname.obj
 0002:00002e50       ??_C@_0CH@OOJPLCPH@?$GAeh?5vector?5vbase?5constructor?5ite@ 000000018008ce50     libvcruntime:undname.obj
 0002:00002e80       ??_C@_0BL@LLKPOHJI@?$GAcopy?5constructor?5closure?8?$AA@ 000000018008ce80     libvcruntime:undname.obj
 0002:00002ea0       ??_C@_0BA@KBCDOMBN@?$GAudt?5returning?8?$AA@ 000000018008cea0     libvcruntime:undname.obj
 0002:00002eb4       ??_C@_03KLGMFNMG@?$GAEH?$AA@ 000000018008ceb4     libvcruntime:undname.obj
 0002:00002eb8       ??_C@_05KHLCHHI@?$GARTTI?$AA@ 000000018008ceb8     libvcruntime:undname.obj
 0002:00002ec0       ??_C@_0BA@KKLDJDLB@?$GAlocal?5vftable?8?$AA@ 000000018008cec0     libvcruntime:undname.obj
 0002:00002ed8       ??_C@_0CE@IIHCMGGL@?$GAlocal?5vftable?5constructor?5closu@ 000000018008ced8     libvcruntime:undname.obj
 0002:00002f04       ??_C@_06FHBGPFGH@?5new?$FL?$FN?$AA@ 000000018008cf04     libvcruntime:undname.obj
 0002:00002f10       ??_C@_09LBNFPBCA@?5delete?$FL?$FN?$AA@ 000000018008cf10     libvcruntime:undname.obj
 0002:00002f20       ??_C@_0P@HJKNJFNN@?$GAomni?5callsig?8?$AA@ 000000018008cf20     libvcruntime:undname.obj
 0002:00002f38       ??_C@_0BL@CNOONJFP@?$GAplacement?5delete?5closure?8?$AA@ 000000018008cf38     libvcruntime:undname.obj
 0002:00002f58       ??_C@_0BN@CKNJLHMB@?$GAplacement?5delete?$FL?$FN?5closure?8?$AA@ 000000018008cf58     libvcruntime:undname.obj
 0002:00002f80       ??_C@_0CG@CFDHKGGD@?$GAmanaged?5vector?5constructor?5iter@ 000000018008cf80     libvcruntime:undname.obj
 0002:00002fb0       ??_C@_0CF@IMGKMJNO@?$GAmanaged?5vector?5destructor?5itera@ 000000018008cfb0     libvcruntime:undname.obj
 0002:00002fe0       ??_C@_0CG@HLDDJMAG@?$GAeh?5vector?5copy?5constructor?5iter@ 000000018008cfe0     libvcruntime:undname.obj
 0002:00003010       ??_C@_0CM@FCBBDIGB@?$GAeh?5vector?5vbase?5copy?5constructo@ 000000018008d010     libvcruntime:undname.obj
 0002:00003048       ??_C@_0BL@CLIPGLGB@?$GAdynamic?5initializer?5for?5?8?$AA@ 000000018008d048     libvcruntime:undname.obj
 0002:00003068       ??_C@_0CB@PDBIFEP@?$GAdynamic?5atexit?5destructor?5for?5?8@ 000000018008d068     libvcruntime:undname.obj
 0002:00003090       ??_C@_0CD@CGAJBKEJ@?$GAvector?5copy?5constructor?5iterato@ 000000018008d090     libvcruntime:undname.obj
 0002:000030c0       ??_C@_0CJ@GJELGAMM@?$GAvector?5vbase?5copy?5constructor?5i@ 000000018008d0c0     libvcruntime:undname.obj
 0002:000030f8       ??_C@_0CL@FGIJHLCE@?$GAmanaged?5vector?5copy?5constructor@ 000000018008d0f8     libvcruntime:undname.obj
 0002:00003130       ??_C@_0BM@PMGGMLDN@?$GAlocal?5static?5thread?5guard?8?$AA@ 000000018008d130     libvcruntime:undname.obj
 0002:00003158       ??_C@_0N@BDNMDMOL@operator?5?$CC?$CC?5?$AA@ 000000018008d158     libvcruntime:undname.obj
 0002:00003168       ??_C@_0BC@GGEBGALA@operator?5co_await?$AA@ 000000018008d168     libvcruntime:undname.obj
 0002:00003180       ??_C@_0BC@DAFEJGAK@?5Type?5Descriptor?8?$AA@ 000000018008d180     libvcruntime:undname.obj
 0002:00003198       ??_C@_0BM@LDKODKLH@?5Base?5Class?5Descriptor?5at?5?$CI?$AA@ 000000018008d198     libvcruntime:undname.obj
 0002:000031c0       ??_C@_0BD@LGICGFMM@?5Base?5Class?5Array?8?$AA@ 000000018008d1c0     libvcruntime:undname.obj
 0002:000031d8       ??_C@_0BN@MECKDCOJ@?5Class?5Hierarchy?5Descriptor?8?$AA@ 000000018008d1d8     libvcruntime:undname.obj
 0002:00003200       ??_C@_0BK@CFCOFLF@?5Complete?5Object?5Locator?8?$AA@ 000000018008d200     libvcruntime:undname.obj
 0002:00003220       ??_C@_04HEJADOOB@CV?3?5?$AA@ 000000018008d220     libvcruntime:undname.obj
 0002:00003228       ??_C@_02MOLJINC@?3?3?$AA@  000000018008d228     libvcruntime:undname.obj
 0002:00003230       ??_C@_0BE@JAEOCHPE@template?9parameter?9?$AA@ 000000018008d230     libvcruntime:undname.obj
 0002:00003248       ??_C@_0O@KHGCOMHP@generic?9type?9?$AA@ 000000018008d248     libvcruntime:undname.obj
 0002:00003258       ??_C@_01NLNLIGKH@?$GA?$AA@ 000000018008d258     libvcruntime:undname.obj
 0002:0000325c       ??_C@_01GEODFPGF@?8?$AA@   000000018008d25c     libvcruntime:undname.obj
 0002:00003260       ??_C@_0BG@JNJLAMPM@?$GAanonymous?5namespace?8?$AA@ 000000018008d260     libvcruntime:undname.obj
 0002:0000327c       ??_C@_02OHHJMEON@?8?8?$AA@ 000000018008d27c     libvcruntime:undname.obj
 0002:00003280       ??_C@_0BN@IBLMMFAP@?$GAnon?9type?9template?9parameter?$AA@ 000000018008d280     libvcruntime:undname.obj
 0002:000032a4       ??_C@_04GKJNKENE@void?$AA@ 000000018008d2a4     libvcruntime:undname.obj
 0002:000032b0       ??_C@_0BE@EODMJLIF@?$GAtemplate?9parameter?$AA@ 000000018008d2b0     libvcruntime:undname.obj
 0002:000032c8       ??_C@_03KHICJKCI@?4?4?4?$AA@ 000000018008d2c8     libvcruntime:undname.obj
 0002:000032cc       ??_C@_04HIBGFPH@NULL?$AA@  000000018008d2cc     libvcruntime:undname.obj
 0002:000032d4       ??_C@_02DPKJAMEF@?$CFd?$AA@ 000000018008d2d4     libvcruntime:undname.obj
 0002:000032d8       ??_C@_0BK@IHCCFNEL@?$GAtemplate?9type?9parameter?9?$AA@ 000000018008d2d8     libvcruntime:undname.obj
 0002:000032f8       ??_C@_0BK@OFCNNNKO@?$GAgeneric?9class?9parameter?9?$AA@ 000000018008d2f8     libvcruntime:undname.obj
 0002:00003318       ??_C@_0BL@NGJBLFIL@?$GAgeneric?9method?9parameter?9?$AA@ 000000018008d318     libvcruntime:undname.obj
 0002:00003338       ??_C@_03OPGICMGF@?$HN?8?5?$AA@ 000000018008d338     libvcruntime:undname.obj
 0002:0000333c       ??_C@_02IGFCGPIL@?$HN?8?$AA@ 000000018008d33c     libvcruntime:undname.obj
 0002:00003340       ??_C@_01CLKCMJKC@?5?$AA@   000000018008d340     libvcruntime:undname.obj
 0002:00003348       ??_C@_0N@CBHHHENL@?$GAvtordispex?$HL?$AA@ 000000018008d348     libvcruntime:undname.obj
 0002:00003358       ??_C@_0L@GHPFDFH@?$GAvtordisp?$HL?$AA@ 000000018008d358     libvcruntime:undname.obj
 0002:00003368       ??_C@_0L@HNGCOGAE@?$GAadjustor?$HL?$AA@ 000000018008d368     libvcruntime:undname.obj
 0002:00003378       ??_C@_0CB@KJDOOODE@?$GAlocal?5static?5destructor?5helper?8@ 000000018008d378     libvcruntime:undname.obj
 0002:000033a0       ??_C@_0DB@ILEFOCIJ@?$GAtemplate?5static?5data?5member?5con@ 000000018008d3a0     libvcruntime:undname.obj
 0002:000033e0       ??_C@_0DA@HGFJFBBE@?$GAtemplate?5static?5data?5member?5des@ 000000018008d3e0     libvcruntime:undname.obj
 0002:00003420       ??_C@_07PGOEDBHP@static?5?$AA@ 000000018008d420     libvcruntime:undname.obj
 0002:00003430       ??_C@_08NIEOINHE@virtual?5?$AA@ 000000018008d430     libvcruntime:undname.obj
 0002:00003440       ??_C@_09LAPHOOG@private?3?5?$AA@ 000000018008d440     libvcruntime:undname.obj
 0002:00003450       ??_C@_0M@GAIFPFIP@protected?3?5?$AA@ 000000018008d450     libvcruntime:undname.obj
 0002:00003460       ??_C@_08GPDDCMKI@public?3?5?$AA@ 000000018008d460     libvcruntime:undname.obj
 0002:00003470       ??_C@_08KJLFOPNE@?$FLthunk?$FN?3?$AA@ 000000018008d470     libvcruntime:undname.obj
 0002:00003480       ??_C@_0M@DHNBOJMP@extern?5?$CCC?$CC?5?$AA@ 000000018008d480     libvcruntime:undname.obj
 0002:00003490       ??_C@_02KCKGHPCA@?$CJ?5?$AA@ 000000018008d490     libvcruntime:undname.obj
 0002:00003494       ??_C@_05CIHEBHNO@char?5?$AA@ 000000018008d494     libvcruntime:undname.obj
 0002:0000349c       ??_C@_06EHJMALKF@short?5?$AA@ 000000018008d49c     libvcruntime:undname.obj
 0002:000034a4       ??_C@_04LAHKHJMA@int?5?$AA@ 000000018008d4a4     libvcruntime:undname.obj
 0002:000034ac       ??_C@_05CJIMAING@long?5?$AA@ 000000018008d4ac     libvcruntime:undname.obj
 0002:000034b8       ??_C@_09EBBEKKIH@unsigned?5?$AA@ 000000018008d4b8     libvcruntime:undname.obj
 0002:000034c4       ??_C@_05BEFAKPML@void?5?$AA@ 000000018008d4c4     libvcruntime:undname.obj
 0002:000034d0       ??_C@_08PABEKFH@volatile?$AA@ 000000018008d4d0     libvcruntime:undname.obj
 0002:000034e0       ??_C@_0BA@LKIJLKPP@std?3?3nullptr_t?5?$AA@ 000000018008d4e0     libvcruntime:undname.obj
 0002:000034f8       ??_C@_0P@GCOCNKDM@std?3?3nullptr_t?$AA@ 000000018008d4f8     libvcruntime:undname.obj
 0002:00003510       ??_C@_0L@EGPHHEKN@?$DMellipsis?$DO?$AA@ 000000018008d510     libvcruntime:undname.obj
 0002:00003520       ??_C@_04EENFHACM@?0?4?4?4?$AA@ 000000018008d520     libvcruntime:undname.obj
 0002:00003528       ??_C@_0M@ELJOJFFH@?0?$DMellipsis?$DO?$AA@ 000000018008d528     libvcruntime:undname.obj
 0002:00003538       ??_C@_09DNHFEOJI@?5noexcept?$AA@ 000000018008d538     libvcruntime:undname.obj
 0002:00003544       ??_C@_03PBJBJNON@cpu?$AA@  000000018008d544     libvcruntime:undname.obj
 0002:00003548       ??_C@_03DCBBJBAA@amp?$AA@  000000018008d548     libvcruntime:undname.obj
 0002:0000354c       ??_C@_02KEGNLNML@?0?5?$AA@ 000000018008d54c     libvcruntime:undname.obj
 0002:00003550       ??_C@_04ENMBGAPA@char?$AA@ 000000018008d550     libvcruntime:undname.obj
 0002:00003558       ??_C@_05BFKKPKCG@short?$AA@ 000000018008d558     libvcruntime:undname.obj
 0002:00003560       ??_C@_03JBIPMCLC@int?$AA@  000000018008d560     libvcruntime:undname.obj
 0002:00003564       ??_C@_04GOKPGOLB@long?$AA@ 000000018008d564     libvcruntime:undname.obj
 0002:0000356c       ??_C@_05KNFBNCOH@float?$AA@ 000000018008d56c     libvcruntime:undname.obj
 0002:00003574       ??_C@_06BNJCAIGJ@double?$AA@ 000000018008d574     libvcruntime:undname.obj
 0002:0000357c       ??_C@_04DDKJGDCM@bool?$AA@ 000000018008d57c     libvcruntime:undname.obj
 0002:00003584       ??_C@_06EBGKOKIG@__int8?$AA@ 000000018008d584     libvcruntime:undname.obj
 0002:00003590       ??_C@_07ICFHOGAF@__int16?$AA@ 000000018008d590     libvcruntime:undname.obj
 0002:000035a0       ??_C@_07OFLPPHGP@__int32?$AA@ 000000018008d5a0     libvcruntime:undname.obj
 0002:000035b0       ??_C@_07LFCOJCAC@__int64?$AA@ 000000018008d5b0     libvcruntime:undname.obj
 0002:000035c0       ??_C@_08GAHOLHEO@__int128?$AA@ 000000018008d5c0     libvcruntime:undname.obj
 0002:000035d0       ??_C@_09EEKGDCPH@?$DMunknown?$DO?$AA@ 000000018008d5d0     libvcruntime:undname.obj
 0002:000035e0       ??_C@_08HBIPOFJB@char16_t?$AA@ 000000018008d5e0     libvcruntime:undname.obj
 0002:000035f0       ??_C@_08IECNCBKG@char32_t?$AA@ 000000018008d5f0     libvcruntime:undname.obj
 0002:00003600       ??_C@_07CLGGIAMF@wchar_t?$AA@ 000000018008d600     libvcruntime:undname.obj
 0002:0000360c       ??_C@_06GCICPBLB@__w64?5?$AA@ 000000018008d60c     libvcruntime:undname.obj
 0002:00003618       ??_C@_07NFANNNEC@UNKNOWN?$AA@ 000000018008d618     libvcruntime:undname.obj
 0002:00003628       ??_C@_07EDHNAJHC@signed?5?$AA@ 000000018008d628     libvcruntime:undname.obj
 0002:00003634       ??_C@_05BNCCCJPP@const?$AA@ 000000018008d634     libvcruntime:undname.obj
 0002:00003640       ??_C@_09EFNPDFFP@?5volatile?$AA@ 000000018008d640     libvcruntime:undname.obj
 0002:00003650       ??_C@_0P@GCIFDJCJ@?$GAunknown?5ecsu?8?$AA@ 000000018008d650     libvcruntime:undname.obj
 0002:00003664       ??_C@_06MOJHIBMG@union?5?$AA@ 000000018008d664     libvcruntime:undname.obj
 0002:00003670       ??_C@_07DIBCDNGL@struct?5?$AA@ 000000018008d670     libvcruntime:undname.obj
 0002:0000367c       ??_C@_06LJBABKPM@class?5?$AA@ 000000018008d67c     libvcruntime:undname.obj
 0002:00003688       ??_C@_08KOFANOFK@coclass?5?$AA@ 000000018008d688     libvcruntime:undname.obj
 0002:00003698       ??_C@_0N@DLIEFKNA@cointerface?5?$AA@ 000000018008d698     libvcruntime:undname.obj
 0002:000036a8       ??_C@_05LJGMCFOG@enum?5?$AA@ 000000018008d6a8     libvcruntime:undname.obj
 0002:000036b0       ??_C@_09GAIEOBLP@volatile?5?$AA@ 000000018008d6b0     libvcruntime:undname.obj
 0002:000036bc       ??_C@_06LIJLOJAG@const?5?$AA@ 000000018008d6bc     libvcruntime:undname.obj
 0002:000036c4       ??_C@_02KJPKDIBN@?$CG?5?$AA@ 000000018008d6c4     libvcruntime:undname.obj
 0002:000036c8       ??_C@_03PCKGMOPB@?$CG?$CG?5?$AA@ 000000018008d6c8     libvcruntime:undname.obj
 0002:000036d0       ??_C@_0M@EALIELKG@cli?3?3array?$DM?$AA@ 000000018008d6d0     libvcruntime:undname.obj
 0002:000036e0       ??_C@_0O@GKABPPIF@cli?3?3pin_ptr?$DM?$AA@ 000000018008d6e0     libvcruntime:undname.obj
 0002:000036f0       ??_C@_02GOGNNPBN@?$CJ?$FL?$AA@ 000000018008d6f0     libvcruntime:undname.obj
 0002:000036f4       ??_C@_06EEGAIFAK@?$HLflat?$HN?$AA@ 000000018008d6f4     libvcruntime:undname.obj
 0002:000036fc       ??_C@_05JIBOFOHK@?$HLfor?5?$AA@ 000000018008d6fc     libvcruntime:undname.obj
 0002:00003704       ??_C@_02MDINNEEG@s?5?$AA@  000000018008d704     libvcruntime:undname.obj
 0002:00003710       ??_7DNameNode@@6B@         000000018008d710     libvcruntime:undname.obj
 0002:00003738       ??_7charNode@@6B@          000000018008d738     libvcruntime:undname.obj
 0002:00003760       ??_7pcharNode@@6B@         000000018008d760     libvcruntime:undname.obj
 0002:00003788       ??_7pDNameNode@@6B@        000000018008d788     libvcruntime:undname.obj
 0002:000037b0       ??_7DNameStatusNode@@6B@   000000018008d7b0     libvcruntime:undname.obj
 0002:000037d8       ??_7pairNode@@6B@          000000018008d7d8     libvcruntime:undname.obj
 0002:000037f8       ??_C@_04OKOHEJBO@?5?$DP?$DP?5?$AA@ 000000018008d7f8     libvcruntime:undname.obj
 0002:00003800       ?nodes@?1??make@DNameStatusNode@@SAPEBV2@W4DNameStatus@@@Z@4QBV2@B 000000018008d800     libvcruntime:undname.obj
 0002:00003870       ??_C@_1DM@KHCHBNEB@?$AAa?$AAp?$AAi?$AA?9?$AAm?$AAs?$AA?9?$AAw?$AAi?$AAn?$AA?9?$AAc?$AAo?$AAr?$AAe?$AA?9?$AAf?$AAi?$AAb?$AAe?$AAr?$AAs?$AA?9?$AAl?$AA1?$AA?9?$AA1?$AA?9?$AA1?$AA?$AA@ 000000018008d870     libvcruntime:winapi_downlevel.obj
 0002:000038b8       ??_C@_1DK@LPPGFMPP@?$AAa?$AAp?$AAi?$AA?9?$AAm?$AAs?$AA?9?$AAw?$AAi?$AAn?$AA?9?$AAc?$AAo?$AAr?$AAe?$AA?9?$AAs?$AAy?$AAn?$AAc?$AAh?$AA?9?$AAl?$AA1?$AA?9?$AA2?$AA?9?$AA0?$AA?$AA@ 000000018008d8b8     libvcruntime:winapi_downlevel.obj
 0002:00003900       ??_C@_1BC@GDMECMAK@?$AAk?$AAe?$AAr?$AAn?$AAe?$AAl?$AA3?$AA2?$AA?$AA@ 000000018008d900     libvcruntime:winapi_downlevel.obj
 0002:00003918       ??_C@_1BA@PFFKHIOG@?$AAa?$AAp?$AAi?$AA?9?$AAm?$AAs?$AA?9?$AA?$AA@ 000000018008d918     libvcruntime:winapi_downlevel.obj
 0002:00003930       ??_C@_1BA@IAIFMGEF@?$AAe?$AAx?$AAt?$AA?9?$AAm?$AAs?$AA?9?$AA?$AA@ 000000018008d930     libvcruntime:winapi_downlevel.obj
 0002:00003958       ??_C@_08KNHFBNJ@FlsAlloc?$AA@ 000000018008d958     libvcruntime:winapi_downlevel.obj
 0002:00003978       ??_C@_07PEJMOBNF@FlsFree?$AA@ 000000018008d978     libvcruntime:winapi_downlevel.obj
 0002:00003998       ??_C@_0M@GDNOONDI@FlsGetValue?$AA@ 000000018008d998     libvcruntime:winapi_downlevel.obj
 0002:000039b8       ??_C@_0M@JCPCPOEF@FlsSetValue?$AA@ 000000018008d9b8     libvcruntime:winapi_downlevel.obj
 0002:000039d8       ??_C@_0BM@HCFOFFN@InitializeCriticalSectionEx?$AA@ 000000018008d9d8     libvcruntime:winapi_downlevel.obj
 0002:000039fc       ??_C@_06HBLGGACK@_scalb?$AA@ 000000018008d9fc     libucrt:ieeemisc.obj
 0002:00003a08       ??_C@_07OIGNLDJH@_scalbf?$AA@ 000000018008da08     libucrt:ieeemisc.obj
 0002:00003a20       __acrt_exception_action_table 000000018008da20     libucrt:exception_filter.obj
 0002:00003b08       __acrt_signal_action_table_count 000000018008db08     libucrt:exception_filter.obj
 0002:00003b18       __acrt_signal_action_table_size 000000018008db18     libucrt:exception_filter.obj
 0002:00003b28       __acrt_signal_action_first_fpe_index 000000018008db28     libucrt:exception_filter.obj
 0002:00003b38       __acrt_signal_action_fpe_count 000000018008db38     libucrt:exception_filter.obj
 0002:00003b48       RtlNtPathSeperatorString   000000018008db48     libucrt:exit.obj
 0002:00003b5c       ??_C@_13FPGAJAPJ@?$AA?2?$AA?$AA@ 000000018008db5c     libucrt:exit.obj
 0002:00003b60       RtlDosPathSeperatorsString 000000018008db60     libucrt:exit.obj
 0002:00003b74       ??_C@_15MNCACJLI@?$AA?2?$AA?1?$AA?$AA@ 000000018008db74     libucrt:exit.obj
 0002:00003b80       RtlAlternateDosPathSeperatorString 000000018008db80     libucrt:exit.obj
 0002:00003b94       ??_C@_13CGOKJPIL@?$AA?1?$AA?$AA@ 000000018008db94     libucrt:exit.obj
 0002:00003b98       ??_C@_1BI@BGOHAHKC@?$AAm?$AAs?$AAc?$AAo?$AAr?$AAe?$AAe?$AA?4?$AAd?$AAl?$AAl?$AA?$AA@ 000000018008db98     libucrt:exit.obj
 0002:00003bb8       ??_C@_0P@MIGLKIOC@CorExitProcess?$AA@ 000000018008dbb8     libucrt:exit.obj
 0002:00003cf0       ??_C@_1BG@HHIFPOEK@?$AAm?$AAs?$AAv?$AAc?$AAr?$AAt?$AA?4?$AAd?$AAl?$AAl?$AA?$AA@ 000000018008dcf0     libucrt:free_base.obj
 0002:00003d10       standard_lookup_table      000000018008dd10     libucrt:output.obj
 0002:00003d80       format_validation_lookup_table 000000018008dd80     libucrt:output.obj
 0002:00003df0       ??_C@_06OJHGLDPL@?$CInull?$CJ?$AA@ 000000018008ddf0     libucrt:output.obj
 0002:00003df8       ??_C@_1O@CEDCILHN@?$AA?$CI?$AAn?$AAu?$AAl?$AAl?$AA?$CJ?$AA?$AA@ 000000018008ddf8     libucrt:output.obj
 0002:00003e08       _Fenv0                     000000018008de08     libucrt:atox.obj
 0002:00003ee0       ??_C@_1EG@CNNIPFIM@?$AAa?$AAp?$AAi?$AA?9?$AAm?$AAs?$AA?9?$AAw?$AAi?$AAn?$AA?9?$AAa?$AAp?$AAp?$AAm?$AAo?$AAd?$AAe?$AAl?$AA?9?$AAr?$AAu?$AAn?$AAt?$AAi?$AAm?$AAe?$AA?9?$AAl?$AA1?$AA?9?$AA1@ 000000018008dee0     libucrt:winapi_thunks.obj
 0002:00003f40       ??_C@_1EA@JGEFHKEI@?$AAa?$AAp?$AAi?$AA?9?$AAm?$AAs?$AA?9?$AAw?$AAi?$AAn?$AA?9?$AAc?$AAo?$AAr?$AAe?$AA?9?$AAd?$AAa?$AAt?$AAe?$AAt?$AAi?$AAm?$AAe?$AA?9?$AAl?$AA1?$AA?9?$AA1?$AA?9?$AA1?$AA?$AA@ 000000018008df40     libucrt:winapi_thunks.obj
 0002:00003f90       ??_C@_1DI@GCIAAENM@?$AAa?$AAp?$AAi?$AA?9?$AAm?$AAs?$AA?9?$AAw?$AAi?$AAn?$AA?9?$AAc?$AAo?$AAr?$AAe?$AA?9?$AAf?$AAi?$AAl?$AAe?$AA?9?$AAl?$AA2?$AA?9?$AA1?$AA?9?$AA1?$AA?$AA@ 000000018008df90     libucrt:winapi_thunks.obj
 0002:00003fe0       ??_C@_1EI@MPIAOHOC@?$AAa?$AAp?$AAi?$AA?9?$AAm?$AAs?$AA?9?$AAw?$AAi?$AAn?$AA?9?$AAc?$AAo?$AAr?$AAe?$AA?9?$AAl?$AAo?$AAc?$AAa?$AAl?$AAi?$AAz?$AAa?$AAt?$AAi?$AAo?$AAn?$AA?9?$AAl?$AA1?$AA?9@ 000000018008dfe0     libucrt:winapi_thunks.obj
 0002:00004040       ??_C@_1FK@FPHCKFIE@?$AAa?$AAp?$AAi?$AA?9?$AAm?$AAs?$AA?9?$AAw?$AAi?$AAn?$AA?9?$AAc?$AAo?$AAr?$AAe?$AA?9?$AAl?$AAo?$AAc?$AAa?$AAl?$AAi?$AAz?$AAa?$AAt?$AAi?$AAo?$AAn?$AA?9?$AAo?$AAb?$AAs@ 000000018008e040     libucrt:winapi_thunks.obj
 0002:000040b0       ??_C@_1EM@DILCGIIO@?$AAa?$AAp?$AAi?$AA?9?$AAm?$AAs?$AA?9?$AAw?$AAi?$AAn?$AA?9?$AAc?$AAo?$AAr?$AAe?$AA?9?$AAp?$AAr?$AAo?$AAc?$AAe?$AAs?$AAs?$AAt?$AAh?$AAr?$AAe?$AAa?$AAd?$AAs?$AA?9?$AAl@ 000000018008e0b0     libucrt:winapi_thunks.obj
 0002:00004110       ??_C@_1DM@LNCGDDPN@?$AAa?$AAp?$AAi?$AA?9?$AAm?$AAs?$AA?9?$AAw?$AAi?$AAn?$AA?9?$AAc?$AAo?$AAr?$AAe?$AA?9?$AAs?$AAt?$AAr?$AAi?$AAn?$AAg?$AA?9?$AAl?$AA1?$AA?9?$AA1?$AA?9?$AA0?$AA?$AA@ 000000018008e110     libucrt:winapi_thunks.obj
 0002:00004158       ??_C@_1DO@FPAPJEMD@?$AAa?$AAp?$AAi?$AA?9?$AAm?$AAs?$AA?9?$AAw?$AAi?$AAn?$AA?9?$AAc?$AAo?$AAr?$AAe?$AA?9?$AAs?$AAy?$AAs?$AAi?$AAn?$AAf?$AAo?$AA?9?$AAl?$AA1?$AA?9?$AA2?$AA?9?$AA1?$AA?$AA@ 000000018008e158     libucrt:winapi_thunks.obj
 0002:000041a8       ??_C@_1DK@NDHNAHIO@?$AAa?$AAp?$AAi?$AA?9?$AAm?$AAs?$AA?9?$AAw?$AAi?$AAn?$AA?9?$AAc?$AAo?$AAr?$AAe?$AA?9?$AAw?$AAi?$AAn?$AAr?$AAt?$AA?9?$AAl?$AA1?$AA?9?$AA1?$AA?9?$AA0?$AA?$AA@ 000000018008e1a8     libucrt:winapi_thunks.obj
 0002:000041f0       ??_C@_1DM@KGHDGBCM@?$AAa?$AAp?$AAi?$AA?9?$AAm?$AAs?$AA?9?$AAw?$AAi?$AAn?$AA?9?$AAc?$AAo?$AAr?$AAe?$AA?9?$AAx?$AAs?$AAt?$AAa?$AAt?$AAe?$AA?9?$AAl?$AA2?$AA?9?$AA1?$AA?9?$AA0?$AA?$AA@ 000000018008e1f0     libucrt:winapi_thunks.obj
 0002:00004240       ??_C@_1EO@IJIOEFOH@?$AAa?$AAp?$AAi?$AA?9?$AAm?$AAs?$AA?9?$AAw?$AAi?$AAn?$AA?9?$AAr?$AAt?$AAc?$AAo?$AAr?$AAe?$AA?9?$AAn?$AAt?$AAu?$AAs?$AAe?$AAr?$AA?9?$AAw?$AAi?$AAn?$AAd?$AAo?$AAw?$AA?9@ 000000018008e240     libucrt:winapi_thunks.obj
 0002:000042a0       ??_C@_1FG@HHGEKANL@?$AAa?$AAp?$AAi?$AA?9?$AAm?$AAs?$AA?9?$AAw?$AAi?$AAn?$AA?9?$AAs?$AAe?$AAc?$AAu?$AAr?$AAi?$AAt?$AAy?$AA?9?$AAs?$AAy?$AAs?$AAt?$AAe?$AAm?$AAf?$AAu?$AAn?$AAc?$AAt?$AAi@ 000000018008e2a0     libucrt:winapi_thunks.obj
 0002:00004310       ??_C@_1FG@NCKKOLKO@?$AAe?$AAx?$AAt?$AA?9?$AAm?$AAs?$AA?9?$AAw?$AAi?$AAn?$AA?9?$AAk?$AAe?$AAr?$AAn?$AAe?$AAl?$AA3?$AA2?$AA?9?$AAp?$AAa?$AAc?$AAk?$AAa?$AAg?$AAe?$AA?9?$AAc?$AAu?$AAr?$AAr@ 000000018008e310     libucrt:winapi_thunks.obj
 0002:00004380       ??_C@_1EG@DBIOJECG@?$AAe?$AAx?$AAt?$AA?9?$AAm?$AAs?$AA?9?$AAw?$AAi?$AAn?$AA?9?$AAn?$AAt?$AAu?$AAs?$AAe?$AAr?$AA?9?$AAd?$AAi?$AAa?$AAl?$AAo?$AAg?$AAb?$AAo?$AAx?$AA?9?$AAl?$AA1?$AA?9?$AA1@ 000000018008e380     libucrt:winapi_thunks.obj
 0002:000043e0       ??_C@_1EO@FIHMJCLF@?$AAe?$AAx?$AAt?$AA?9?$AAm?$AAs?$AA?9?$AAw?$AAi?$AAn?$AA?9?$AAn?$AAt?$AAu?$AAs?$AAe?$AAr?$AA?9?$AAw?$AAi?$AAn?$AAd?$AAo?$AAw?$AAs?$AAt?$AAa?$AAt?$AAi?$AAo?$AAn?$AA?9@ 000000018008e3e0     libucrt:winapi_thunks.obj
 0002:00004440       ??_C@_1BC@DNHGCMLG@?$AAa?$AAd?$AAv?$AAa?$AAp?$AAi?$AA3?$AA2?$AA?$AA@ 000000018008e440     libucrt:winapi_thunks.obj
 0002:00004458       ??_C@_1O@BCCLBEOE@?$AAu?$AAs?$AAe?$AAr?$AA3?$AA2?$AA?$AA@ 000000018008e458     libucrt:winapi_thunks.obj
 0002:00004470       ??_C@_0BA@FHFNEAED@AreFileApisANSI?$AA@ 000000018008e470     libucrt:winapi_thunks.obj
 0002:00004498       ??_C@_0BA@IHGNDAEB@CompareStringEx?$AA@ 000000018008e498     libucrt:winapi_thunks.obj
 0002:000044c0       ??_C@_0BE@LJANKFHF@EnumSystemLocalesEx?$AA@ 000000018008e4c0     libucrt:winapi_thunks.obj
 0002:00004528       ??_C@_0BA@HNOPNCHB@GetActiveWindow?$AA@ 000000018008e528     libucrt:winapi_thunks.obj
 0002:00004550       ??_C@_0BE@JOGNEJCI@GetCurrentPackageId?$AA@ 000000018008e550     libucrt:winapi_thunks.obj
 0002:00004578       ??_C@_0BA@EPCJIIPD@GetDateFormatEx?$AA@ 000000018008e578     libucrt:winapi_thunks.obj
 0002:000045a0       ??_C@_0BJ@DIBIJBHA@GetEnabledXStateFeatures?$AA@ 000000018008e5a0     libucrt:winapi_thunks.obj
 0002:000045d0       ??_C@_0BN@NEEHBBPO@GetFileInformationByHandleEx?$AA@ 000000018008e5d0     libucrt:winapi_thunks.obj
 0002:00004608       ??_C@_0BD@HHGDFDBJ@GetLastActivePopup?$AA@ 000000018008e608     libucrt:winapi_thunks.obj
 0002:00004630       ??_C@_0BA@ONOKGCMP@GetLocaleInfoEx?$AA@ 000000018008e630     libucrt:winapi_thunks.obj
 0002:00004658       ??_C@_0BI@DFKBFLJE@GetProcessWindowStation?$AA@ 000000018008e658     libucrt:winapi_thunks.obj
 0002:00004678       ??_C@_0BP@FPNJPEJC@GetSystemTimePreciseAsFileTime?$AA@ 000000018008e678     libucrt:winapi_thunks.obj
 0002:000046b0       ??_C@_0BA@CIJJKCJJ@GetTimeFormatEx?$AA@ 000000018008e6b0     libucrt:winapi_thunks.obj
 0002:000046d8       ??_C@_0BJ@PBCCBIPI@GetUserDefaultLocaleName?$AA@ 000000018008e6d8     libucrt:winapi_thunks.obj
 0002:00004708       ??_C@_0BK@DEKFELLI@GetUserObjectInformationW?$AA@ 000000018008e708     libucrt:winapi_thunks.obj
 0002:00004738       ??_C@_0BG@IKLDMBLM@GetXStateFeaturesMask?$AA@ 000000018008e738     libucrt:winapi_thunks.obj
 0002:00004778       ??_C@_0BC@CELBKLLA@IsValidLocaleName?$AA@ 000000018008e778     libucrt:winapi_thunks.obj
 0002:000047a0       ??_C@_0O@KKBNKAPF@LCMapStringEx?$AA@ 000000018008e7a0     libucrt:winapi_thunks.obj
 0002:000047c0       ??_C@_0BB@CDHDDLLP@LCIDToLocaleName?$AA@ 000000018008e7c0     libucrt:winapi_thunks.obj
 0002:000047e8       ??_C@_0BB@HBDEELFH@LocaleNameToLCID?$AA@ 000000018008e7e8     libucrt:winapi_thunks.obj
 0002:00004810       ??_C@_0BE@KINNKFDA@LocateXStateFeature?$AA@ 000000018008e810     libucrt:winapi_thunks.obj
 0002:00004838       ??_C@_0M@CHKKJDAI@MessageBoxA?$AA@ 000000018008e838     libucrt:winapi_thunks.obj
 0002:00004858       ??_C@_0M@DLDCCGNP@MessageBoxW?$AA@ 000000018008e858     libucrt:winapi_thunks.obj
 0002:00004870       ??_C@_0N@PPOMPGGK@RoInitialize?$AA@ 000000018008e870     libucrt:winapi_thunks.obj
 0002:00004888       ??_C@_0P@LLFHBIJD@RoUninitialize?$AA@ 000000018008e888     libucrt:winapi_thunks.obj
 0002:000048b0       ??_C@_0BI@BKLFFAPO@SetThreadStackGuarantee?$AA@ 000000018008e8b0     libucrt:winapi_thunks.obj
 0002:000048e0       ??_C@_0BC@JEAENNKH@SystemFunction036?$AA@ 000000018008e8e0     libucrt:winapi_thunks.obj
 0002:00004ad8       ??_C@_1M@HPNHIDJI@?$AAj?$AAa?$AA?9?$AAJ?$AAP?$AA?$AA@ 000000018008ead8     libucrt:mbctype.obj
 0002:00004ae8       ??_C@_1M@BIBDDEMK@?$AAz?$AAh?$AA?9?$AAC?$AAN?$AA?$AA@ 000000018008eae8     libucrt:mbctype.obj
 0002:00004af8       ??_C@_1M@JLOOOEGK@?$AAk?$AAo?$AA?9?$AAK?$AAR?$AA?$AA@ 000000018008eaf8     libucrt:mbctype.obj
 0002:00004b08       ??_C@_1M@CLNBBOPM@?$AAz?$AAh?$AA?9?$AAT?$AAW?$AA?$AA@ 000000018008eb08     libucrt:mbctype.obj
 0002:00004b20       __lc_time_c                000000018008eb20     libucrt:nlsdata.obj
 0002:00004e6c       ??_C@_03KOEHGMDN@Sun?$AA@  000000018008ee6c     libucrt:nlsdata.obj
 0002:00004e70       ??_C@_03PDAGKDH@Mon?$AA@   000000018008ee70     libucrt:nlsdata.obj
 0002:00004e74       ??_C@_03NAGEINEP@Tue?$AA@  000000018008ee74     libucrt:nlsdata.obj
 0002:00004e78       ??_C@_03MHOMLAJA@Wed?$AA@  000000018008ee78     libucrt:nlsdata.obj
 0002:00004e7c       ??_C@_03IOFIKPDN@Thu?$AA@  000000018008ee7c     libucrt:nlsdata.obj
 0002:00004e80       ??_C@_03IDIOELNC@Fri?$AA@  000000018008ee80     libucrt:nlsdata.obj
 0002:00004e84       ??_C@_03FEFJNEK@Sat?$AA@   000000018008ee84     libucrt:nlsdata.obj
 0002:00004e88       ??_C@_06OOPIFAJ@Sunday?$AA@ 000000018008ee88     libucrt:nlsdata.obj
 0002:00004e90       ??_C@_06JLEDEDGH@Monday?$AA@ 000000018008ee90     libucrt:nlsdata.obj
 0002:00004e98       ??_C@_07BAAGCFCM@Tuesday?$AA@ 000000018008ee98     libucrt:nlsdata.obj
 0002:00004ea8       ??_C@_09DLIGFAKA@Wednesday?$AA@ 000000018008eea8     libucrt:nlsdata.obj
 0002:00004eb8       ??_C@_08HACCIKIA@Thursday?$AA@ 000000018008eeb8     libucrt:nlsdata.obj
 0002:00004ec4       ??_C@_06JECMNKMI@Friday?$AA@ 000000018008eec4     libucrt:nlsdata.obj
 0002:00004ed0       ??_C@_08INBOOONO@Saturday?$AA@ 000000018008eed0     libucrt:nlsdata.obj
 0002:00004edc       ??_C@_03JIHJHPIE@Jan?$AA@  000000018008eedc     libucrt:nlsdata.obj
 0002:00004ee0       ??_C@_03HJBDCHOM@Feb?$AA@  000000018008eee0     libucrt:nlsdata.obj
 0002:00004ee4       ??_C@_03ODNJBKGA@Mar?$AA@  000000018008eee4     libucrt:nlsdata.obj
 0002:00004ee8       ??_C@_03LEOLGMJP@Apr?$AA@  000000018008eee8     libucrt:nlsdata.obj
 0002:00004eec       ??_C@_03CNMDKL@May?$AA@    000000018008eeec     libucrt:nlsdata.obj
 0002:00004ef0       ??_C@_03IDFGHECI@Jun?$AA@  000000018008eef0     libucrt:nlsdata.obj
 0002:00004ef4       ??_C@_03LBGABGKK@Jul?$AA@  000000018008eef4     libucrt:nlsdata.obj
 0002:00004ef8       ??_C@_03IFJFEIGA@Aug?$AA@  000000018008eef8     libucrt:nlsdata.obj
 0002:00004efc       ??_C@_03GGCAPAJC@Sep?$AA@  000000018008eefc     libucrt:nlsdata.obj
 0002:00004f00       ??_C@_03BMAOKBAD@Oct?$AA@  000000018008ef00     libucrt:nlsdata.obj
 0002:00004f04       ??_C@_03JPJOFNIA@Nov?$AA@  000000018008ef04     libucrt:nlsdata.obj
 0002:00004f08       ??_C@_03MKABNOCG@Dec?$AA@  000000018008ef08     libucrt:nlsdata.obj
 0002:00004f10       ??_C@_07CGJPFGJA@January?$AA@ 000000018008ef10     libucrt:nlsdata.obj
 0002:00004f20       ??_C@_08GNJGEPFN@February?$AA@ 000000018008ef20     libucrt:nlsdata.obj
 0002:00004f2c       ??_C@_05HPCKOFNC@March?$AA@ 000000018008ef2c     libucrt:nlsdata.obj
 0002:00004f34       ??_C@_05DMJDNLEJ@April?$AA@ 000000018008ef34     libucrt:nlsdata.obj
 0002:00004f3c       ??_C@_04CNLMGBGM@June?$AA@ 000000018008ef3c     libucrt:nlsdata.obj
 0002:00004f44       ??_C@_04MIEPOIFP@July?$AA@ 000000018008ef44     libucrt:nlsdata.obj
 0002:00004f4c       ??_C@_06LBBHFDDG@August?$AA@ 000000018008ef4c     libucrt:nlsdata.obj
 0002:00004f58       ??_C@_09BHHEALKD@September?$AA@ 000000018008ef58     libucrt:nlsdata.obj
 0002:00004f68       ??_C@_07JJNFCEND@October?$AA@ 000000018008ef68     libucrt:nlsdata.obj
 0002:00004f78       ??_C@_08HCHEGEOA@November?$AA@ 000000018008ef78     libucrt:nlsdata.obj
 0002:00004f88       ??_C@_08EDHMEBNP@December?$AA@ 000000018008ef88     libucrt:nlsdata.obj
 0002:00004f94       ??_C@_02DEDBPAFC@AM?$AA@   000000018008ef94     libucrt:nlsdata.obj
 0002:00004f98       ??_C@_02CJNFDJBF@PM?$AA@   000000018008ef98     libucrt:nlsdata.obj
 0002:00004fa0       ??_C@_08BPBNCDIB@MM?1dd?1yy?$AA@ 000000018008efa0     libucrt:nlsdata.obj
 0002:00004fb0       ??_C@_0BE@CKGJFCPC@dddd?0?5MMMM?5dd?0?5yyyy?$AA@ 000000018008efb0     libucrt:nlsdata.obj
 0002:00004fc8       ??_C@_08JCCMCCIL@HH?3mm?3ss?$AA@ 000000018008efc8     libucrt:nlsdata.obj
 0002:00004fd8       ??_C@_17MBGCMIPB@?$AAS?$AAu?$AAn?$AA?$AA@ 000000018008efd8     libucrt:nlsdata.obj
 0002:00004fe8       ??_C@_17KBOMKBF@?$AAM?$AAo?$AAn?$AA?$AA@ 000000018008efe8     libucrt:nlsdata.obj
 0002:00004ff8       ??_C@_17BMKGEGOJ@?$AAT?$AAu?$AAe?$AA?$AA@ 000000018008eff8     libucrt:nlsdata.obj
 0002:00005008       ??_C@_17CJEDCEPE@?$AAW?$AAe?$AAd?$AA?$AA@ 000000018008f008     libucrt:nlsdata.obj
 0002:00005018       ??_C@_17PDPHAADD@?$AAT?$AAh?$AAu?$AA?$AA@ 000000018008f018     libucrt:nlsdata.obj
 0002:00005028       ??_C@_17HFOLPPLP@?$AAF?$AAr?$AAi?$AA?$AA@ 000000018008f028     libucrt:nlsdata.obj
 0002:00005038       ??_C@_17GGIBDPIH@?$AAS?$AAa?$AAt?$AA?$AA@ 000000018008f038     libucrt:nlsdata.obj
 0002:00005048       ??_C@_1O@IHNHDHPB@?$AAS?$AAu?$AAn?$AAd?$AAa?$AAy?$AA?$AA@ 000000018008f048     libucrt:nlsdata.obj
 0002:00005058       ??_C@_1O@MMNBFLIA@?$AAM?$AAo?$AAn?$AAd?$AAa?$AAy?$AA?$AA@ 000000018008f058     libucrt:nlsdata.obj
 0002:00005068       ??_C@_1BA@ENFBFFEK@?$AAT?$AAu?$AAe?$AAs?$AAd?$AAa?$AAy?$AA?$AA@ 000000018008f068     libucrt:nlsdata.obj
 0002:00005080       ??_C@_1BE@EBOGMDOH@?$AAW?$AAe?$AAd?$AAn?$AAe?$AAs?$AAd?$AAa?$AAy?$AA?$AA@ 000000018008f080     libucrt:nlsdata.obj
 0002:00005098       ??_C@_1BC@HHMNLIHE@?$AAT?$AAh?$AAu?$AAr?$AAs?$AAd?$AAa?$AAy?$AA?$AA@ 000000018008f098     libucrt:nlsdata.obj
 0002:000050b0       ??_C@_1O@PDICJHAG@?$AAF?$AAr?$AAi?$AAd?$AAa?$AAy?$AA?$AA@ 000000018008f0b0     libucrt:nlsdata.obj
 0002:000050c0       ??_C@_1BC@ENMNNPAJ@?$AAS?$AAa?$AAt?$AAu?$AAr?$AAd?$AAa?$AAy?$AA?$AA@ 000000018008f0c0     libucrt:nlsdata.obj
 0002:000050d8       ??_C@_17DKNBKCHM@?$AAJ?$AAa?$AAn?$AA?$AA@ 000000018008f0d8     libucrt:nlsdata.obj
 0002:000050e8       ??_C@_17LMDJEKJN@?$AAF?$AAe?$AAb?$AA?$AA@ 000000018008f0e8     libucrt:nlsdata.obj
 0002:000050f8       ??_C@_17CKNLEDEC@?$AAM?$AAa?$AAr?$AA?$AA@ 000000018008f0f8     libucrt:nlsdata.obj
 0002:00005108       ??_C@_17LFPOIHDD@?$AAA?$AAp?$AAr?$AA?$AA@ 000000018008f108     libucrt:nlsdata.obj
 0002:00005118       ??_C@_17PNNKMEED@?$AAM?$AAa?$AAy?$AA?$AA@ 000000018008f118     libucrt:nlsdata.obj
 0002:00005128       ??_C@_17KCJGOCPB@?$AAJ?$AAu?$AAn?$AA?$AA@ 000000018008f128     libucrt:nlsdata.obj
 0002:00005138       ??_C@_17IJPCKHK@?$AAJ?$AAu?$AAl?$AA?$AA@ 000000018008f138     libucrt:nlsdata.obj
 0002:00005148       ??_C@_17ICPELBCN@?$AAA?$AAu?$AAg?$AA?$AA@ 000000018008f148     libucrt:nlsdata.obj
 0002:00005158       ??_C@_17HCHCOKMG@?$AAS?$AAe?$AAp?$AA?$AA@ 000000018008f158     libucrt:nlsdata.obj
 0002:00005168       ??_C@_17FNLKOI@?$AAO?$AAc?$AAt?$AA?$AA@ 000000018008f168     libucrt:nlsdata.obj
 0002:00005178       ??_C@_17BBDMLCIG@?$AAN?$AAo?$AAv?$AA?$AA@ 000000018008f178     libucrt:nlsdata.obj
 0002:00005188       ??_C@_17EGKACKIF@?$AAD?$AAe?$AAc?$AA?$AA@ 000000018008f188     libucrt:nlsdata.obj
 0002:00005198       ??_C@_1BA@EFMEIEBA@?$AAJ?$AAa?$AAn?$AAu?$AAa?$AAr?$AAy?$AA?$AA@ 000000018008f198     libucrt:nlsdata.obj
 0002:000051b0       ??_C@_1BC@JGDDFFAM@?$AAF?$AAe?$AAb?$AAr?$AAu?$AAa?$AAr?$AAy?$AA?$AA@ 000000018008f1b0     libucrt:nlsdata.obj
 0002:000051c8       ??_C@_1M@IKEENEDF@?$AAM?$AAa?$AAr?$AAc?$AAh?$AA?$AA@ 000000018008f1c8     libucrt:nlsdata.obj
 0002:000051d8       ??_C@_1M@GJNLMHFD@?$AAA?$AAp?$AAr?$AAi?$AAl?$AA?$AA@ 000000018008f1d8     libucrt:nlsdata.obj
 0002:000051e8       ??_C@_19EPFLPGAP@?$AAJ?$AAu?$AAn?$AAe?$AA?$AA@ 000000018008f1e8     libucrt:nlsdata.obj
 0002:000051f8       ??_C@_19BIFMLPCD@?$AAJ?$AAu?$AAl?$AAy?$AA?$AA@ 000000018008f1f8     libucrt:nlsdata.obj
 0002:00005208       ??_C@_1O@PAHLKOAC@?$AAA?$AAu?$AAg?$AAu?$AAs?$AAt?$AA?$AA@ 000000018008f208     libucrt:nlsdata.obj
 0002:00005218       ??_C@_1BE@DKAAMBJL@?$AAS?$AAe?$AAp?$AAt?$AAe?$AAm?$AAb?$AAe?$AAr?$AA?$AA@ 000000018008f218     libucrt:nlsdata.obj
 0002:00005230       ??_C@_1BA@EPANDLNG@?$AAO?$AAc?$AAt?$AAo?$AAb?$AAe?$AAr?$AA?$AA@ 000000018008f230     libucrt:nlsdata.obj
 0002:00005248       ??_C@_1BC@BGLIFPF@?$AAN?$AAo?$AAv?$AAe?$AAm?$AAb?$AAe?$AAr?$AA?$AA@ 000000018008f248     libucrt:nlsdata.obj
 0002:00005260       ??_C@_1BC@FEMKIFH@?$AAD?$AAe?$AAc?$AAe?$AAm?$AAb?$AAe?$AAr?$AA?$AA@ 000000018008f260     libucrt:nlsdata.obj
 0002:00005278       ??_C@_15ODEHAHHF@?$AAA?$AAM?$AA?$AA@ 000000018008f278     libucrt:nlsdata.obj
 0002:00005280       ??_C@_15CLMNNGEL@?$AAP?$AAM?$AA?$AA@ 000000018008f280     libucrt:nlsdata.obj
 0002:00005288       ??_C@_1BC@IEBCMHCM@?$AAM?$AAM?$AA?1?$AAd?$AAd?$AA?1?$AAy?$AAy?$AA?$AA@ 000000018008f288     libucrt:nlsdata.obj
 0002:000052a0       ??_C@_1CI@KNAKOEBC@?$AAd?$AAd?$AAd?$AAd?$AA?0?$AA?5?$AAM?$AAM?$AAM?$AAM?$AA?5?$AAd?$AAd?$AA?0?$AA?5?$AAy?$AAy?$AAy?$AAy?$AA?$AA@ 000000018008f2a0     libucrt:nlsdata.obj
 0002:000052d0       ??_C@_1BC@GDGBMEMK@?$AAH?$AAH?$AA?3?$AAm?$AAm?$AA?3?$AAs?$AAs?$AA?$AA@ 000000018008f2d0     libucrt:nlsdata.obj
 0002:000052e8       ??_C@_1M@BMHNFIME@?$AAe?$AAn?$AA?9?$AAU?$AAS?$AA?$AA@ 000000018008f2e8     libucrt:nlsdata.obj
 0002:000052f8       ??_C@_03OEIAHPBN@INF?$AA@  000000018008f2f8     libucrt:cvt.obj
 0002:000052fc       ??_C@_03OJHLLCGB@inf?$AA@  000000018008f2fc     libucrt:cvt.obj
 0002:00005300       ??_C@_03LKNCIKJB@NAN?$AA@  000000018008f300     libucrt:cvt.obj
 0002:00005304       ??_C@_03LHCJEHON@nan?$AA@  000000018008f304     libucrt:cvt.obj
 0002:00005308       ??_C@_09OFJJIMPC@NAN?$CISNAN?$CJ?$AA@ 000000018008f308     libucrt:cvt.obj
 0002:00005318       ??_C@_09IPFBKMDL@nan?$CIsnan?$CJ?$AA@ 000000018008f318     libucrt:cvt.obj
 0002:00005328       ??_C@_08IKHNHAJ@NAN?$CIIND?$CJ?$AA@ 000000018008f328     libucrt:cvt.obj
 0002:00005338       ??_C@_08OFCDMILK@nan?$CIind?$CJ?$AA@ 000000018008f338     libucrt:cvt.obj
 0002:00005344       ??_C@_05KLBDPFGC@e?$CL000?$AA@ 000000018008f344     libucrt:cvt.obj
 0002:00005350       __lc_category              000000018008f350     libucrt:wsetlocale.obj
 0002:00005400       ??_C@_1O@GIFLHMA@?$AAL?$AAC?$AA_?$AAA?$AAL?$AAL?$AA?$AA@ 000000018008f400     libucrt:wsetlocale.obj
 0002:00005410       ??_C@_1BG@PPOMIBNJ@?$AAL?$AAC?$AA_?$AAC?$AAO?$AAL?$AAL?$AAA?$AAT?$AAE?$AA?$AA@ 000000018008f410     libucrt:wsetlocale.obj
 0002:00005430       ??_C@_1BC@FFJGAPJM@?$AAL?$AAC?$AA_?$AAC?$AAT?$AAY?$AAP?$AAE?$AA?$AA@ 000000018008f430     libucrt:wsetlocale.obj
 0002:00005448       ??_C@_1BI@PCKFNJFB@?$AAL?$AAC?$AA_?$AAM?$AAO?$AAN?$AAE?$AAT?$AAA?$AAR?$AAY?$AA?$AA@ 000000018008f448     libucrt:wsetlocale.obj
 0002:00005468       ??_C@_1BG@ENIEDKID@?$AAL?$AAC?$AA_?$AAN?$AAU?$AAM?$AAE?$AAR?$AAI?$AAC?$AA?$AA@ 000000018008f468     libucrt:wsetlocale.obj
 0002:00005488       ??_C@_1BA@HAAOMIIG@?$AAL?$AAC?$AA_?$AAT?$AAI?$AAM?$AAE?$AA?$AA@ 000000018008f488     libucrt:wsetlocale.obj
 0002:00005538       ??_C@_15NBPDDFIP@?$AA?$DN?$AA?$DL?$AA?$AA@ 000000018008f538     libucrt:wsetlocale.obj
 0002:00005540       ??_C@_13PJJBFPED@?$AA?$DL?$AA?$AA@ 000000018008f540     libucrt:wsetlocale.obj
 0002:00005544       ??_C@_13NMPKAAJP@?$AA?$DN?$AA?$AA@ 000000018008f544     libucrt:wsetlocale.obj
 0002:00005548       ??_C@_13FHBKNHDA@?$AAC?$AA?$AA@ 000000018008f548     libucrt:wsetlocale.obj
 0002:00005550       ??_C@_17MBJJLFDM@?$AA_?$AA?4?$AA?0?$AA?$AA@ 000000018008f550     libucrt:wsetlocale.obj
 0002:0000555c       ??_C@_13ENNFDPBH@?$AA_?$AA?$AA@ 000000018008f55c     libucrt:wsetlocale.obj
 0002:00005560       ??_C@_13JOFGPIOO@?$AA?4?$AA?$AA@ 000000018008f560     libucrt:wsetlocale.obj
 0002:00005570       __newctype                 000000018008f570     libucrt:ctype.obj
 0002:00005910       __newclmap                 000000018008f910     libucrt:ctype.obj
 0002:00005ae0       __newcumap                 000000018008fae0     libucrt:ctype.obj
 0002:00005cb0       _wctype                    000000018008fcb0     libucrt:ctype.obj
 0002:0000614c       ??_C@_03KHJOGHMM@exp?$AA@  000000018009014c     libucrt:fpexcept.obj
 0002:00006150       ??_C@_03JGHBODFD@pow?$AA@  0000000180090150     libucrt:fpexcept.obj
 0002:00006154       ??_C@_03MGHMBJCF@log?$AA@  0000000180090154     libucrt:fpexcept.obj
 0002:00006158       ??_C@_05HGHHAHAP@log10?$AA@ 0000000180090158     libucrt:fpexcept.obj
 0002:00006160       ??_C@_04COOMCNPB@sinh?$AA@ 0000000180090160     libucrt:fpexcept.obj
 0002:00006168       ??_C@_04HPJJNFIM@cosh?$AA@ 0000000180090168     libucrt:fpexcept.obj
 0002:00006170       ??_C@_04FJHINJAO@tanh?$AA@ 0000000180090170     libucrt:fpexcept.obj
 0002:00006178       ??_C@_04FIHNOPOL@asin?$AA@ 0000000180090178     libucrt:fpexcept.obj
 0002:00006180       ??_C@_04PDIFKINK@acos?$AA@ 0000000180090180     libucrt:fpexcept.obj
 0002:00006188       ??_C@_04MLLJIGOK@atan?$AA@ 0000000180090188     libucrt:fpexcept.obj
 0002:00006190       ??_C@_05KNGEOGJB@atan2?$AA@ 0000000180090190     libucrt:fpexcept.obj
 0002:00006198       ??_C@_04EIAKFFMI@sqrt?$AA@ 0000000180090198     libucrt:fpexcept.obj
 0002:000061a0       ??_C@_03BLEJJJBH@sin?$AA@  00000001800901a0     libucrt:fpexcept.obj
 0002:000061a4       ??_C@_03LALBNOCG@cos?$AA@  00000001800901a4     libucrt:fpexcept.obj
 0002:000061a8       ??_C@_03IIINPABG@tan?$AA@  00000001800901a8     libucrt:fpexcept.obj
 0002:000061ac       ??_C@_04GFPJNGEK@ceil?$AA@ 00000001800901ac     libucrt:fpexcept.obj
 0002:000061b4       ??_C@_05PBJFFIGL@floor?$AA@ 00000001800901b4     libucrt:fpexcept.obj
 0002:000061bc       ??_C@_04ODHECPBC@fabs?$AA@ 00000001800901bc     libucrt:fpexcept.obj
 0002:000061c4       ??_C@_04EHEDPDJG@modf?$AA@ 00000001800901c4     libucrt:fpexcept.obj
 0002:000061cc       ??_C@_05CEJMAHNP@ldexp?$AA@ 00000001800901cc     libucrt:fpexcept.obj
 0002:000061d4       ??_C@_05KBKMEMPO@_cabs?$AA@ 00000001800901d4     libucrt:fpexcept.obj
 0002:000061dc       ??_C@_06MEIMCGCF@_hypot?$AA@ 00000001800901dc     libucrt:fpexcept.obj
 0002:000061e4       ??_C@_04KEPJIHGP@fmod?$AA@ 00000001800901e4     libucrt:fpexcept.obj
 0002:000061ec       ??_C@_05GKKHEGJL@frexp?$AA@ 00000001800901ec     libucrt:fpexcept.obj
 0002:000061f4       ??_C@_03MJLDFKDL@_y0?$AA@  00000001800901f4     libucrt:fpexcept.obj
 0002:000061f8       ??_C@_03NAKIGLHK@_y1?$AA@  00000001800901f8     libucrt:fpexcept.obj
 0002:000061fc       ??_C@_03ONILCKOB@_yn?$AA@  00000001800901fc     libucrt:fpexcept.obj
 0002:00006200       ??_C@_05JGDBENOH@_logb?$AA@ 0000000180090200     libucrt:fpexcept.obj
 0002:00006208       ??_C@_0L@KDOEJCKC@_nextafter?$AA@ 0000000180090208     libucrt:fpexcept.obj
 0002:00006218       __real@0000000000000000    0000000180090218     libucrt:fpexcept.obj
 0002:0000734c       ??_C@_15EMKDOKLE@?$AAa?$AAr?$AA?$AA@ 000000018009134c     libucrt:lcidtoname_downlevel.obj
 0002:00007354       ??_C@_15KNPADPLH@?$AAb?$AAg?$AA?$AA@ 0000000180091354     libucrt:lcidtoname_downlevel.obj
 0002:0000735c       ??_C@_15EDMHLDMO@?$AAc?$AAa?$AA?$AA@ 000000018009135c     libucrt:lcidtoname_downlevel.obj
 0002:00007368       ??_C@_1O@BPEAJADD@?$AAz?$AAh?$AA?9?$AAC?$AAH?$AAS?$AA?$AA@ 0000000180091368     libucrt:lcidtoname_downlevel.obj
 0002:00007378       ??_C@_15LJNHCMNK@?$AAc?$AAs?$AA?$AA@ 0000000180091378     libucrt:lcidtoname_downlevel.obj
 0002:00007380       ??_C@_15FOMCIDHG@?$AAd?$AAa?$AA?$AA@ 0000000180091380     libucrt:lcidtoname_downlevel.obj
 0002:00007388       ??_C@_15NBKABECB@?$AAd?$AAe?$AA?$AA@ 0000000180091388     libucrt:lcidtoname_downlevel.obj
 0002:00007390       ??_C@_15GHPEIIAO@?$AAe?$AAl?$AA?$AA@ 0000000180091390     libucrt:lcidtoname_downlevel.obj
 0002:00007398       ??_C@_15MNPNEAIF@?$AAe?$AAn?$AA?$AA@ 0000000180091398     libucrt:lcidtoname_downlevel.obj
 0002:000073a0       ??_C@_15GPIOMPMH@?$AAe?$AAs?$AA?$AA@ 00000001800913a0     libucrt:lcidtoname_downlevel.obj
 0002:000073a8       ??_C@_15NGLOAKJC@?$AAf?$AAi?$AA?$AA@ 00000001800913a8     libucrt:lcidtoname_downlevel.obj
 0002:000073b0       ??_C@_15FBKGNKAM@?$AAf?$AAr?$AA?$AA@ 00000001800913b0     libucrt:lcidtoname_downlevel.obj
 0002:000073b8       ??_C@_15KGGCNEFK@?$AAh?$AAe?$AA?$AA@ 00000001800913b8     libucrt:lcidtoname_downlevel.obj
 0002:000073c0       ??_C@_15PGHLIDMF@?$AAh?$AAu?$AA?$AA@ 00000001800913c0     libucrt:lcidtoname_downlevel.obj
 0002:000073c8       ??_C@_15BIEMAPLM@?$AAi?$AAs?$AA?$AA@ 00000001800913c8     libucrt:lcidtoname_downlevel.obj
 0002:000073d0       ??_C@_15IFJLDHAF@?$AAi?$AAt?$AA?$AA@ 00000001800913d0     libucrt:lcidtoname_downlevel.obj
 0002:000073d8       ??_C@_15GEMIOCAG@?$AAj?$AAa?$AA?$AA@ 00000001800913d8     libucrt:lcidtoname_downlevel.obj
 0002:000073e0       ??_C@_15EPELEGJA@?$AAk?$AAo?$AA?$AA@ 00000001800913e0     libucrt:lcidtoname_downlevel.obj
 0002:000073e8       ??_C@_15NDDHIMN@?$AAn?$AAl?$AA?$AA@ 00000001800913e8     libucrt:lcidtoname_downlevel.obj
 0002:000073f0       ??_C@_15BPIGNHCD@?$AAn?$AAo?$AA?$AA@ 00000001800913f0     libucrt:lcidtoname_downlevel.obj
 0002:000073f8       ??_C@_15DEOPBLCG@?$AAp?$AAl?$AA?$AA@ 00000001800913f8     libucrt:lcidtoname_downlevel.obj
