 PhysX3CHECKED_x64

 Timestamp is 5a7702af (Sun Feb  4 13:55:11 2018)

 Preferred load address is 0000000180000000

 Start         Length     Name                   Class
 0001:00000000 00026ce0H .text$di                CODE
 0001:00026ce0 002ae030H .text$mn                CODE
 0001:002d4d10 00001110H .text$mn$00             CODE
 0001:002d5e20 000017e1H .text$x                 CODE
 0002:00000000 00000110H .CRT$XCA                DATA
 0002:00000110 000027d8H .CRT$XCU                DATA
 0002:000028e8 00000110H .CRT$XCZ                DATA
 0002:000029f8 00000110H .CRT$XIA                DATA
 0002:00002b08 00000130H .CRT$XIC                DATA
 0002:00002c38 00000110H .CRT$XIZ                DATA
 0002:00002d48 00000110H .CRT$XPA                DATA
 0002:00002e58 00000120H .CRT$XPX                DATA
 0002:00002f78 00000110H .CRT$XPXA               DATA
 0002:00003088 00000110H .CRT$XPZ                DATA
 0002:00003198 00000110H .CRT$XTA                DATA
 0002:000032a8 00000118H .CRT$XTZ                DATA
 0002:000033c0 000449b8H .rdata                  DATA
 0002:00047d78 000004ecH .rdata$r                DATA
 0002:00048264 0000018cH .rdata$zzzdbg           DATA
 0002:000483f0 00000110H .rtc$IAA                DATA
 0002:00048500 00000110H .rtc$IZZ                DATA
 0002:00048610 00000110H .rtc$TAA                DATA
 0002:00048720 00000110H .rtc$TZZ                DATA
 0002:00048830 0002daa0H .xdata                  DATA
 0002:000762d0 000033feH .edata                  DATA
 0003:00000000 00007c20H .data                   DATA
 0003:00007c20 00001580H .data$r                 DATA
 0003:000091a0 000078e1H .bss                    DATA
 0004:00000000 0001d730H .pdata                  DATA
 0005:00000000 000003f0H .idata$5                DATA
 0005:000003f0 00000014H .idata$2                DATA
 0005:00000404 00000014H .idata$3                DATA
 0005:00000418 000003f0H .idata$4                DATA
 0005:00000808 000008f5H .idata$6                DATA
 0006:00000000 00000060H .didat$2                DATA
 0006:00000060 00000020H .didat$3                DATA
 0006:00000080 00000908H .didat$4                DATA
 0006:00000988 00000908H .didat$5                DATA
 0006:00001290 00005670H .didat$6                DATA
 0006:00006900 0000087eH .didat$7                DATA
 0007:00000000 0000013fH .00cfg                  DATA
 0008:00000000 00000940H _RDATA                  DATA
 0009:00000000 000001c0H .rsrc$01                DATA
 0009:000001c0 00000679H .rsrc$02                DATA

  Address         Publics by Value              Rva+Base               Lib:Object

 0000:00000000       ___safe_se_handler_table   0000000000000000     <absolute>
 0000:00000000       __hybrid_code_map_count    0000000000000000     <absolute>
 0000:00000000       __hybrid_auxiliary_iat     0000000000000000     <absolute>
 0000:00000000       ___safe_se_handler_count   0000000000000000     <absolute>
 0000:00000000       __guard_longjmp_table      0000000000000000     <absolute>
 0000:00000000       __hybrid_code_map          0000000000000000     <absolute>
 0000:00000000       __enclave_config           0000000000000000     <absolute>
 0000:00000000       __guard_iat_count          0000000000000000     <absolute>
 0000:00000000       __guard_iat_table          0000000000000000     <absolute>
 0000:00000000       __guard_fids_table         0000000000000000     <absolute>
 0000:00000000       __dynamic_value_reloc_table 0000000000000000     <absolute>
 0000:00000000       __guard_fids_count         0000000000000000     <absolute>
 0000:00000000       __guard_longjmp_count      0000000000000000     <absolute>
 0000:00000100       __guard_flags              0000000000000100     <absolute>
 0000:00000000       __ImageBase                0000000180000000     <linker-defined>
 0001:00026ce0       PxSetPhysXDelayLoadHook    0000000180027ce0 f   NpWindowsDelayLoadHook.obj
 0001:00026cf0       ?delayHook@@YAP6A_JXZIPEAUDelayLoadInfo@@@Z 0000000180027cf0 f   NpWindowsDelayLoadHook.obj
 0001:00026d50       ?physXCommonDliNotePreLoadLibrary@Cm@physx@@YAP6A_JXZPEBDPEBVPxDelayLoadHook@2@@Z 0000000180027d50 f i NpWindowsDelayLoadHook.obj
 0001:00027070       ?createTriangleMeshMirror@NpPhysicsGpu@physx@@QEAA_NAEBVPxTriangleMesh@2@AEAVPxCudaContextManager@2@@Z 0000000180028070 f   NpPhysicsGpu.obj
 0001:00027180       ?releaseTriangleMeshMirror@NpPhysicsGpu@physx@@QEAAXAEBVPxTriangleMesh@2@PEAVPxCudaContextManager@2@@Z 0000000180028180 f   NpPhysicsGpu.obj
 0001:000271a0       ?createHeightFieldMirror@NpPhysicsGpu@physx@@QEAA_NAEBVPxHeightField@2@AEAVPxCudaContextManager@2@@Z 00000001800281a0 f   NpPhysicsGpu.obj
 0001:000272b0       ?releaseHeightFieldMirror@NpPhysicsGpu@physx@@QEAAXAEBVPxHeightField@2@PEAVPxCudaContextManager@2@@Z 00000001800282b0 f   NpPhysicsGpu.obj
 0001:000272d0       ?createConvexMeshMirror@NpPhysicsGpu@physx@@QEAA_NAEBVPxConvexMesh@2@AEAVPxCudaContextManager@2@@Z 00000001800282d0 f   NpPhysicsGpu.obj
 0001:000273e0       ?releaseConvexMeshMirror@NpPhysicsGpu@physx@@QEAAXAEBVPxConvexMesh@2@PEAVPxCudaContextManager@2@@Z 00000001800283e0 f   NpPhysicsGpu.obj
 0001:00027400       ?setExplicitCudaFlushCountHint@NpPhysicsGpu@physx@@QEAAXAEBVPxScene@2@I@Z 0000000180028400 f   NpPhysicsGpu.obj
 0001:000274a0       ?setTriangleMeshCacheSizeHint@NpPhysicsGpu@physx@@QEAA_NAEBVPxScene@2@I@Z 00000001800284a0 f   NpPhysicsGpu.obj
 0001:00027540       ?getTriangleMeshCacheStatistics@NpPhysicsGpu@physx@@QEAA?AUPxTriangleMeshCacheStatistics@2@AEBVPxScene@2@@Z 0000000180028540 f   NpPhysicsGpu.obj
 0001:000275f0       ??0NpPhysicsGpu@physx@@QEAA@AEAVNpPhysics@1@@Z 00000001800285f0 f   NpPhysicsGpu.obj
 0001:00027670       ??1NpPhysicsGpu@physx@@UEAA@XZ 0000000180028670 f   NpPhysicsGpu.obj
 0001:000276c0       ?findMeshMirror@NpPhysicsGpu@physx@@AEAAPEAUMeshMirror@12@PEBX@Z 00000001800286c0 f   NpPhysicsGpu.obj
 0001:000276f0       ?findMeshMirror@NpPhysicsGpu@physx@@AEAAPEAUMeshMirror@12@PEBXAEAVPxCudaContextManager@2@@Z 00000001800286f0 f   NpPhysicsGpu.obj
 0001:00027720       ?getPhysXGpu@NpPhysicsGpu@physx@@AEAAPEAVPxPhysXGpu@2@_NPEBD0@Z 0000000180028720 f   NpPhysicsGpu.obj
 0001:000277a0       ?checkNewMirror@NpPhysicsGpu@physx@@AEAA_NPEBXAEAVPxCudaContextManager@2@PEBD@Z 00000001800287a0 f   NpPhysicsGpu.obj
 0001:00027830       ?checkMirrorExists@NpPhysicsGpu@physx@@AEAA_NPEAUMeshMirror@12@PEBD@Z 0000000180028830 f   NpPhysicsGpu.obj
 0001:000278a0       ?checkMirrorHandle@NpPhysicsGpu@physx@@AEAA_NIPEBD@Z 00000001800288a0 f   NpPhysicsGpu.obj
 0001:00027900       ?addMeshMirror@NpPhysicsGpu@physx@@AEAAXPEBXIAEAVPxCudaContextManager@2@@Z 0000000180028900 f   NpPhysicsGpu.obj
 0001:00027980       ?releaseMeshMirror@NpPhysicsGpu@physx@@AEAAXPEBXPEBDPEAVPxCudaContextManager@2@@Z 0000000180028980 f   NpPhysicsGpu.obj
 0001:00027e40       ??_ENpPhysicsGpu@physx@@UEAAPEAXI@Z 0000000180028e40 f i NpPhysicsGpu.obj
 0001:00027e40       ??_GNpPhysicsGpu@physx@@UEAAPEAXI@Z 0000000180028e40 f i NpPhysicsGpu.obj
 0001:00027ed0       ??_H@YAXPEAX_K1P6APEAX0@Z@Z 0000000180028ed0 f i NpPhysicsGpu.obj
 0001:00027f30       ??_I@YAXPEAX_K1P6AX0@Z@Z   0000000180028f30 f i NpPhysicsGpu.obj
 0001:00027fa0       ?__empty_global_delete@@YAXPEAX@Z 0000000180028fa0 f i NpPhysicsGpu.obj
 0001:00027fb0       ?__global_delete@@YAXPEAX_K@Z 0000000180028fb0 f i NpPhysicsGpu.obj
 0001:00027fb0       ?__global_array_delete@@YAXPEAX_K@Z 0000000180028fb0 f i NpPhysicsGpu.obj
 0001:00027fb0       ?__empty_global_delete@@YAXPEAX_K@Z 0000000180028fb0 f i NpPhysicsGpu.obj
 0001:00027fc0       ?recreate@?$Array@UMeshMirror@NpPhysicsGpu@physx@@VNamedAllocator@shdfnd@3@@shdfnd@physx@@IEAAXI@Z 0000000180028fc0 f i NpPhysicsGpu.obj
 0001:000280e0       PxGetSuggestedCudaDeviceOrdinal 00000001800290e0 f   PxGpu.obj
 0001:00028130       PxCreateCudaContextManager 0000000180029130 f   PxGpu.obj
 0001:000281b0       ?enable@PxParticleDeviceExclusive@physx@@SAXAEAVPxParticleBase@2@@Z 00000001800291b0 f   PxParticleDeviceExclusive.obj
 0001:000282e0       ?isEnabled@PxParticleDeviceExclusive@physx@@SA_NAEAVPxParticleBase@2@@Z 00000001800292e0 f   PxParticleDeviceExclusive.obj
 0001:00028430       ?getReadWriteCudaBuffers@PxParticleDeviceExclusive@physx@@SAXAEAVPxParticleBase@2@AEAUPxCudaReadWriteParticleBuffers@2@@Z 0000000180029430 f   PxParticleDeviceExclusive.obj
 0001:000284f0       ?setValidParticleRange@PxParticleDeviceExclusive@physx@@SAXAEAVPxParticleBase@2@I@Z 00000001800294f0 f   PxParticleDeviceExclusive.obj
 0001:000285c0       ?setFlags@PxParticleDeviceExclusive@physx@@SAXAEAVPxParticleBase@2@V?$PxFlags@W4Enum@PxParticleDeviceExclusiveFlag@physx@@I@2@@Z 00000001800295c0 f   PxParticleDeviceExclusive.obj
 0001:00028690       ?getLaunchTask@PxParticleDeviceExclusive@physx@@SAPEAVPxBaseTask@2@AEAVPxParticleBase@2@@Z 0000000180029690 f   PxParticleDeviceExclusive.obj
 0001:00028760       ?addLaunchTaskDependent@PxParticleDeviceExclusive@physx@@SAXAEAVPxParticleBase@2@AEAVPxBaseTask@2@@Z 0000000180029760 f   PxParticleDeviceExclusive.obj
 0001:00028830       ?getCudaStream@PxParticleDeviceExclusive@physx@@SAPEAUCUstream_st@@AEAVPxParticleBase@2@@Z 0000000180029830 f   PxParticleDeviceExclusive.obj
 0001:00028ac0       ?addLaunchTaskDependentGpu@?$NpParticleBaseTemplate@VPxParticleFluid@physx@@VNpParticleFluid@2@@physx@@QEAAXAEAVPxBaseTask@2@@Z 0000000180029ac0 f i PxParticleDeviceExclusive.obj
 0001:00028b40       ?addLaunchTaskDependentGpu@?$NpParticleBaseTemplate@VPxParticleSystem@physx@@VNpParticleSystem@2@@physx@@QEAAXAEAVPxBaseTask@2@@Z 0000000180029b40 f i PxParticleDeviceExclusive.obj
 0001:00028bc0       ?enableDeviceExclusiveModeGpu@?$NpParticleBaseTemplate@VPxParticleFluid@physx@@VNpParticleFluid@2@@physx@@QEAAXXZ 0000000180029bc0 f i PxParticleDeviceExclusive.obj
 0001:00028cb0       ?enableDeviceExclusiveModeGpu@?$NpParticleBaseTemplate@VPxParticleSystem@physx@@VNpParticleSystem@2@@physx@@QEAAXXZ 0000000180029cb0 f i PxParticleDeviceExclusive.obj
 0001:00028da0       ?getCudaStreamGpu@?$NpParticleBaseTemplate@VPxParticleFluid@physx@@VNpParticleFluid@2@@physx@@QEBA_KXZ 0000000180029da0 f i PxParticleDeviceExclusive.obj
 0001:00028e30       ?getCudaStreamGpu@?$NpParticleBaseTemplate@VPxParticleSystem@physx@@VNpParticleSystem@2@@physx@@QEBA_KXZ 0000000180029e30 f i PxParticleDeviceExclusive.obj
 0001:00028ec0       ?getDeviceExclusiveAccessGpu@?$NpParticleBaseTemplate@VPxParticleFluid@physx@@VNpParticleFluid@2@@physx@@QEBAPEAVPxParticleDeviceExclusiveAccess@2@PEBD@Z 0000000180029ec0 f i PxParticleDeviceExclusive.obj
 0001:00028fb0       ?getDeviceExclusiveAccessGpu@?$NpParticleBaseTemplate@VPxParticleSystem@physx@@VNpParticleSystem@2@@physx@@QEBAPEAVPxParticleDeviceExclusiveAccess@2@PEBD@Z 0000000180029fb0 f i PxParticleDeviceExclusive.obj
 0001:000290a0       ?getLaunchTaskGpu@?$NpParticleBaseTemplate@VPxParticleFluid@physx@@VNpParticleFluid@2@@physx@@QEBAPEAVPxBaseTask@2@XZ 000000018002a0a0 f i PxParticleDeviceExclusive.obj
 0001:00029130       ?getLaunchTaskGpu@?$NpParticleBaseTemplate@VPxParticleSystem@physx@@VNpParticleSystem@2@@physx@@QEBAPEAVPxBaseTask@2@XZ 000000018002a130 f i PxParticleDeviceExclusive.obj
 0001:000291c0       ?getReadWriteCudaBuffersGpu@?$NpParticleBaseTemplate@VPxParticleFluid@physx@@VNpParticleFluid@2@@physx@@QEBAXAEAUPxCudaReadWriteParticleBuffers@2@@Z 000000018002a1c0 f i PxParticleDeviceExclusive.obj
 0001:00029240       ?getReadWriteCudaBuffersGpu@?$NpParticleBaseTemplate@VPxParticleSystem@physx@@VNpParticleSystem@2@@physx@@QEBAXAEAUPxCudaReadWriteParticleBuffers@2@@Z 000000018002a240 f i PxParticleDeviceExclusive.obj
 0001:000292c0       ?isDeviceExclusiveModeEnabledGpu@?$NpParticleBaseTemplate@VPxParticleFluid@physx@@VNpParticleFluid@2@@physx@@QEBA_NXZ 000000018002a2c0 f i PxParticleDeviceExclusive.obj
 0001:000293d0       ?isDeviceExclusiveModeEnabledGpu@?$NpParticleBaseTemplate@VPxParticleSystem@physx@@VNpParticleSystem@2@@physx@@QEBA_NXZ 000000018002a3d0 f i PxParticleDeviceExclusive.obj
 0001:000294e0       ?setDeviceExclusiveModeFlagsGpu@?$NpParticleBaseTemplate@VPxParticleFluid@physx@@VNpParticleFluid@2@@physx@@QEAAXI@Z 000000018002a4e0 f i PxParticleDeviceExclusive.obj
 0001:00029560       ?setDeviceExclusiveModeFlagsGpu@?$NpParticleBaseTemplate@VPxParticleSystem@physx@@VNpParticleSystem@2@@physx@@QEAAXI@Z 000000018002a560 f i PxParticleDeviceExclusive.obj
 0001:000295e0       ?setValidParticleRangeGpu@?$NpParticleBaseTemplate@VPxParticleFluid@physx@@VNpParticleFluid@2@@physx@@QEAAXI@Z 000000018002a5e0 f i PxParticleDeviceExclusive.obj
 0001:00029660       ?setValidParticleRangeGpu@?$NpParticleBaseTemplate@VPxParticleSystem@physx@@VNpParticleSystem@2@@physx@@QEAAXI@Z 000000018002a660 f i PxParticleDeviceExclusive.obj
 0001:000296e0       ?createTriangleMeshMirror@PxParticleGpu@physx@@SA_NAEBVPxTriangleMesh@2@AEAVPxCudaContextManager@2@@Z 000000018002a6e0 f   PxParticleGpu.obj
 0001:00029720       ?releaseTriangleMeshMirror@PxParticleGpu@physx@@SAXAEBVPxTriangleMesh@2@PEAVPxCudaContextManager@2@@Z 000000018002a720 f   PxParticleGpu.obj
 0001:00029760       ?createHeightFieldMirror@PxParticleGpu@physx@@SA_NAEBVPxHeightField@2@AEAVPxCudaContextManager@2@@Z 000000018002a760 f   PxParticleGpu.obj
 0001:000297a0       ?releaseHeightFieldMirror@PxParticleGpu@physx@@SAXAEBVPxHeightField@2@PEAVPxCudaContextManager@2@@Z 000000018002a7a0 f   PxParticleGpu.obj
 0001:000297e0       ?createConvexMeshMirror@PxParticleGpu@physx@@SA_NAEBVPxConvexMesh@2@AEAVPxCudaContextManager@2@@Z 000000018002a7e0 f   PxParticleGpu.obj
 0001:00029820       ?releaseConvexMeshMirror@PxParticleGpu@physx@@SAXAEBVPxConvexMesh@2@PEAVPxCudaContextManager@2@@Z 000000018002a820 f   PxParticleGpu.obj
 0001:00029860       ?setExplicitCudaFlushCountHint@PxParticleGpu@physx@@SAXAEBVPxScene@2@I@Z 000000018002a860 f   PxParticleGpu.obj
 0001:000298a0       ?setTriangleMeshCacheSizeHint@PxParticleGpu@physx@@SA_NAEBVPxScene@2@I@Z 000000018002a8a0 f   PxParticleGpu.obj
 0001:000298e0       ?getTriangleMeshCacheStatistics@PxParticleGpu@physx@@SA?AUPxTriangleMeshCacheStatistics@2@AEBVPxScene@2@@Z 000000018002a8e0 f   PxParticleGpu.obj
 0001:000299b0       PxSetPhysXGpuLoadHook      000000018002a9b0 f   PxPhysXGpuModuleLoader.obj
 0001:00029a60       ?PxLoadPhysxGPUModule@physx@@YAXPEBD@Z 000000018002aa60 f   PxPhysXGpuModuleLoader.obj
 0001:00029c40       ?registerPhysXIndicatorGpuClient@PxPhysXIndicatorDeviceExclusive@physx@@SAXAEAVPxPhysics@2@@Z 000000018002ac40 f   PxPhysXIndicatorDeviceExclusive.obj
 0001:00029c50       ?unregisterPhysXIndicatorGpuClient@PxPhysXIndicatorDeviceExclusive@physx@@SAXAEAVPxPhysics@2@@Z 000000018002ac50 f   PxPhysXIndicatorDeviceExclusive.obj
 0001:00029c60       ??0PhysXIndicator@physx@@QEAA@_N@Z 000000018002ac60 f   PhysXIndicatorWindows.obj
 0001:00029e10       ??1PhysXIndicator@physx@@QEAA@XZ 000000018002ae10 f   PhysXIndicatorWindows.obj
 0001:00029e70       ?setIsGpu@PhysXIndicator@physx@@QEAAX_N@Z 000000018002ae70 f   PhysXIndicatorWindows.obj
 0001:00029f40       ??$__vcrt_va_start_verify_argument_type@QEBD@@YAXXZ 000000018002af40 f i PhysXIndicatorWindows.obj
 0001:00029f50       __local_stdio_printf_options 000000018002af50 f i PhysXIndicatorWindows.obj
 0001:00029f60       sprintf                    000000018002af60 f i PhysXIndicatorWindows.obj
 0001:00029fd0       ?createObject@NpParticleFluid@physx@@SAPEAV12@AEAPEAEAEAVPxDeserializationContext@2@@Z 000000018002afd0 f   NpParticleFluid.obj
 0001:0002a090       ??0NpParticleFluid@physx@@QEAA@I_N@Z 000000018002b090 f   NpParticleFluid.obj
 0001:0002a120       ??1NpParticleFluid@physx@@UEAA@XZ 000000018002b120 f   NpParticleFluid.obj
 0001:0002a170       ?is@NpParticleFluid@physx@@UEAAPEAXW4Enum@PxActorType@2@@Z 000000018002b170 f   NpParticleFluid.obj
 0001:0002a180       ?is@NpParticleFluid@physx@@UEBAPEBXW4Enum@PxActorType@2@@Z 000000018002b180 f   NpParticleFluid.obj
 0001:0002a190       ?lockParticleFluidReadData@NpParticleFluid@physx@@UEAAPEAVPxParticleFluidReadData@2@V?$PxFlags@W4Enum@PxDataAccessFlag@physx@@E@2@@Z 000000018002b190 f   NpParticleFluid.obj
 0001:0002a1c0       ?lockParticleFluidReadData@NpParticleFluid@physx@@UEAAPEAVPxParticleFluidReadData@2@XZ 000000018002b1c0 f   NpParticleFluid.obj
 0001:0002a1d0       ?getStiffness@NpParticleFluid@physx@@UEBAMXZ 000000018002b1d0 f   NpParticleFluid.obj
 0001:0002a240       ?setStiffness@NpParticleFluid@physx@@UEAAXM@Z 000000018002b240 f   NpParticleFluid.obj
 0001:0002a350       ?getViscosity@NpParticleFluid@physx@@UEBAMXZ 000000018002b350 f   NpParticleFluid.obj
 0001:0002a3c0       ?setViscosity@NpParticleFluid@physx@@UEAAXM@Z 000000018002b3c0 f   NpParticleFluid.obj
 0001:0002a4d0       ?getRestParticleDistance@NpParticleFluid@physx@@UEBAMXZ 000000018002b4d0 f   NpParticleFluid.obj
 0001:0002a530       ?setRestParticleDistance@NpParticleFluid@physx@@UEAAXM@Z 000000018002b530 f   NpParticleFluid.obj
 0001:0002a800       ??$pointerOffset@PEAVActor@Scb@physx@@@shdfnd@physx@@YAPEAVActor@Scb@1@PEAX_J@Z 000000018002b800 f i NpParticleFluid.obj
 0001:0002a810       ??$pointerOffset@PEBVActor@Scb@physx@@@shdfnd@physx@@YAPEBVActor@Scb@1@PEBX_J@Z 000000018002b810 f i NpParticleFluid.obj
 0001:0002a820       ??0?$NpActorTemplate@VPxParticleFluid@physx@@@physx@@QEAA@GV?$PxFlags@W4Enum@PxBaseFlag@physx@@G@1@PEBDPEAX@Z 000000018002b820 f i NpParticleFluid.obj
 0001:0002a890       ??0?$NpParticleBaseTemplate@VPxParticleFluid@physx@@VNpParticleFluid@2@@physx@@QEAA@GV?$PxFlags@W4Enum@PxBaseFlag@physx@@G@1@AEBW4Enum@PxActorType@1@I_N@Z 000000018002b890 f i NpParticleFluid.obj
 0001:0002a920       ??0PxVec3@physx@@QEAA@XZ   000000018002b920 f i NpParticleFluid.obj
 0001:0002a930       ??1?$NpActorTemplate@VPxParticleFluid@physx@@@physx@@UEAA@XZ 000000018002b930 f i NpParticleFluid.obj
 0001:0002a970       ??1?$NpParticleBaseTemplate@VPxParticleFluid@physx@@VNpParticleFluid@2@@physx@@UEAA@XZ 000000018002b970 f i NpParticleFluid.obj
 0001:0002a9d0       ??1NpParticleFluidReadData@physx@@UEAA@XZ 000000018002b9d0 f i NpParticleFluid.obj
 0001:0002a9e0       ??1PxActor@physx@@MEAA@XZ  000000018002b9e0 f i NpParticleFluid.obj
 0001:0002a9f0       ??1PxBase@physx@@MEAA@XZ   000000018002b9f0 f i NpParticleFluid.obj
 0001:0002aa00       ??1PxLockedData@physx@@UEAA@XZ 000000018002ba00 f i NpParticleFluid.obj
 0001:0002aa10       ??1PxParticleBase@physx@@MEAA@XZ 000000018002ba10 f i NpParticleFluid.obj
 0001:0002aa20       ??1PxParticleFluid@physx@@MEAA@XZ 000000018002ba20 f i NpParticleFluid.obj
 0001:0002aa30       ??1PxParticleFluidReadData@physx@@UEAA@XZ 000000018002ba30 f i NpParticleFluid.obj
 0001:0002aa40       ??1PxParticleReadData@physx@@UEAA@XZ 000000018002ba40 f i NpParticleFluid.obj
 0001:0002aa50       ??_E?$NpActorTemplate@VPxParticleFluid@physx@@@physx@@UEAAPEAXI@Z 000000018002ba50 f i NpParticleFluid.obj
 0001:0002aa50       ??_G?$NpActorTemplate@VPxParticleFluid@physx@@@physx@@UEAAPEAXI@Z 000000018002ba50 f i NpParticleFluid.obj
 0001:0002aaf0       ??_G?$NpParticleBaseTemplate@VPxParticleFluid@physx@@VNpParticleFluid@2@@physx@@UEAAPEAXI@Z 000000018002baf0 f i NpParticleFluid.obj
 0001:0002aaf0       ??_E?$NpParticleBaseTemplate@VPxParticleFluid@physx@@VNpParticleFluid@2@@physx@@UEAAPEAXI@Z 000000018002baf0 f i NpParticleFluid.obj
 0001:0002abb0       ??_ENpParticleFluid@physx@@UEAAPEAXI@Z 000000018002bbb0 f i NpParticleFluid.obj
 0001:0002abb0       ??_GNpParticleFluid@physx@@UEAAPEAXI@Z 000000018002bbb0 f i NpParticleFluid.obj
 0001:0002ac70       ??_ENpParticleFluidReadData@physx@@UEAAPEAXI@Z 000000018002bc70 f i NpParticleFluid.obj
 0001:0002ac70       ??_GNpParticleFluidReadData@physx@@UEAAPEAXI@Z 000000018002bc70 f i NpParticleFluid.obj
 0001:0002acd0       ??_EPxActor@physx@@MEAAPEAXI@Z 000000018002bcd0 f i NpParticleFluid.obj
 0001:0002acd0       ??_GPxActor@physx@@MEAAPEAXI@Z 000000018002bcd0 f i NpParticleFluid.obj
 0001:0002ad10       ??_GPxBase@physx@@MEAAPEAXI@Z 000000018002bd10 f i NpParticleFluid.obj
 0001:0002ad10       ??_EPxBase@physx@@MEAAPEAXI@Z 000000018002bd10 f i NpParticleFluid.obj
 0001:0002ad50       ??_GPxLockedData@physx@@UEAAPEAXI@Z 000000018002bd50 f i NpParticleFluid.obj
 0001:0002ad50       ??_EPxLockedData@physx@@UEAAPEAXI@Z 000000018002bd50 f i NpParticleFluid.obj
 0001:0002ad90       ??_GPxParticleBase@physx@@MEAAPEAXI@Z 000000018002bd90 f i NpParticleFluid.obj
 0001:0002ad90       ??_EPxParticleBase@physx@@MEAAPEAXI@Z 000000018002bd90 f i NpParticleFluid.obj
 0001:0002add0       ??_EPxParticleFluid@physx@@MEAAPEAXI@Z 000000018002bdd0 f i NpParticleFluid.obj
 0001:0002add0       ??_GPxParticleFluid@physx@@MEAAPEAXI@Z 000000018002bdd0 f i NpParticleFluid.obj
 0001:0002ae10       ??_EPxParticleFluidReadData@physx@@UEAAPEAXI@Z 000000018002be10 f i NpParticleFluid.obj
 0001:0002ae10       ??_GPxParticleFluidReadData@physx@@UEAAPEAXI@Z 000000018002be10 f i NpParticleFluid.obj
 0001:0002ae50       ??_EPxParticleReadData@physx@@UEAAPEAXI@Z 000000018002be50 f i NpParticleFluid.obj
 0001:0002ae50       ??_GPxParticleReadData@physx@@UEAAPEAXI@Z 000000018002be50 f i NpParticleFluid.obj
 0001:0002ae90       ?addForces@?$NpParticleBaseTemplate@VPxParticleFluid@physx@@VNpParticleFluid@2@@physx@@UEAAXIAEBV?$PxStrideIterator@$$CBI@2@AEBV?$PxStrideIterator@$$CBVPxVec3@physx@@@2@W4Enum@PxForceMode@2@@Z 000000018002be90 f i NpParticleFluid.obj
 0001:0002b080       ?checkAllocatedIndices@?$NpParticleBaseTemplate@VPxParticleFluid@physx@@VNpParticleFluid@2@@physx@@AEAA_NIAEBV?$PxStrideIterator@$$CBI@2@@Z 000000018002c080 f i NpParticleFluid.obj
 0001:0002b200       ?checkFreeIndices@?$NpParticleBaseTemplate@VPxParticleFluid@physx@@VNpParticleFluid@2@@physx@@AEAA_NIAEBV?$PxStrideIterator@$$CBI@2@@Z 000000018002c200 f i NpParticleFluid.obj
 0001:0002b6e0       ?createParticles@?$NpParticleBaseTemplate@VPxParticleFluid@physx@@VNpParticleFluid@2@@physx@@UEAA_NAEBVPxParticleCreationData@2@@Z 000000018002c6e0 f i NpParticleFluid.obj
 0001:0002baf0       ?erase@?$HashBase@PEAVPxParticleBase@physx@@PEAV12@U?$Hash@PEAVPxParticleBase@physx@@@shdfnd@2@UGetKey@?$HashSetBase@PEAVPxParticleBase@physx@@U?$Hash@PEAVPxParticleBase@physx@@@shdfnd@2@VNonTrackingAllocator@42@$00@internal@42@VNonTrackingAllocator@42@$00@internal@shdfnd@physx@@QEAA_NAEBQEAVPxParticleBase@4@@Z 000000018002caf0 f i NpParticleFluid.obj
 0001:0002bcd0       ?exportExtraData@?$NpActorTemplate@VPxParticleFluid@physx@@@physx@@UEAAXAEAVPxSerializationContext@2@@Z 000000018002ccd0 f i NpParticleFluid.obj
 0001:0002bce0       ?exportExtraData@NpParticleFluid@physx@@UEAAXAEAVPxSerializationContext@2@@Z 000000018002cce0 f i NpParticleFluid.obj
 0001:0002bcf0       ?getActorFlags@?$NpActorTemplate@VPxParticleFluid@physx@@@physx@@UEBA?AV?$PxFlags@W4Enum@PxActorFlag@physx@@E@2@XZ 000000018002ccf0 f i NpParticleFluid.obj
 0001:0002bd90       ?getAggregate@?$NpActorTemplate@VPxParticleFluid@physx@@@physx@@UEBAPEAVPxAggregate@2@XZ 000000018002cd90 f i NpParticleFluid.obj
 0001:0002bda0       ?getClientBehaviorFlags@?$NpActorTemplate@VPxParticleFluid@physx@@@physx@@UEBA?AV?$PxFlags@W4Enum@PxActorClientBehaviorFlag@physx@@E@2@XZ 000000018002cda0 f i NpParticleFluid.obj
 0001:0002be40       ?getConcreteTypeName@PxParticleFluid@physx@@UEBAPEBDXZ 000000018002ce40 f i NpParticleFluid.obj
 0001:0002be50       ?getContactOffset@?$NpParticleBaseTemplate@VPxParticleFluid@physx@@VNpParticleFluid@2@@physx@@UEBAMXZ 000000018002ce50 f i NpParticleFluid.obj
 0001:0002beb0       ?getDamping@?$NpParticleBaseTemplate@VPxParticleFluid@physx@@VNpParticleFluid@2@@physx@@UEBAMXZ 000000018002ceb0 f i NpParticleFluid.obj
 0001:0002bf30       ?getDataAccessFlags@NpParticleFluidReadData@physx@@UEAA?AV?$PxFlags@W4Enum@PxDataAccessFlag@physx@@E@2@XZ 000000018002cf30 f i NpParticleFluid.obj
 0001:0002bf40       ?getDominanceGroup@?$NpActorTemplate@VPxParticleFluid@physx@@@physx@@UEBAEXZ 000000018002cf40 f i NpParticleFluid.obj
 0001:0002bff0       ?getDynamicFriction@?$NpParticleBaseTemplate@VPxParticleFluid@physx@@VNpParticleFluid@2@@physx@@UEBAMXZ 000000018002cff0 f i NpParticleFluid.obj
 0001:0002c070       ?getExternalAcceleration@?$NpParticleBaseTemplate@VPxParticleFluid@physx@@VNpParticleFluid@2@@physx@@UEBA?AVPxVec3@2@XZ 000000018002d070 f i NpParticleFluid.obj
 0001:0002c100       ?getGridSize@?$NpParticleBaseTemplate@VPxParticleFluid@physx@@VNpParticleFluid@2@@physx@@UEBAMXZ 000000018002d100 f i NpParticleFluid.obj
 0001:0002c160       ?getMaxMotionDistance@?$NpParticleBaseTemplate@VPxParticleFluid@physx@@VNpParticleFluid@2@@physx@@UEBAMXZ 000000018002d160 f i NpParticleFluid.obj
 0001:0002c1c0       ?getMaxParticles@?$NpParticleBaseTemplate@VPxParticleFluid@physx@@VNpParticleFluid@2@@physx@@UEBAIXZ 000000018002d1c0 f i NpParticleFluid.obj
 0001:0002c210       ?getName@?$NpActorTemplate@VPxParticleFluid@physx@@@physx@@UEBAPEBDXZ 000000018002d210 f i NpParticleFluid.obj
 0001:0002c260       ?getOwnerClient@?$NpActorTemplate@VPxParticleFluid@physx@@@physx@@UEBAEXZ 000000018002d260 f i NpParticleFluid.obj
 0001:0002c2a0       ?getParticleBaseFlags@?$NpParticleBaseTemplate@VPxParticleFluid@physx@@VNpParticleFluid@2@@physx@@UEBA?AV?$PxFlags@W4Enum@PxParticleBaseFlag@physx@@G@2@XZ 000000018002d2a0 f i NpParticleFluid.obj
 0001:0002c330       ?getParticleMass@?$NpParticleBaseTemplate@VPxParticleFluid@physx@@VNpParticleFluid@2@@physx@@UEBAMXZ 000000018002d330 f i NpParticleFluid.obj
 0001:0002c3b0       ?getParticleReadDataFlags@?$NpParticleBaseTemplate@VPxParticleFluid@physx@@VNpParticleFluid@2@@physx@@UEBA?AV?$PxFlags@W4Enum@PxParticleReadDataFlag@physx@@G@2@XZ 000000018002d3b0 f i NpParticleFluid.obj
 0001:0002c410       ?getProjectionPlane@?$NpParticleBaseTemplate@VPxParticleFluid@physx@@VNpParticleFluid@2@@physx@@UEBAXAEAVPxVec3@2@AEAM@Z 000000018002d410 f i NpParticleFluid.obj
 0001:0002c4c0       ?getRestOffset@?$NpParticleBaseTemplate@VPxParticleFluid@physx@@VNpParticleFluid@2@@physx@@UEBAMXZ 000000018002d4c0 f i NpParticleFluid.obj
 0001:0002c520       ?getRestitution@?$NpParticleBaseTemplate@VPxParticleFluid@physx@@VNpParticleFluid@2@@physx@@UEBAMXZ 000000018002d520 f i NpParticleFluid.obj
 0001:0002c5a0       ?getScene@?$NpActorTemplate@VPxParticleFluid@physx@@@physx@@UEBAPEAVPxScene@2@XZ 000000018002d5a0 f i NpParticleFluid.obj
 0001:0002c5b0       ?getSimulationFilterData@?$NpParticleBaseTemplate@VPxParticleFluid@physx@@VNpParticleFluid@2@@physx@@UEBA?AUPxFilterData@2@XZ 000000018002d5b0 f i NpParticleFluid.obj
 0001:0002c630       ?getStaticFriction@?$NpParticleBaseTemplate@VPxParticleFluid@physx@@VNpParticleFluid@2@@physx@@UEBAMXZ 000000018002d630 f i NpParticleFluid.obj
 0001:0002c6b0       ?getType@?$NpParticleBaseTemplate@VPxParticleFluid@physx@@VNpParticleFluid@2@@physx@@UEBA?AW4Enum@PxActorType@2@XZ 000000018002d6b0 f i NpParticleFluid.obj
 0001:0002c6c0       ?getType@NpParticleFluid@physx@@UEBA?AW4Enum@PxActorType@2@XZ 000000018002d6c0 f i NpParticleFluid.obj
 0001:0002c6d0       ?getWorldBounds@?$NpParticleBaseTemplate@VPxParticleFluid@physx@@VNpParticleFluid@2@@physx@@UEBA?AVPxBounds3@2@M@Z 000000018002d6d0 f i NpParticleFluid.obj
 0001:0002c8d0       ?isKindOf@PxActor@physx@@MEBA_NPEBD@Z 000000018002d8d0 f i NpParticleFluid.obj
 0001:0002c930       ?isKindOf@PxBase@physx@@MEBA_NPEBD@Z 000000018002d930 f i NpParticleFluid.obj
 0001:0002c970       ?isKindOf@PxParticleBase@physx@@MEBA_NPEBD@Z 000000018002d970 f i NpParticleFluid.obj
 0001:0002ca20       ?isKindOf@PxParticleFluid@physx@@MEBA_NPEBD@Z 000000018002da20 f i NpParticleFluid.obj
 0001:0002ca80       ?isReleasable@PxBase@physx@@UEBA_NXZ 000000018002da80 f i NpParticleFluid.obj
 0001:0002ca90       ?lockParticleReadData@?$NpParticleBaseTemplate@VPxParticleFluid@physx@@VNpParticleFluid@2@@physx@@UEAAPEAVPxParticleReadData@2@V?$PxFlags@W4Enum@PxDataAccessFlag@physx@@E@2@@Z 000000018002da90 f i NpParticleFluid.obj
 0001:0002cb00       ?lockParticleReadData@?$NpParticleBaseTemplate@VPxParticleFluid@physx@@VNpParticleFluid@2@@physx@@UEAAPEAVPxParticleReadData@2@XZ 000000018002db00 f i NpParticleFluid.obj
 0001:0002cb60       ?lockParticleReadData@ParticleSystem@Scb@physx@@QEAAPEAVPxParticleReadData@3@V?$PxFlags@W4Enum@PxDataAccessFlag@physx@@E@3@@Z 000000018002db60 f i NpParticleFluid.obj
 0001:0002ce20       ?release@?$NpActorTemplate@VPxParticleFluid@physx@@@physx@@UEAAXXZ 000000018002de20 f i NpParticleFluid.obj
 0001:0002ce30       ?release@?$NpParticleBaseTemplate@VPxParticleFluid@physx@@VNpParticleFluid@2@@physx@@UEAAXXZ 000000018002de30 f i NpParticleFluid.obj
 0001:0002cf10       ?releaseParticles@?$NpParticleBaseTemplate@VPxParticleFluid@physx@@VNpParticleFluid@2@@physx@@UEAAXIAEBV?$PxStrideIterator@$$CBI@2@@Z 000000018002df10 f i NpParticleFluid.obj
 0001:0002d070       ?releaseParticles@?$NpParticleBaseTemplate@VPxParticleFluid@physx@@VNpParticleFluid@2@@physx@@UEAAXXZ 000000018002e070 f i NpParticleFluid.obj
 0001:0002d0c0       ?requires@NpParticleFluid@physx@@UEAAXAEAVPxProcessPxBaseCallback@2@@Z 000000018002e0c0 f i NpParticleFluid.obj
 0001:0002d0d0       ?resetFiltering@?$NpParticleBaseTemplate@VPxParticleFluid@physx@@VNpParticleFluid@2@@physx@@UEAAXXZ 000000018002e0d0 f i NpParticleFluid.obj
 0001:0002d150       ?resolveReferences@?$NpActorTemplate@VPxParticleFluid@physx@@@physx@@UEAAXAEAVPxDeserializationContext@2@@Z 000000018002e150 f i NpParticleFluid.obj
 0001:0002d160       ?setActorFlag@?$NpActorTemplate@VPxParticleFluid@physx@@@physx@@UEAAXW4Enum@PxActorFlag@2@_N@Z 000000018002e160 f i NpParticleFluid.obj
 0001:0002d270       ?setActorFlags@?$NpActorTemplate@VPxParticleFluid@physx@@@physx@@UEAAXV?$PxFlags@W4Enum@PxActorFlag@physx@@E@2@@Z 000000018002e270 f i NpParticleFluid.obj
 0001:0002d2f0       ?setActorFlags@Actor@Scb@physx@@QEAAXV?$PxFlags@W4Enum@PxActorFlag@physx@@E@3@@Z 000000018002e2f0 f i NpParticleFluid.obj
 0001:0002d480       ?setClientBehaviorFlags@?$NpActorTemplate@VPxParticleFluid@physx@@@physx@@UEAAXV?$PxFlags@W4Enum@PxActorClientBehaviorFlag@physx@@E@2@@Z 000000018002e480 f i NpParticleFluid.obj
 0001:0002d500       ?setClientBehaviorFlags@Actor@Scb@physx@@QEAAXV?$PxFlags@W4Enum@PxActorClientBehaviorFlag@physx@@E@3@@Z 000000018002e500 f i NpParticleFluid.obj
 0001:0002d5d0       ?setContactOffset@?$NpParticleBaseTemplate@VPxParticleFluid@physx@@VNpParticleFluid@2@@physx@@UEAAXM@Z 000000018002e5d0 f i NpParticleFluid.obj
 0001:0002d6e0       ?setContactOffset@ParticleSystem@Scb@physx@@QEAAXM@Z 000000018002e6e0 f i NpParticleFluid.obj
 0001:0002d760       ?setDamping@?$NpParticleBaseTemplate@VPxParticleFluid@physx@@VNpParticleFluid@2@@physx@@UEAAXM@Z 000000018002e760 f i NpParticleFluid.obj
 0001:0002d8b0       ?setDataAccessFlags@NpParticleFluidReadData@physx@@UEAAXV?$PxFlags@W4Enum@PxDataAccessFlag@physx@@E@2@@Z 000000018002e8b0 f i NpParticleFluid.obj
 0001:0002d8c0       ?setDominanceGroup@?$NpActorTemplate@VPxParticleFluid@physx@@@physx@@UEAAXE@Z 000000018002e8c0 f i NpParticleFluid.obj
 0001:0002d9e0       ?setDynamicFriction@?$NpParticleBaseTemplate@VPxParticleFluid@physx@@VNpParticleFluid@2@@physx@@UEAAXM@Z 000000018002e9e0 f i NpParticleFluid.obj
 0001:0002db40       ?setExternalAcceleration@?$NpParticleBaseTemplate@VPxParticleFluid@physx@@VNpParticleFluid@2@@physx@@UEAAXAEBVPxVec3@2@@Z 000000018002eb40 f i NpParticleFluid.obj
 0001:0002dc60       ?setFlags@ParticleSystem@Scb@physx@@QEAAXV?$PxFlags@W4Enum@PxParticleBaseFlag@physx@@G@3@@Z 000000018002ec60 f i NpParticleFluid.obj
 0001:0002dd40       ?setGridSize@?$NpParticleBaseTemplate@VPxParticleFluid@physx@@VNpParticleFluid@2@@physx@@UEAAXM@Z 000000018002ed40 f i NpParticleFluid.obj
 0001:0002de50       ?setGridSize@ParticleSystem@Scb@physx@@QEAAXM@Z 000000018002ee50 f i NpParticleFluid.obj
 0001:0002ded0       ?setMaxMotionDistance@?$NpParticleBaseTemplate@VPxParticleFluid@physx@@VNpParticleFluid@2@@physx@@UEAAXM@Z 000000018002eed0 f i NpParticleFluid.obj
 0001:0002dfe0       ?setMaxMotionDistance@ParticleSystem@Scb@physx@@QEAAXM@Z 000000018002efe0 f i NpParticleFluid.obj
 0001:0002e060       ?setName@?$NpActorTemplate@VPxParticleFluid@physx@@@physx@@UEAAXPEBD@Z 000000018002f060 f i NpParticleFluid.obj
 0001:0002e100       ?setOwnerClient@?$NpActorTemplate@VPxParticleFluid@physx@@@physx@@UEAAXE@Z 000000018002f100 f i NpParticleFluid.obj
 0001:0002e1a0       ?setOwnerClient@Actor@Scb@physx@@QEAAXE@Z 000000018002f1a0 f i NpParticleFluid.obj
 0001:0002e280       ?setParticleBaseFlag@?$NpParticleBaseTemplate@VPxParticleFluid@physx@@VNpParticleFluid@2@@physx@@UEAAXW4Enum@PxParticleBaseFlag@2@_N@Z 000000018002f280 f i NpParticleFluid.obj
 0001:0002e3b0       ?setParticleMass@?$NpParticleBaseTemplate@VPxParticleFluid@physx@@VNpParticleFluid@2@@physx@@UEAAXM@Z 000000018002f3b0 f i NpParticleFluid.obj
 0001:0002e500       ?setParticleReadDataFlag@?$NpParticleBaseTemplate@VPxParticleFluid@physx@@VNpParticleFluid@2@@physx@@UEAAXW4Enum@PxParticleReadDataFlag@2@_N@Z 000000018002f500 f i NpParticleFluid.obj
 0001:0002e6b0       ?setParticleReadDataFlags@ParticleSystem@Scb@physx@@QEAAXV?$PxFlags@W4Enum@PxParticleReadDataFlag@physx@@G@3@@Z 000000018002f6b0 f i NpParticleFluid.obj
 0001:0002e740       ?setPositions@?$NpParticleBaseTemplate@VPxParticleFluid@physx@@VNpParticleFluid@2@@physx@@UEAAXIAEBV?$PxStrideIterator@$$CBI@2@AEBV?$PxStrideIterator@$$CBVPxVec3@physx@@@2@@Z 000000018002f740 f i NpParticleFluid.obj
 0001:0002e8e0       ?setProjectionPlane@?$NpParticleBaseTemplate@VPxParticleFluid@physx@@VNpParticleFluid@2@@physx@@UEAAXAEBVPxVec3@2@M@Z 000000018002f8e0 f i NpParticleFluid.obj
 0001:0002eab0       ?setRestOffset@?$NpParticleBaseTemplate@VPxParticleFluid@physx@@VNpParticleFluid@2@@physx@@UEAAXM@Z 000000018002fab0 f i NpParticleFluid.obj
 0001:0002ec70       ?setRestOffset@ParticleSystem@Scb@physx@@QEAAXM@Z 000000018002fc70 f i NpParticleFluid.obj
 0001:0002ecf0       ?setRestOffsets@?$NpParticleBaseTemplate@VPxParticleFluid@physx@@VNpParticleFluid@2@@physx@@UEAAXIAEBV?$PxStrideIterator@$$CBI@2@AEBV?$PxStrideIterator@$$CBM@2@@Z 000000018002fcf0 f i NpParticleFluid.obj
 0001:0002ef40       ?setRestitution@?$NpParticleBaseTemplate@VPxParticleFluid@physx@@VNpParticleFluid@2@@physx@@UEAAXM@Z 000000018002ff40 f i NpParticleFluid.obj
 0001:0002f0a0       ?setSimulationFilterData@?$NpParticleBaseTemplate@VPxParticleFluid@physx@@VNpParticleFluid@2@@physx@@UEAAXAEBUPxFilterData@2@@Z 00000001800300a0 f i NpParticleFluid.obj
 0001:0002f1b0       ?setStaticFriction@?$NpParticleBaseTemplate@VPxParticleFluid@physx@@VNpParticleFluid@2@@physx@@UEAAXM@Z 00000001800301b0 f i NpParticleFluid.obj
 0001:0002f300       ?setVelocities@?$NpParticleBaseTemplate@VPxParticleFluid@physx@@VNpParticleFluid@2@@physx@@UEAAXIAEBV?$PxStrideIterator@$$CBI@2@AEBV?$PxStrideIterator@$$CBVPxVec3@physx@@@2@@Z 0000000180030300 f i NpParticleFluid.obj
 0001:0002f4a0       ?unlock@NpParticleFluidReadData@physx@@UEAAXXZ 00000001800304a0 f i NpParticleFluid.obj
 0001:0002f4b0       ?createObject@NpParticleSystem@physx@@SAPEAV12@AEAPEAEAEAVPxDeserializationContext@2@@Z 00000001800304b0 f   NpParticleSystem.obj
 0001:0002f570       ??0NpParticleSystem@physx@@QEAA@I_N@Z 0000000180030570 f   NpParticleSystem.obj
 0001:0002f600       ??1NpParticleSystem@physx@@UEAA@XZ 0000000180030600 f   NpParticleSystem.obj
 0001:0002f650       ?setParticleReadDataFlag@NpParticleSystem@physx@@UEAAXW4Enum@PxParticleReadDataFlag@2@_N@Z 0000000180030650 f   NpParticleSystem.obj
 0001:0002f770       ??0?$NpActorTemplate@VPxParticleSystem@physx@@@physx@@QEAA@GV?$PxFlags@W4Enum@PxBaseFlag@physx@@G@1@PEBDPEAX@Z 0000000180030770 f i NpParticleSystem.obj
 0001:0002f7e0       ??0?$NpParticleBaseTemplate@VPxParticleSystem@physx@@VNpParticleSystem@2@@physx@@QEAA@GV?$PxFlags@W4Enum@PxBaseFlag@physx@@G@1@AEBW4Enum@PxActorType@1@I_N@Z 00000001800307e0 f i NpParticleSystem.obj
 0001:0002f870       ??1?$NpActorTemplate@VPxParticleSystem@physx@@@physx@@UEAA@XZ 0000000180030870 f i NpParticleSystem.obj
 0001:0002f8b0       ??1?$NpParticleBaseTemplate@VPxParticleSystem@physx@@VNpParticleSystem@2@@physx@@UEAA@XZ 00000001800308b0 f i NpParticleSystem.obj
 0001:0002f910       ??1PxParticleSystem@physx@@MEAA@XZ 0000000180030910 f i NpParticleSystem.obj
 0001:0002f920       ??_G?$NpActorTemplate@VPxParticleSystem@physx@@@physx@@UEAAPEAXI@Z 0000000180030920 f i NpParticleSystem.obj
 0001:0002f920       ??_E?$NpActorTemplate@VPxParticleSystem@physx@@@physx@@UEAAPEAXI@Z 0000000180030920 f i NpParticleSystem.obj
 0001:0002f9c0       ??_E?$NpParticleBaseTemplate@VPxParticleSystem@physx@@VNpParticleSystem@2@@physx@@UEAAPEAXI@Z 00000001800309c0 f i NpParticleSystem.obj
 0001:0002f9c0       ??_G?$NpParticleBaseTemplate@VPxParticleSystem@physx@@VNpParticleSystem@2@@physx@@UEAAPEAXI@Z 00000001800309c0 f i NpParticleSystem.obj
 0001:0002fa80       ??_ENpParticleSystem@physx@@UEAAPEAXI@Z 0000000180030a80 f i NpParticleSystem.obj
 0001:0002fa80       ??_GNpParticleSystem@physx@@UEAAPEAXI@Z 0000000180030a80 f i NpParticleSystem.obj
 0001:0002fb40       ??_EPxParticleSystem@physx@@MEAAPEAXI@Z 0000000180030b40 f i NpParticleSystem.obj
 0001:0002fb40       ??_GPxParticleSystem@physx@@MEAAPEAXI@Z 0000000180030b40 f i NpParticleSystem.obj
 0001:0002fb80       ?addForces@?$NpParticleBaseTemplate@VPxParticleSystem@physx@@VNpParticleSystem@2@@physx@@UEAAXIAEBV?$PxStrideIterator@$$CBI@2@AEBV?$PxStrideIterator@$$CBVPxVec3@physx@@@2@W4Enum@PxForceMode@2@@Z 0000000180030b80 f i NpParticleSystem.obj
 0001:0002fd70       ?checkAllocatedIndices@?$NpParticleBaseTemplate@VPxParticleSystem@physx@@VNpParticleSystem@2@@physx@@AEAA_NIAEBV?$PxStrideIterator@$$CBI@2@@Z 0000000180030d70 f i NpParticleSystem.obj
 0001:0002fef0       ?checkFreeIndices@?$NpParticleBaseTemplate@VPxParticleSystem@physx@@VNpParticleSystem@2@@physx@@AEAA_NIAEBV?$PxStrideIterator@$$CBI@2@@Z 0000000180030ef0 f i NpParticleSystem.obj
 0001:000303d0       ?createParticles@?$NpParticleBaseTemplate@VPxParticleSystem@physx@@VNpParticleSystem@2@@physx@@UEAA_NAEBVPxParticleCreationData@2@@Z 00000001800313d0 f i NpParticleSystem.obj
 0001:000307e0       ?exportExtraData@?$NpActorTemplate@VPxParticleSystem@physx@@@physx@@UEAAXAEAVPxSerializationContext@2@@Z 00000001800317e0 f i NpParticleSystem.obj
 0001:000307f0       ?exportExtraData@NpParticleSystem@physx@@UEAAXAEAVPxSerializationContext@2@@Z 00000001800317f0 f i NpParticleSystem.obj
 0001:00030800       ?getActorFlags@?$NpActorTemplate@VPxParticleSystem@physx@@@physx@@UEBA?AV?$PxFlags@W4Enum@PxActorFlag@physx@@E@2@XZ 0000000180031800 f i NpParticleSystem.obj
 0001:000308a0       ?getAggregate@?$NpActorTemplate@VPxParticleSystem@physx@@@physx@@UEBAPEAVPxAggregate@2@XZ 00000001800318a0 f i NpParticleSystem.obj
 0001:000308b0       ?getClientBehaviorFlags@?$NpActorTemplate@VPxParticleSystem@physx@@@physx@@UEBA?AV?$PxFlags@W4Enum@PxActorClientBehaviorFlag@physx@@E@2@XZ 00000001800318b0 f i NpParticleSystem.obj
 0001:00030950       ?getConcreteTypeName@PxParticleSystem@physx@@UEBAPEBDXZ 0000000180031950 f i NpParticleSystem.obj
 0001:00030960       ?getContactOffset@?$NpParticleBaseTemplate@VPxParticleSystem@physx@@VNpParticleSystem@2@@physx@@UEBAMXZ 0000000180031960 f i NpParticleSystem.obj
 0001:000309c0       ?getDamping@?$NpParticleBaseTemplate@VPxParticleSystem@physx@@VNpParticleSystem@2@@physx@@UEBAMXZ 00000001800319c0 f i NpParticleSystem.obj
 0001:00030a40       ?getDominanceGroup@?$NpActorTemplate@VPxParticleSystem@physx@@@physx@@UEBAEXZ 0000000180031a40 f i NpParticleSystem.obj
 0001:00030af0       ?getDynamicFriction@?$NpParticleBaseTemplate@VPxParticleSystem@physx@@VNpParticleSystem@2@@physx@@UEBAMXZ 0000000180031af0 f i NpParticleSystem.obj
 0001:00030b70       ?getExternalAcceleration@?$NpParticleBaseTemplate@VPxParticleSystem@physx@@VNpParticleSystem@2@@physx@@UEBA?AVPxVec3@2@XZ 0000000180031b70 f i NpParticleSystem.obj
 0001:00030c00       ?getGridSize@?$NpParticleBaseTemplate@VPxParticleSystem@physx@@VNpParticleSystem@2@@physx@@UEBAMXZ 0000000180031c00 f i NpParticleSystem.obj
 0001:00030c60       ?getMaxMotionDistance@?$NpParticleBaseTemplate@VPxParticleSystem@physx@@VNpParticleSystem@2@@physx@@UEBAMXZ 0000000180031c60 f i NpParticleSystem.obj
 0001:00030cc0       ?getMaxParticles@?$NpParticleBaseTemplate@VPxParticleSystem@physx@@VNpParticleSystem@2@@physx@@UEBAIXZ 0000000180031cc0 f i NpParticleSystem.obj
 0001:00030d10       ?getName@?$NpActorTemplate@VPxParticleSystem@physx@@@physx@@UEBAPEBDXZ 0000000180031d10 f i NpParticleSystem.obj
 0001:00030d60       ?getOwnerClient@?$NpActorTemplate@VPxParticleSystem@physx@@@physx@@UEBAEXZ 0000000180031d60 f i NpParticleSystem.obj
 0001:00030da0       ?getParticleBaseFlags@?$NpParticleBaseTemplate@VPxParticleSystem@physx@@VNpParticleSystem@2@@physx@@UEBA?AV?$PxFlags@W4Enum@PxParticleBaseFlag@physx@@G@2@XZ 0000000180031da0 f i NpParticleSystem.obj
 0001:00030e30       ?getParticleMass@?$NpParticleBaseTemplate@VPxParticleSystem@physx@@VNpParticleSystem@2@@physx@@UEBAMXZ 0000000180031e30 f i NpParticleSystem.obj
 0001:00030eb0       ?getParticleReadDataFlags@?$NpParticleBaseTemplate@VPxParticleSystem@physx@@VNpParticleSystem@2@@physx@@UEBA?AV?$PxFlags@W4Enum@PxParticleReadDataFlag@physx@@G@2@XZ 0000000180031eb0 f i NpParticleSystem.obj
 0001:00030f10       ?getProjectionPlane@?$NpParticleBaseTemplate@VPxParticleSystem@physx@@VNpParticleSystem@2@@physx@@UEBAXAEAVPxVec3@2@AEAM@Z 0000000180031f10 f i NpParticleSystem.obj
 0001:00030fc0       ?getRestOffset@?$NpParticleBaseTemplate@VPxParticleSystem@physx@@VNpParticleSystem@2@@physx@@UEBAMXZ 0000000180031fc0 f i NpParticleSystem.obj
 0001:00031020       ?getRestitution@?$NpParticleBaseTemplate@VPxParticleSystem@physx@@VNpParticleSystem@2@@physx@@UEBAMXZ 0000000180032020 f i NpParticleSystem.obj
 0001:000310a0       ?getScene@?$NpActorTemplate@VPxParticleSystem@physx@@@physx@@UEBAPEAVPxScene@2@XZ 00000001800320a0 f i NpParticleSystem.obj
 0001:000310b0       ?getSimulationFilterData@?$NpParticleBaseTemplate@VPxParticleSystem@physx@@VNpParticleSystem@2@@physx@@UEBA?AUPxFilterData@2@XZ 00000001800320b0 f i NpParticleSystem.obj
 0001:00031130       ?getStaticFriction@?$NpParticleBaseTemplate@VPxParticleSystem@physx@@VNpParticleSystem@2@@physx@@UEBAMXZ 0000000180032130 f i NpParticleSystem.obj
 0001:000311b0       ?getType@?$NpParticleBaseTemplate@VPxParticleSystem@physx@@VNpParticleSystem@2@@physx@@UEBA?AW4Enum@PxActorType@2@XZ 00000001800321b0 f i NpParticleSystem.obj
 0001:000311c0       ?getType@NpParticleSystem@physx@@UEBA?AW4Enum@PxActorType@2@XZ 00000001800321c0 f i NpParticleSystem.obj
 0001:000311d0       ?getWorldBounds@?$NpParticleBaseTemplate@VPxParticleSystem@physx@@VNpParticleSystem@2@@physx@@UEBA?AVPxBounds3@2@M@Z 00000001800321d0 f i NpParticleSystem.obj
 0001:000313d0       ?isKindOf@PxParticleSystem@physx@@MEBA_NPEBD@Z 00000001800323d0 f i NpParticleSystem.obj
 0001:00031430       ?lockParticleReadData@?$NpParticleBaseTemplate@VPxParticleSystem@physx@@VNpParticleSystem@2@@physx@@UEAAPEAVPxParticleReadData@2@V?$PxFlags@W4Enum@PxDataAccessFlag@physx@@E@2@@Z 0000000180032430 f i NpParticleSystem.obj
 0001:000314a0       ?lockParticleReadData@?$NpParticleBaseTemplate@VPxParticleSystem@physx@@VNpParticleSystem@2@@physx@@UEAAPEAVPxParticleReadData@2@XZ 00000001800324a0 f i NpParticleSystem.obj
 0001:00031500       ?release@?$NpActorTemplate@VPxParticleSystem@physx@@@physx@@UEAAXXZ 0000000180032500 f i NpParticleSystem.obj
 0001:00031510       ?release@?$NpParticleBaseTemplate@VPxParticleSystem@physx@@VNpParticleSystem@2@@physx@@UEAAXXZ 0000000180032510 f i NpParticleSystem.obj
 0001:000315f0       ?releaseParticles@?$NpParticleBaseTemplate@VPxParticleSystem@physx@@VNpParticleSystem@2@@physx@@UEAAXIAEBV?$PxStrideIterator@$$CBI@2@@Z 00000001800325f0 f i NpParticleSystem.obj
 0001:00031750       ?releaseParticles@?$NpParticleBaseTemplate@VPxParticleSystem@physx@@VNpParticleSystem@2@@physx@@UEAAXXZ 0000000180032750 f i NpParticleSystem.obj
 0001:000317a0       ?requires@NpParticleSystem@physx@@UEAAXAEAVPxProcessPxBaseCallback@2@@Z 00000001800327a0 f i NpParticleSystem.obj
 0001:000317b0       ?resetFiltering@?$NpParticleBaseTemplate@VPxParticleSystem@physx@@VNpParticleSystem@2@@physx@@UEAAXXZ 00000001800327b0 f i NpParticleSystem.obj
 0001:00031830       ?resolveReferences@?$NpActorTemplate@VPxParticleSystem@physx@@@physx@@UEAAXAEAVPxDeserializationContext@2@@Z 0000000180032830 f i NpParticleSystem.obj
 0001:00031840       ?setActorFlag@?$NpActorTemplate@VPxParticleSystem@physx@@@physx@@UEAAXW4Enum@PxActorFlag@2@_N@Z 0000000180032840 f i NpParticleSystem.obj
 0001:00031950       ?setActorFlags@?$NpActorTemplate@VPxParticleSystem@physx@@@physx@@UEAAXV?$PxFlags@W4Enum@PxActorFlag@physx@@E@2@@Z 0000000180032950 f i NpParticleSystem.obj
 0001:000319d0       ?setClientBehaviorFlags@?$NpActorTemplate@VPxParticleSystem@physx@@@physx@@UEAAXV?$PxFlags@W4Enum@PxActorClientBehaviorFlag@physx@@E@2@@Z 00000001800329d0 f i NpParticleSystem.obj
 0001:00031ae0       ?setContactOffset@?$NpParticleBaseTemplate@VPxParticleSystem@physx@@VNpParticleSystem@2@@physx@@UEAAXM@Z 0000000180032ae0 f i NpParticleSystem.obj
 0001:00031c60       ?setDamping@?$NpParticleBaseTemplate@VPxParticleSystem@physx@@VNpParticleSystem@2@@physx@@UEAAXM@Z 0000000180032c60 f i NpParticleSystem.obj
 0001:00031db0       ?setDominanceGroup@?$NpActorTemplate@VPxParticleSystem@physx@@@physx@@UEAAXE@Z 0000000180032db0 f i NpParticleSystem.obj
 0001:00031ed0       ?setDynamicFriction@?$NpParticleBaseTemplate@VPxParticleSystem@physx@@VNpParticleSystem@2@@physx@@UEAAXM@Z 0000000180032ed0 f i NpParticleSystem.obj
 0001:00032030       ?setExternalAcceleration@?$NpParticleBaseTemplate@VPxParticleSystem@physx@@VNpParticleSystem@2@@physx@@UEAAXAEBVPxVec3@2@@Z 0000000180033030 f i NpParticleSystem.obj
 0001:00032150       ?setGridSize@?$NpParticleBaseTemplate@VPxParticleSystem@physx@@VNpParticleSystem@2@@physx@@UEAAXM@Z 0000000180033150 f i NpParticleSystem.obj
 0001:000322d0       ?setMaxMotionDistance@?$NpParticleBaseTemplate@VPxParticleSystem@physx@@VNpParticleSystem@2@@physx@@UEAAXM@Z 00000001800332d0 f i NpParticleSystem.obj
 0001:00032450       ?setName@?$NpActorTemplate@VPxParticleSystem@physx@@@physx@@UEAAXPEBD@Z 0000000180033450 f i NpParticleSystem.obj
 0001:000324f0       ?setOwnerClient@?$NpActorTemplate@VPxParticleSystem@physx@@@physx@@UEAAXE@Z 00000001800334f0 f i NpParticleSystem.obj
 0001:00032630       ?setParticleBaseFlag@?$NpParticleBaseTemplate@VPxParticleSystem@physx@@VNpParticleSystem@2@@physx@@UEAAXW4Enum@PxParticleBaseFlag@2@_N@Z 0000000180033630 f i NpParticleSystem.obj
 0001:000327f0       ?setParticleMass@?$NpParticleBaseTemplate@VPxParticleSystem@physx@@VNpParticleSystem@2@@physx@@UEAAXM@Z 00000001800337f0 f i NpParticleSystem.obj
 0001:00032940       ?setParticleReadDataFlag@?$NpParticleBaseTemplate@VPxParticleSystem@physx@@VNpParticleSystem@2@@physx@@UEAAXW4Enum@PxParticleReadDataFlag@2@_N@Z 0000000180033940 f i NpParticleSystem.obj
 0001:00032b50       ?setPositions@?$NpParticleBaseTemplate@VPxParticleSystem@physx@@VNpParticleSystem@2@@physx@@UEAAXIAEBV?$PxStrideIterator@$$CBI@2@AEBV?$PxStrideIterator@$$CBVPxVec3@physx@@@2@@Z 0000000180033b50 f i NpParticleSystem.obj
 0001:00032cf0       ?setProjectionPlane@?$NpParticleBaseTemplate@VPxParticleSystem@physx@@VNpParticleSystem@2@@physx@@UEAAXAEBVPxVec3@2@M@Z 0000000180033cf0 f i NpParticleSystem.obj
 0001:00032ec0       ?setRestOffset@?$NpParticleBaseTemplate@VPxParticleSystem@physx@@VNpParticleSystem@2@@physx@@UEAAXM@Z 0000000180033ec0 f i NpParticleSystem.obj
 0001:000330e0       ?setRestOffsets@?$NpParticleBaseTemplate@VPxParticleSystem@physx@@VNpParticleSystem@2@@physx@@UEAAXIAEBV?$PxStrideIterator@$$CBI@2@AEBV?$PxStrideIterator@$$CBM@2@@Z 00000001800340e0 f i NpParticleSystem.obj
 0001:00033330       ?setRestitution@?$NpParticleBaseTemplate@VPxParticleSystem@physx@@VNpParticleSystem@2@@physx@@UEAAXM@Z 0000000180034330 f i NpParticleSystem.obj
 0001:00033490       ?setSimulationFilterData@?$NpParticleBaseTemplate@VPxParticleSystem@physx@@VNpParticleSystem@2@@physx@@UEAAXAEBUPxFilterData@2@@Z 0000000180034490 f i NpParticleSystem.obj
 0001:000335a0       ?setStaticFriction@?$NpParticleBaseTemplate@VPxParticleSystem@physx@@VNpParticleSystem@2@@physx@@UEAAXM@Z 00000001800345a0 f i NpParticleSystem.obj
 0001:000336f0       ?setVelocities@?$NpParticleBaseTemplate@VPxParticleSystem@physx@@VNpParticleSystem@2@@physx@@UEAAXIAEBV?$PxStrideIterator@$$CBI@2@AEBV?$PxStrideIterator@$$CBVPxVec3@physx@@@2@@Z 00000001800346f0 f i NpParticleSystem.obj
 0001:00033890       ??0Offsets@Actor@Scb@physx@@QEAA@XZ 0000000180034890 f   ScbActor.obj
 0001:00033910       ?addActor@Aggregate@Scb@physx@@QEAAXAEAVActor@23@@Z 0000000180034910 f   ScbAggregate.obj
 0001:00033ae0       ?removeActor@Aggregate@Scb@physx@@QEAAXAEAVActor@23@_N@Z 0000000180034ae0 f   ScbAggregate.obj
 0001:00033e00       ??$allocArrayBuffer@PEAVActor@Scb@physx@@@Scene@Scb@physx@@AEAAPEAPEAVActor@12@AEAV?$Array@PEAVActor@Scb@physx@@VNamedAllocator@shdfnd@3@@shdfnd@2@IAEAI@Z 0000000180034e00 f i ScbAggregate.obj
 0001:00033e60       ?recreate@?$Array@PEAVActor@Scb@physx@@VNamedAllocator@shdfnd@3@@shdfnd@physx@@IEAAXI@Z 0000000180034e60 f i ScbAggregate.obj
 0001:00033f70       ?resize@?$Array@PEAVActor@Scb@physx@@VNamedAllocator@shdfnd@3@@shdfnd@physx@@QEAAXIAEBQEAVActor@Scb@3@@Z 0000000180034f70 f i ScbAggregate.obj
 0001:00034080       ?destroy@Base@Scb@physx@@QEAAXXZ 0000000180035080 f   ScbBase.obj
 0001:000340c0       ??0Cloth@Scb@physx@@QEAA@AEBVPxTransform@2@AEAVClothFabricCore@Sc@2@PEBUPxClothParticle@2@V?$PxFlags@W4Enum@PxClothFlag@physx@@G@2@@Z 00000001800350c0 f   ScbCloth.obj
 0001:00034120       ??1Cloth@Scb@physx@@QEAA@XZ 0000000180035120 f   ScbCloth.obj
 0001:00034130       ?syncState@Cloth@Scb@physx@@QEAAXXZ 0000000180035130 f   ScbCloth.obj
 0001:00034240       ?getBinaryMetaData@Base@Scb@physx@@SAXAEAVPxOutputStream@3@@Z 0000000180035240 f   ScbMetaData.obj
 0001:000343a0       ?getBinaryMetaData@Shape@Scb@physx@@SAXAEAVPxOutputStream@3@@Z 00000001800353a0 f   ScbMetaData.obj
 0001:00034480       ?getBinaryMetaData@Actor@Scb@physx@@SAXAEAVPxOutputStream@3@@Z 0000000180035480 f   ScbMetaData.obj
 0001:00034520       ?getBinaryMetaData@RigidObject@Scb@physx@@SAXAEAVPxOutputStream@3@@Z 0000000180035520 f   ScbMetaData.obj
 0001:000345c0       ?getBinaryMetaData@Body@Scb@physx@@SAXAEAVPxOutputStream@3@@Z 00000001800355c0 f   ScbMetaData.obj
 0001:00034810       ?getBinaryMetaData@RigidStatic@Scb@physx@@SAXAEAVPxOutputStream@3@@Z 0000000180035810 f   ScbMetaData.obj
 0001:000348f0       ?getBinaryMetaData@Constraint@Scb@physx@@SAXAEAVPxOutputStream@3@@Z 00000001800358f0 f   ScbMetaData.obj
 0001:00034a90       ?getBinaryMetaData@Articulation@Scb@physx@@SAXAEAVPxOutputStream@3@@Z 0000000180035a90 f   ScbMetaData.obj
 0001:00034bf0       ?getBinaryMetaData@ArticulationJoint@Scb@physx@@SAXAEAVPxOutputStream@3@@Z 0000000180035bf0 f   ScbMetaData.obj
 0001:00034cd0       ?getBinaryMetaData@Aggregate@Scb@physx@@SAXAEAVPxOutputStream@3@@Z 0000000180035cd0 f   ScbMetaData.obj
 0001:00034e70       ?getBinaryMetaData@Cloth@Scb@physx@@SAXAEAVPxOutputStream@3@@Z 0000000180035e70 f   ScbMetaData.obj
 0001:00034f50       ?getBinaryMetaData@ParticleSystem@Scb@physx@@SAXAEAVPxOutputStream@3@@Z 0000000180035f50 f   ScbMetaData.obj
 0001:000355e0       ?initialize@ForceUpdates@ParticleSystem@Scb@physx@@QEAAXI@Z 00000001800365e0 f   ScbParticleSystem.obj
 0001:00035770       ?destroy@ForceUpdates@ParticleSystem@Scb@physx@@QEAAXXZ 0000000180036770 f   ScbParticleSystem.obj
 0001:00035810       ??0ParticleSystem@Scb@physx@@QEAA@AEBW4Enum@PxActorType@2@I_N@Z 0000000180036810 f   ScbParticleSystem.obj
 0001:00035890       ??1ParticleSystem@Scb@physx@@QEAA@XZ 0000000180036890 f   ScbParticleSystem.obj
 0001:000358d0       ?createParticles@ParticleSystem@Scb@physx@@QEAA_NAEBVPxParticleCreationData@3@@Z 00000001800368d0 f   ScbParticleSystem.obj
 0001:00035a10       ?releaseParticles@ParticleSystem@Scb@physx@@QEAAXIAEBV?$PxStrideIterator@$$CBI@3@@Z 0000000180036a10 f   ScbParticleSystem.obj
 0001:00035c00       ?releaseParticles@ParticleSystem@Scb@physx@@QEAAXXZ 0000000180036c00 f   ScbParticleSystem.obj
 0001:00035d70       ?setPositions@ParticleSystem@Scb@physx@@QEAAXIAEBV?$PxStrideIterator@$$CBI@3@AEBV?$PxStrideIterator@$$CBVPxVec3@physx@@@3@@Z 0000000180036d70 f   ScbParticleSystem.obj
 0001:00035ec0       ?setVelocities@ParticleSystem@Scb@physx@@QEAAXIAEBV?$PxStrideIterator@$$CBI@3@AEBV?$PxStrideIterator@$$CBVPxVec3@physx@@@3@@Z 0000000180036ec0 f   ScbParticleSystem.obj
 0001:00036010       ?setRestOffsets@ParticleSystem@Scb@physx@@QEAAXIAEBV?$PxStrideIterator@$$CBI@3@AEBV?$PxStrideIterator@$$CBM@3@@Z 0000000180037010 f   ScbParticleSystem.obj
 0001:00036160       ?addForces@ParticleSystem@Scb@physx@@QEAAXIAEBV?$PxStrideIterator@$$CBI@3@AEBV?$PxStrideIterator@$$CBVPxVec3@physx@@@3@W4Enum@PxForceMode@3@@Z 0000000180037160 f   ScbParticleSystem.obj
 0001:000365e0       ?submitForceUpdates@ParticleSystem@Scb@physx@@QEAAXM@Z 00000001800375e0 f   ScbParticleSystem.obj
 0001:00036750       ?syncState@ParticleSystem@Scb@physx@@QEAAXXZ 0000000180037750 f   ScbParticleSystem.obj
 0001:00036ee0       ?scheduleForInsert@ObjectTracker@Scb@physx@@QEAAXAEAVBase@23@@Z 0000000180037ee0 f   ScbScene.obj
 0001:00036f60       ?scheduleForRemove@ObjectTracker@Scb@physx@@QEAAXAEAVBase@23@@Z 0000000180037f60 f   ScbScene.obj
 0001:00036fe0       ?scheduleForUpdate@ObjectTracker@Scb@physx@@QEAAXAEAVBase@23@@Z 0000000180037fe0 f   ScbScene.obj
 0001:00037040       ?clear@ObjectTracker@Scb@physx@@QEAAXXZ 0000000180038040 f   ScbScene.obj
 0001:00037160       ?insert@ObjectTracker@Scb@physx@@QEAAXAEAVBase@23@@Z 0000000180038160 f   ScbScene.obj
 0001:000371a0       ?remove@ObjectTracker@Scb@physx@@QEAAXAEAVBase@23@@Z 00000001800381a0 f   ScbScene.obj
 0001:000371c0       ??0Scene@Scb@physx@@QEAA@AEBVPxSceneDesc@2@_K@Z 00000001800381c0 f   ScbScene.obj
 0001:00037760       ?release@Scene@Scb@physx@@QEAAXXZ 0000000180038760 f   ScbScene.obj
 0001:000377d0       ?getPxScene@Scene@Scb@physx@@QEAAPEAVPxScene@3@XZ 00000001800387d0 f   ScbScene.obj
 0001:000377e0       ?addActor@Scene@Scb@physx@@QEAAXAEAVRigidStatic@23@_NPEAVPxBounds3@3@@Z 00000001800387e0 f   ScbScene.obj
 0001:000379d0       ?removeActor@Scene@Scb@physx@@QEAAXAEAVRigidStatic@23@_N1@Z 00000001800389d0 f   ScbScene.obj
 0001:00037c00       ?addActor@Scene@Scb@physx@@QEAAXAEAVBody@23@_NPEAVPxBounds3@3@@Z 0000000180038c00 f   ScbScene.obj
 0001:00037e90       ?removeActor@Scene@Scb@physx@@QEAAXAEAVBody@23@_N1@Z 0000000180038e90 f   ScbScene.obj
 0001:000381c0       ?addConstraint@Scene@Scb@physx@@QEAAXAEAVConstraint@23@@Z 00000001800391c0 f   ScbScene.obj
 0001:000382b0       ?removeConstraint@Scene@Scb@physx@@QEAAXAEAVConstraint@23@@Z 00000001800392b0 f   ScbScene.obj
 0001:000383f0       ?addArticulation@Scene@Scb@physx@@QEAAXAEAVArticulation@23@@Z 00000001800393f0 f   ScbScene.obj
 0001:000384b0       ?removeArticulation@Scene@Scb@physx@@QEAAXAEAVArticulation@23@@Z 00000001800394b0 f   ScbScene.obj
 0001:00038560       ?addArticulationJoint@Scene@Scb@physx@@QEAAXAEAVArticulationJoint@23@@Z 0000000180039560 f   ScbScene.obj
 0001:00038630       ?removeArticulationJoint@Scene@Scb@physx@@QEAAXAEAVArticulationJoint@23@@Z 0000000180039630 f   ScbScene.obj
 0001:000386d0       ?addAggregate@Scene@Scb@physx@@QEAAXAEAVAggregate@23@@Z 00000001800396d0 f   ScbScene.obj
 0001:00038740       ?removeAggregate@Scene@Scb@physx@@QEAAXAEAVAggregate@23@@Z 0000000180039740 f   ScbScene.obj
 0001:000387b0       ?addParticleSystem@Scene@Scb@physx@@QEAAXAEAVParticleSystem@23@@Z 00000001800397b0 f   ScbScene.obj
 0001:000388e0       ?removeParticleSystem@Scene@Scb@physx@@QEAAXAEAVParticleSystem@23@_N@Z 00000001800398e0 f   ScbScene.obj
 0001:00038a30       ?addCloth@Scene@Scb@physx@@QEAAXAEAVCloth@23@@Z 0000000180039a30 f   ScbScene.obj
 0001:00038b90       ?removeCloth@Scene@Scb@physx@@QEAAXAEAVCloth@23@@Z 0000000180039b90 f   ScbScene.obj
 0001:00038cc0       ?addMaterial@Scene@Scb@physx@@QEAAXAEBVMaterialCore@Sc@3@@Z 0000000180039cc0 f   ScbScene.obj
 0001:00038e10       ?updateMaterial@Scene@Scb@physx@@QEAAXAEBVMaterialCore@Sc@3@@Z 0000000180039e10 f   ScbScene.obj
 0001:00038f60       ?removeMaterial@Scene@Scb@physx@@QEAAXAEBVMaterialCore@Sc@3@@Z 0000000180039f60 f   ScbScene.obj
 0001:000390c0       ?updateLowLevelMaterial@Scene@Scb@physx@@QEAAXPEAPEAVNpMaterial@3@@Z 000000018003a0c0 f   ScbScene.obj
 0001:00039250       ?getBroadPhaseType@Scene@Scb@physx@@QEBA?AW4Enum@PxBroadPhaseType@3@XZ 000000018003a250 f   ScbScene.obj
 0001:00039260       ?getBroadPhaseCaps@Scene@Scb@physx@@QEBA_NAEAUPxBroadPhaseCaps@3@@Z 000000018003a260 f   ScbScene.obj
 0001:00039270       ?getNbBroadPhaseRegions@Scene@Scb@physx@@QEBAIXZ 000000018003a270 f   ScbScene.obj
 0001:00039280       ?getBroadPhaseRegions@Scene@Scb@physx@@QEBAIPEAUPxBroadPhaseRegionInfo@3@II@Z 000000018003a280 f   ScbScene.obj
 0001:00039290       ?addBroadPhaseRegion@Scene@Scb@physx@@QEAAIAEBUPxBroadPhaseRegion@3@_N@Z 000000018003a290 f   ScbScene.obj
 0001:000392f0       ?removeBroadPhaseRegion@Scene@Scb@physx@@QEAA_NI@Z 000000018003a2f0 f   ScbScene.obj
 0001:00039340       ?shiftOrigin@Scene@Scb@physx@@QEAAXAEBVPxVec3@3@@Z 000000018003a340 f   ScbScene.obj
 0001:00039460       ?syncWriteThroughProperties@Scene@Scb@physx@@QEAAXXZ 000000018003a460 f   ScbScene.obj
 0001:00039750       ?syncEntireScene@Scene@Scb@physx@@QEAAXXZ 000000018003a750 f   ScbScene.obj
 0001:00039fe0       ?processPendingRemove@Scene@Scb@physx@@QEAAXXZ 000000018003afe0 f   ScbScene.obj
 0001:0003a770       ?scheduleForUpdate@Scene@Scb@physx@@QEAAXAEAVBase@23@@Z 000000018003b770 f   ScbScene.obj
 0001:0003a840       ?getStream@Scene@Scb@physx@@QEAAPEAEW4Enum@ScbType@3@@Z 000000018003b840 f   ScbScene.obj
 0001:0003aa30       ?syncState@Scene@Scb@physx@@AEAAXXZ 000000018003ba30 f   ScbScene.obj
 0001:0003ace0       ?preSimulateUpdateAppThread@Scene@Scb@physx@@QEAAXM@Z 000000018003bce0 f   ScbScene.obj
 0001:0003ad60       ?switchRigidToNoSim@Scene@Scb@physx@@QEAAXAEAVRigidObject@23@_N@Z 000000018003bd60 f   ScbScene.obj
 0001:0003ae80       ?switchRigidFromNoSim@Scene@Scb@physx@@QEAAXAEAVRigidObject@23@_N@Z 000000018003be80 f   ScbScene.obj
 0001:0003bfa0       ??$add@VArticulation@Scb@physx@@@Scene@Scb@physx@@AEAAXAEAVArticulation@12@AEAVObjectTracker@12@PEAVPxBounds3@2@@Z 000000018003cfa0 f i ScbScene.obj
 0001:0003c070       ??$add@VArticulationJoint@Scb@physx@@@Scene@Scb@physx@@AEAAXAEAVArticulationJoint@12@AEAVObjectTracker@12@PEAVPxBounds3@2@@Z 000000018003d070 f i ScbScene.obj
 0001:0003c160       ??$add@VBody@Scb@physx@@@Scene@Scb@physx@@AEAAXAEAVBody@12@AEAVObjectTracker@12@PEAVPxBounds3@2@@Z 000000018003d160 f i ScbScene.obj
 0001:0003c520       ??$add@VConstraint@Scb@physx@@@Scene@Scb@physx@@AEAAXAEAVConstraint@12@AEAVObjectTracker@12@PEAVPxBounds3@2@@Z 000000018003d520 f i ScbScene.obj
 0001:0003c640       ??$add@VParticleSystem@Scb@physx@@@Scene@Scb@physx@@AEAAXAEAVParticleSystem@12@AEAVObjectTracker@12@PEAVPxBounds3@2@@Z 000000018003d640 f i ScbScene.obj
 0001:0003c7a0       ??$add@VRigidStatic@Scb@physx@@@Scene@Scb@physx@@AEAAXAEAVRigidStatic@12@AEAVObjectTracker@12@PEAVPxBounds3@2@@Z 000000018003d7a0 f i ScbScene.obj
 0001:0003cb60       ??$addRigidNoSim@$00VBody@Scb@physx@@@Scene@Scb@physx@@AEAAXAEAVBody@12@AEAVObjectTracker@12@@Z 000000018003db60 f i ScbScene.obj
 0001:0003ce60       ??$addRigidNoSim@$0A@VRigidStatic@Scb@physx@@@Scene@Scb@physx@@AEAAXAEAVRigidStatic@12@AEAVObjectTracker@12@@Z 000000018003de60 f i ScbScene.obj
 0001:0003d160       ??$pointerOffset@PEAVShape@Scb@physx@@@shdfnd@physx@@YAPEAVShape@Scb@1@PEAX_J@Z 000000018003e160 f i ScbScene.obj
 0001:0003d170       ??$processRemoves@VArticulation@Scb@physx@@$00$0A@@Scene@Scb@physx@@AEAAXAEAVObjectTracker@12@@Z 000000018003e170 f i ScbScene.obj
 0001:0003d320       ??$processRemoves@VArticulationJoint@Scb@physx@@$0A@$0A@@Scene@Scb@physx@@AEAAXAEAVObjectTracker@12@@Z 000000018003e320 f i ScbScene.obj
 0001:0003d4b0       ??$processRemoves@VBody@Scb@physx@@$00$00@Scene@Scb@physx@@AEAAXAEAVObjectTracker@12@@Z 000000018003e4b0 f i ScbScene.obj
 0001:0003da10       ??$processRemoves@VCloth@Scb@physx@@$0A@$0A@@Scene@Scb@physx@@AEAAXAEAVObjectTracker@12@@Z 000000018003ea10 f i ScbScene.obj
 0001:0003dba0       ??$processRemoves@VConstraint@Scb@physx@@$00$0A@@Scene@Scb@physx@@AEAAXAEAVObjectTracker@12@@Z 000000018003eba0 f i ScbScene.obj
 0001:0003dd40       ??$processRemoves@VParticleSystem@Scb@physx@@$0A@$0A@@Scene@Scb@physx@@AEAAXAEAVObjectTracker@12@@Z 000000018003ed40 f i ScbScene.obj
 0001:0003dee0       ??$processRemoves@VRigidStatic@Scb@physx@@$0A@$00@Scene@Scb@physx@@AEAAXAEAVObjectTracker@12@@Z 000000018003eee0 f i ScbScene.obj
 0001:0003e420       ??$processShapeRemoves@VBody@Scb@physx@@@Scene@Scb@physx@@AEAAXAEAVObjectTracker@12@@Z 000000018003f420 f i ScbScene.obj
 0001:0003e6c0       ??$processShapeRemoves@VRigidStatic@Scb@physx@@@Scene@Scb@physx@@AEAAXAEAVObjectTracker@12@@Z 000000018003f6c0 f i ScbScene.obj
 0001:0003e960       ??$processSimUpdates@VArticulation@Scb@physx@@VArticulationCore@Sc@3@@Scene@Scb@physx@@AEAAXPEBQEAVArticulationCore@Sc@2@I@Z 000000018003f960 f i ScbScene.obj
 0001:0003ec70       ??$processSimUpdates@VBody@Scb@physx@@VBodyCore@Sc@3@@Scene@Scb@physx@@AEAAXPEBQEAVBodyCore@Sc@2@I@Z 000000018003fc70 f i ScbScene.obj
 0001:0003ee30       ??$processSimUpdates@VConstraint@Scb@physx@@VConstraintCore@Sc@3@@Scene@Scb@physx@@AEAAXPEBQEAVConstraintCore@Sc@2@I@Z 000000018003fe30 f i ScbScene.obj
 0001:0003f0d0       ??$processUserUpdates@VArticulation@Scb@physx@@@Scene@Scb@physx@@AEAAXAEAVObjectTracker@12@@Z 00000001800400d0 f i ScbScene.obj
 0001:0003f460       ??$processUserUpdates@VArticulationJoint@Scb@physx@@@Scene@Scb@physx@@AEAAXAEAVObjectTracker@12@@Z 0000000180040460 f i ScbScene.obj
 0001:0003f720       ??$processUserUpdates@VBody@Scb@physx@@@Scene@Scb@physx@@AEAAXAEAVObjectTracker@12@@Z 0000000180040720 f i ScbScene.obj
 0001:0003fbf0       ??$processUserUpdates@VConstraint@Scb@physx@@@Scene@Scb@physx@@AEAAXAEAVObjectTracker@12@@Z 0000000180040bf0 f i ScbScene.obj
 0001:0003ff70       ??$processUserUpdates@VRigidStatic@Scb@physx@@@Scene@Scb@physx@@AEAAXAEAVObjectTracker@12@@Z 0000000180040f70 f i ScbScene.obj
 0001:000405b0       ??$remove@VArticulation@Scb@physx@@@Scene@Scb@physx@@AEAAXAEAVArticulation@12@AEAVObjectTracker@12@_N@Z 00000001800415b0 f i ScbScene.obj
 0001:00040670       ??$remove@VArticulationJoint@Scb@physx@@@Scene@Scb@physx@@AEAAXAEAVArticulationJoint@12@AEAVObjectTracker@12@_N@Z 0000000180041670 f i ScbScene.obj
 0001:00040720       ??$remove@VBody@Scb@physx@@@Scene@Scb@physx@@AEAAXAEAVBody@12@AEAVObjectTracker@12@_N@Z 0000000180041720 f i ScbScene.obj
 0001:00040b30       ??$remove@VRigidStatic@Scb@physx@@@Scene@Scb@physx@@AEAAXAEAVRigidStatic@12@AEAVObjectTracker@12@_N@Z 0000000180041b30 f i ScbScene.obj
 0001:00040f40       ??$removeRigidNoSim@$00VBody@Scb@physx@@@Scene@Scb@physx@@AEAAXAEAVBody@12@AEAVObjectTracker@12@@Z 0000000180041f40 f i ScbScene.obj
 0001:000412d0       ??$removeRigidNoSim@$0A@VRigidStatic@Scb@physx@@@Scene@Scb@physx@@AEAAXAEAVRigidStatic@12@AEAVObjectTracker@12@@Z 00000001800422d0 f i ScbScene.obj
 0001:00041660       ??$sort@PEAXU?$Less@PEAX@shdfnd@physx@@VNamedAllocator@23@@shdfnd@physx@@YAXPEAPEAXIAEBU?$Less@PEAX@01@AEBVNamedAllocator@01@I@Z 0000000180042660 f i ScbScene.obj
 0001:00041ad0       ??0?$InlineArray@PEBVShapeCore@Sc@physx@@$0EA@VNamedAllocator@shdfnd@3@@shdfnd@physx@@QEAA@AEBVNamedAllocator@12@@Z 0000000180042ad0 f i ScbScene.obj
 0001:00041bf0       ??0BodyBuffer@Scb@physx@@QEAA@XZ 0000000180042bf0 f i ScbScene.obj
 0001:00041c60       ??0PxTransform@physx@@QEAA@XZ 0000000180042c60 f i ScbScene.obj
 0001:00041c70       ??0RigidObjectBuffer@Scb@physx@@QEAA@XZ 0000000180042c70 f i ScbScene.obj
 0001:00041f20       ??1?$Array@PEAVInteraction@Sc@physx@@VNamedAllocator@shdfnd@3@@shdfnd@physx@@QEAA@XZ 0000000180042f20 f i ScbScene.obj
 0001:00041f60       ??1PxBaseTask@physx@@UEAA@XZ 0000000180042f60 f i ScbScene.obj
 0001:00041f70       ??1PxLightCpuTask@physx@@UEAA@XZ 0000000180042f70 f i ScbScene.obj
 0001:00041f90       ??DPxQuat@physx@@QEBA?AV01@AEBV01@@Z 0000000180042f90 f i ScbScene.obj
 0001:00042110       ??_GPxBaseTask@physx@@UEAAPEAXI@Z 0000000180043110 f i ScbScene.obj
 0001:00042110       ??_EPxBaseTask@physx@@UEAAPEAXI@Z 0000000180043110 f i ScbScene.obj
 0001:00042150       ?allocate@?$Array@PEAVShape@Scb@physx@@V?$InlineAllocator@$0CA@VNamedAllocator@shdfnd@physx@@@shdfnd@3@@shdfnd@physx@@IEAAPEAPEAVShape@Scb@3@I@Z 0000000180043150 f i ScbScene.obj
 0001:000421e0       ?allocate@?$Array@URemovedShape@Scb@physx@@V?$InlineAllocator@$0EA@VNamedAllocator@shdfnd@physx@@@shdfnd@3@@shdfnd@physx@@IEAAPEAURemovedShape@Scb@3@I@Z 00000001800431e0 f i ScbScene.obj
 0001:00042270       ?allocateNotThreadSafe@FlushPool@Cm@physx@@QEAAPEAXII@Z 0000000180043270 f i ScbScene.obj
 0001:000423d0       ?clearNotThreadSafe@FlushPool@Cm@physx@@QEAAXI@Z 00000001800433d0 f i ScbScene.obj
 0001:00042470       ?create@?$HashBase@PEAVBase@Scb@physx@@PEAV123@U?$Hash@PEAVBase@Scb@physx@@@shdfnd@3@UGetKey@?$HashSetBase@PEAVBase@Scb@physx@@U?$Hash@PEAVBase@Scb@physx@@@shdfnd@3@VNonTrackingAllocator@53@$00@internal@53@VNonTrackingAllocator@53@$00@internal@shdfnd@physx@@QEAAPEAPEAVBase@Scb@4@AEBQEAV564@AEA_N@Z 0000000180043470 f i ScbScene.obj
 0001:00042670       ?createInstance@?$PvdFns@VArticulation@Scb@physx@@@@SAXAEAVScene@Scb@physx@@AEAVScbScenePvdClient@Vd@4@PEAVArticulation@34@@Z 0000000180043670 f i ScbScene.obj
 0001:00042740       ?createInstance@?$PvdFns@VArticulationJoint@Scb@physx@@@@SAXAEAVScene@Scb@physx@@AEAVScbScenePvdClient@Vd@4@PEAVArticulationJoint@34@@Z 0000000180043740 f i ScbScene.obj
 0001:00042810       ?createInstance@?$PvdFns@VBody@Scb@physx@@@@SAXAEAVScene@Scb@physx@@AEAVScbScenePvdClient@Vd@4@PEAVBody@34@@Z 0000000180043810 f i ScbScene.obj
 0001:000428e0       ?createInstance@?$PvdFns@VConstraint@Scb@physx@@@@SAXAEAVScene@Scb@physx@@AEAVScbScenePvdClient@Vd@4@PEAVConstraint@34@@Z 00000001800438e0 f i ScbScene.obj
 0001:000429b0       ?createInstance@?$PvdFns@VRigidStatic@Scb@physx@@@@SAXAEAVScene@Scb@physx@@AEAVScbScenePvdClient@Vd@4@PEAVRigidStatic@34@@Z 00000001800439b0 f i ScbScene.obj
 0001:00042a80       ?erase@?$HashBase@PEAVBase@Scb@physx@@PEAV123@U?$Hash@PEAVBase@Scb@physx@@@shdfnd@3@UGetKey@?$HashSetBase@PEAVBase@Scb@physx@@U?$Hash@PEAVBase@Scb@physx@@@shdfnd@3@VNonTrackingAllocator@53@$00@internal@53@VNonTrackingAllocator@53@$00@internal@shdfnd@physx@@QEAA_NAEBQEAVBase@Scb@4@@Z 0000000180043a80 f i ScbScene.obj
 0001:00042c60       ?growAndPushBack@?$Array@PEAEVNamedAllocator@shdfnd@physx@@@shdfnd@physx@@IEAAAEAPEAEAEBQEAE@Z 0000000180043c60 f i ScbScene.obj
 0001:00042d90       ?growAndPushBack@?$Array@PEAXVNamedAllocator@shdfnd@physx@@@shdfnd@physx@@IEAAAEAPEAXAEBQEAX@Z 0000000180043d90 f i ScbScene.obj
 0001:00042ec0       ?growAndPushBack@?$Array@V?$PxFlags@W4Enum@PxClientBehaviorFlag@physx@@E@physx@@VNamedAllocator@shdfnd@2@@shdfnd@physx@@IEAAAEAV?$PxFlags@W4Enum@PxClientBehaviorFlag@physx@@E@3@AEBV43@@Z 0000000180043ec0 f i ScbScene.obj
 0001:00042fd0       ?growAndPushBack@?$Array@VMaterialEvent@Scb@physx@@VNamedAllocator@shdfnd@3@@shdfnd@physx@@IEAAAEAVMaterialEvent@Scb@3@AEBV453@@Z 0000000180043fd0 f i ScbScene.obj
 0001:00043100       ?putToSleepInternal@Body@Scb@physx@@QEAAXXZ 0000000180044100 f i ScbScene.obj
 0001:00043310       ?recreate@?$Array@PEAVShape@Scb@physx@@V?$InlineAllocator@$0CA@VNamedAllocator@shdfnd@physx@@@shdfnd@3@@shdfnd@physx@@IEAAXI@Z 0000000180044310 f i ScbScene.obj
 0001:000433e0       ?recreate@?$Array@URemovedShape@Scb@physx@@V?$InlineAllocator@$0EA@VNamedAllocator@shdfnd@physx@@@shdfnd@3@@shdfnd@physx@@IEAAXI@Z 00000001800443e0 f i ScbScene.obj
 0001:000434b0       ?recreate@?$Array@VMaterialEvent@Scb@physx@@VNamedAllocator@shdfnd@3@@shdfnd@physx@@IEAAXI@Z 00000001800444b0 f i ScbScene.obj
 0001:000435c0       ?releaseInstance@?$PvdFns@VArticulation@Scb@physx@@@@SAXAEAVScene@Scb@physx@@AEAVScbScenePvdClient@Vd@4@PEAVArticulation@34@@Z 00000001800445c0 f i ScbScene.obj
 0001:00043690       ?releaseInstance@?$PvdFns@VArticulationJoint@Scb@physx@@@@SAXAEAVScene@Scb@physx@@AEAVScbScenePvdClient@Vd@4@PEAVArticulationJoint@34@@Z 0000000180044690 f i ScbScene.obj
 0001:00043760       ?releaseInstance@?$PvdFns@VBody@Scb@physx@@@@SAXAEAVScene@Scb@physx@@AEAVScbScenePvdClient@Vd@4@PEAVBody@34@@Z 0000000180044760 f i ScbScene.obj
 0001:00043830       ?releaseInstance@?$PvdFns@VRigidStatic@Scb@physx@@@@SAXAEAVScene@Scb@physx@@AEAVScbScenePvdClient@Vd@4@PEAVRigidStatic@34@@Z 0000000180044830 f i ScbScene.obj
 0001:00043900       ?reserveInternal@?$HashBase@PEAVBase@Scb@physx@@PEAV123@U?$Hash@PEAVBase@Scb@physx@@@shdfnd@3@UGetKey@?$HashSetBase@PEAVBase@Scb@physx@@U?$Hash@PEAVBase@Scb@physx@@@shdfnd@3@VNonTrackingAllocator@53@$00@internal@53@VNonTrackingAllocator@53@$00@internal@shdfnd@physx@@AEAAXI@Z 0000000180044900 f i ScbScene.obj
 0001:00043b50       ?resize@?$Array@PEAVShape@Scb@physx@@V?$InlineAllocator@$0CA@VNamedAllocator@shdfnd@physx@@@shdfnd@3@@shdfnd@physx@@QEAAXIAEBQEAVShape@Scb@3@@Z 0000000180044b50 f i ScbScene.obj
 0001:00043c60       ?resize@?$Array@URemovedShape@Scb@physx@@V?$InlineAllocator@$0EA@VNamedAllocator@shdfnd@physx@@@shdfnd@3@@shdfnd@physx@@QEAAXIAEBURemovedShape@Scb@3@@Z 0000000180044c60 f i ScbScene.obj
 0001:00043cf0       ?resize@?$Array@VMaterialEvent@Scb@physx@@VNamedAllocator@shdfnd@3@@shdfnd@physx@@QEAAXIAEBVMaterialEvent@Scb@3@@Z 0000000180044cf0 f i ScbScene.obj
 0001:00043e00       ?resize@PxsMaterialManager@physx@@QEAAXI@Z 0000000180044e00 f i ScbScene.obj
 0001:00044170       ?syncCollisionWriteThroughState@Body@Scb@physx@@QEAAXXZ 0000000180045170 f i ScbScene.obj
 0001:000444c0       ?syncState@Aggregate@Scb@physx@@QEAAXAEAVScene@23@@Z 00000001800454c0 f i ScbScene.obj
 0001:00044730       ?syncState@Articulation@Scb@physx@@QEAAXXZ 0000000180045730 f i ScbScene.obj
 0001:000448f0       ?syncState@ArticulationJoint@Scb@physx@@QEAAXXZ 00000001800458f0 f i ScbScene.obj
 0001:00044b40       ?syncState@Body@Scb@physx@@QEAAXXZ 0000000180045b40 f i ScbScene.obj
 0001:00045480       ?syncState@Constraint@Scb@physx@@QEAAXXZ 0000000180046480 f i ScbScene.obj
 0001:000455e0       ?syncState@RigidObject@Scb@physx@@QEAAXXZ 00000001800465e0 f i ScbScene.obj
 0001:00045930       ?updateInstance@?$PvdFns@VArticulation@Scb@physx@@@@SAXAEAVScene@Scb@physx@@AEAVScbScenePvdClient@Vd@4@PEAVArticulation@34@@Z 0000000180046930 f i ScbScene.obj
 0001:00045a40       ?updateInstance@?$PvdFns@VBody@Scb@physx@@@@SAXAEAVScene@Scb@physx@@AEAVScbScenePvdClient@Vd@4@PEAVBody@34@@Z 0000000180046a40 f i ScbScene.obj
 0001:00045b50       ?updateInstance@?$PvdFns@VConstraint@Scb@physx@@@@SAXAEAVScene@Scb@physx@@AEAVScbScenePvdClient@Vd@4@PEAVConstraint@34@@Z 0000000180046b50 f i ScbScene.obj
 0001:00045c60       ??0ScbScenePvdClient@Vd@physx@@QEAA@AEAVScene@Scb@2@@Z 0000000180046c60 f   ScbScenePvdClient.obj
 0001:00045cd0       ??1ScbScenePvdClient@Vd@physx@@UEAA@XZ 0000000180046cd0 f   ScbScenePvdClient.obj
 0001:00045d50       ?setScenePvdFlag@ScbScenePvdClient@Vd@physx@@UEAAXW4Enum@PxPvdSceneFlag@3@_N@Z 0000000180046d50 f   ScbScenePvdClient.obj
 0001:00045d70       ?updateCamera@ScbScenePvdClient@Vd@physx@@UEAAXPEBDAEBVPxVec3@3@11@Z 0000000180046d70 f   ScbScenePvdClient.obj
 0001:00045d90       ?drawPoints@ScbScenePvdClient@Vd@physx@@UEAAXPEBUPvdDebugPoint@pvdsdk@3@I@Z 0000000180046d90 f   ScbScenePvdClient.obj
 0001:00045db0       ?drawLines@ScbScenePvdClient@Vd@physx@@UEAAXPEBUPvdDebugLine@pvdsdk@3@I@Z 0000000180046db0 f   ScbScenePvdClient.obj
 0001:00045dd0       ?drawTriangles@ScbScenePvdClient@Vd@physx@@UEAAXPEBUPvdDebugTriangle@pvdsdk@3@I@Z 0000000180046dd0 f   ScbScenePvdClient.obj
 0001:00045df0       ?drawText@ScbScenePvdClient@Vd@physx@@UEAAXAEBUPvdDebugText@pvdsdk@3@@Z 0000000180046df0 f   ScbScenePvdClient.obj
 0001:00045e10       ?onPvdConnected@ScbScenePvdClient@Vd@physx@@UEAAXXZ 0000000180046e10 f   ScbScenePvdClient.obj
 0001:00045f40       ?onPvdDisconnected@ScbScenePvdClient@Vd@physx@@UEAAXXZ 0000000180046f40 f   ScbScenePvdClient.obj
 0001:00045fb0       ?frameStart@ScbScenePvdClient@Vd@physx@@QEAAXM@Z 0000000180046fb0 f   ScbScenePvdClient.obj
 0001:00046090       ?frameEnd@ScbScenePvdClient@Vd@physx@@QEAAXXZ 0000000180047090 f   ScbScenePvdClient.obj
 0001:00046460       ?updatePvdProperties@ScbScenePvdClient@Vd@physx@@QEAAXXZ 0000000180047460 f   ScbScenePvdClient.obj
 0001:00046490       ?releasePvdInstance@ScbScenePvdClient@Vd@physx@@QEAAXXZ 0000000180047490 f   ScbScenePvdClient.obj
 0001:00046500       ?createPvdInstance@ScbScenePvdClient@Vd@physx@@QEAAXPEBVPxActor@3@@Z 0000000180047500 f   ScbScenePvdClient.obj
 0001:00046640       ?updatePvdProperties@ScbScenePvdClient@Vd@physx@@QEAAXPEBVPxActor@3@@Z 0000000180047640 f   ScbScenePvdClient.obj
 0001:00046780       ?releasePvdInstance@ScbScenePvdClient@Vd@physx@@QEAAXPEBVPxActor@3@@Z 0000000180047780 f   ScbScenePvdClient.obj
 0001:000468a0       ?createPvdInstance@ScbScenePvdClient@Vd@physx@@QEAAXPEBVActor@Scb@3@@Z 00000001800478a0 f   ScbScenePvdClient.obj
 0001:00046900       ?updatePvdProperties@ScbScenePvdClient@Vd@physx@@QEAAXPEBVActor@Scb@3@@Z 0000000180047900 f   ScbScenePvdClient.obj
 0001:00046a60       ?releasePvdInstance@ScbScenePvdClient@Vd@physx@@QEAAXPEBVActor@Scb@3@@Z 0000000180047a60 f   ScbScenePvdClient.obj
 0001:00046ac0       ?createPvdInstance@ScbScenePvdClient@Vd@physx@@QEAAXPEBVBody@Scb@3@@Z 0000000180047ac0 f   ScbScenePvdClient.obj
 0001:00046b90       ?updatePvdProperties@ScbScenePvdClient@Vd@physx@@QEAAXPEBVBody@Scb@3@@Z 0000000180047b90 f   ScbScenePvdClient.obj
 0001:00046c10       ?updateKinematicTarget@ScbScenePvdClient@Vd@physx@@QEAAXPEBVBody@Scb@3@AEBVPxTransform@3@@Z 0000000180047c10 f   ScbScenePvdClient.obj
 0001:00046cb0       ?createPvdInstance@ScbScenePvdClient@Vd@physx@@QEAAXPEBVRigidStatic@Scb@3@@Z 0000000180047cb0 f   ScbScenePvdClient.obj
 0001:00046d30       ?updatePvdProperties@ScbScenePvdClient@Vd@physx@@QEAAXPEBVRigidStatic@Scb@3@@Z 0000000180047d30 f   ScbScenePvdClient.obj
 0001:00046d80       ?releasePvdInstance@ScbScenePvdClient@Vd@physx@@QEAAXPEBVRigidObject@Scb@3@@Z 0000000180047d80 f   ScbScenePvdClient.obj
 0001:00046de0       ?createPvdInstance@ScbScenePvdClient@Vd@physx@@QEAAXPEBVConstraint@Scb@3@@Z 0000000180047de0 f   ScbScenePvdClient.obj
 0001:00046e30       ?updatePvdProperties@ScbScenePvdClient@Vd@physx@@QEAAXPEBVConstraint@Scb@3@@Z 0000000180047e30 f   ScbScenePvdClient.obj
 0001:00046e80       ?releasePvdInstance@ScbScenePvdClient@Vd@physx@@QEAAXPEBVConstraint@Scb@3@@Z 0000000180047e80 f   ScbScenePvdClient.obj
 0001:00046f00       ?createPvdInstance@ScbScenePvdClient@Vd@physx@@QEAAXPEBVArticulation@Scb@3@@Z 0000000180047f00 f   ScbScenePvdClient.obj
 0001:00046f80       ?updatePvdProperties@ScbScenePvdClient@Vd@physx@@QEAAXPEBVArticulation@Scb@3@@Z 0000000180047f80 f   ScbScenePvdClient.obj
 0001:00046fd0       ?releasePvdInstance@ScbScenePvdClient@Vd@physx@@QEAAXPEBVArticulation@Scb@3@@Z 0000000180047fd0 f   ScbScenePvdClient.obj
 0001:00047030       ?createPvdInstance@ScbScenePvdClient@Vd@physx@@QEAAXPEBVArticulationJoint@Scb@3@@Z 0000000180048030 f   ScbScenePvdClient.obj
 0001:00047040       ?updatePvdProperties@ScbScenePvdClient@Vd@physx@@QEAAXPEBVArticulationJoint@Scb@3@@Z 0000000180048040 f   ScbScenePvdClient.obj
 0001:00047090       ?releasePvdInstance@ScbScenePvdClient@Vd@physx@@QEAAXPEBVArticulationJoint@Scb@3@@Z 0000000180048090 f   ScbScenePvdClient.obj
 0001:000470a0       ?createPvdInstance@ScbScenePvdClient@Vd@physx@@QEAAXPEBVMaterialCore@Sc@3@@Z 00000001800480a0 f   ScbScenePvdClient.obj
 0001:00047110       ?updatePvdProperties@ScbScenePvdClient@Vd@physx@@QEAAXPEBVMaterialCore@Sc@3@@Z 0000000180048110 f   ScbScenePvdClient.obj
 0001:00047160       ?releasePvdInstance@ScbScenePvdClient@Vd@physx@@QEAAXPEBVMaterialCore@Sc@3@@Z 0000000180048160 f   ScbScenePvdClient.obj
 0001:000471d0       ?createPvdInstance@ScbScenePvdClient@Vd@physx@@QEAAXPEBVShape@Scb@3@AEAVPxActor@3@@Z 00000001800481d0 f   ScbScenePvdClient.obj
 0001:000472e0       ?updateMaterials@ScbScenePvdClient@Vd@physx@@QEAAXPEBVShape@Scb@3@@Z 00000001800482e0 f   ScbScenePvdClient.obj
 0001:00047330       ?updatePvdProperties@ScbScenePvdClient@Vd@physx@@QEAAXPEBVShape@Scb@3@@Z 0000000180048330 f   ScbScenePvdClient.obj
 0001:00047380       ?releaseAndRecreateGeometry@ScbScenePvdClient@Vd@physx@@QEAAXPEBVShape@Scb@3@@Z 0000000180048380 f   ScbScenePvdClient.obj
 0001:000473e0       ?releasePvdInstance@ScbScenePvdClient@Vd@physx@@QEAAXPEBVShape@Scb@3@AEAVPxActor@3@@Z 00000001800483e0 f   ScbScenePvdClient.obj
 0001:000475d0       ?addBodyAndShapesToPvd@ScbScenePvdClient@Vd@physx@@QEAAXAEAVBody@Scb@3@@Z 00000001800485d0 f   ScbScenePvdClient.obj
 0001:000477d0       ?addStaticAndShapesToPvd@ScbScenePvdClient@Vd@physx@@QEAAXAEAVRigidStatic@Scb@3@@Z 00000001800487d0 f   ScbScenePvdClient.obj
 0001:00047990       ?createPvdInstance@ScbScenePvdClient@Vd@physx@@QEAAXPEBVAggregate@Scb@3@@Z 0000000180048990 f   ScbScenePvdClient.obj
 0001:00047a90       ?updatePvdProperties@ScbScenePvdClient@Vd@physx@@QEAAXPEBVAggregate@Scb@3@@Z 0000000180048a90 f   ScbScenePvdClient.obj
 0001:00047ae0       ?attachAggregateActor@ScbScenePvdClient@Vd@physx@@QEAAXPEBVAggregate@Scb@3@PEAVActor@53@@Z 0000000180048ae0 f   ScbScenePvdClient.obj
 0001:00047b80       ?detachAggregateActor@ScbScenePvdClient@Vd@physx@@QEAAXPEBVAggregate@Scb@3@PEAVActor@53@@Z 0000000180048b80 f   ScbScenePvdClient.obj
 0001:00047c20       ?releasePvdInstance@ScbScenePvdClient@Vd@physx@@QEAAXPEBVAggregate@Scb@3@@Z 0000000180048c20 f   ScbScenePvdClient.obj
 0001:00047d20       ?createPvdInstance@ScbScenePvdClient@Vd@physx@@QEAAXPEBVCloth@Scb@3@@Z 0000000180048d20 f   ScbScenePvdClient.obj
 0001:00047da0       ?sendSimpleProperties@ScbScenePvdClient@Vd@physx@@QEAAXPEBVCloth@Scb@3@@Z 0000000180048da0 f   ScbScenePvdClient.obj
 0001:00047df0       ?sendMotionConstraints@ScbScenePvdClient@Vd@physx@@QEAAXPEBVCloth@Scb@3@@Z 0000000180048df0 f   ScbScenePvdClient.obj
 0001:00047e40       ?sendCollisionSpheres@ScbScenePvdClient@Vd@physx@@QEAAXPEBVCloth@Scb@3@@Z 0000000180048e40 f   ScbScenePvdClient.obj
 0001:00047e90       ?sendCollisionCapsules@ScbScenePvdClient@Vd@physx@@QEAAXPEBVCloth@Scb@3@@Z 0000000180048e90 f   ScbScenePvdClient.obj
 0001:00047ee0       ?sendCollisionTriangles@ScbScenePvdClient@Vd@physx@@QEAAXPEBVCloth@Scb@3@@Z 0000000180048ee0 f   ScbScenePvdClient.obj
 0001:00047f30       ?sendVirtualParticles@ScbScenePvdClient@Vd@physx@@QEAAXPEBVCloth@Scb@3@@Z 0000000180048f30 f   ScbScenePvdClient.obj
 0001:00047f80       ?sendSeparationConstraints@ScbScenePvdClient@Vd@physx@@QEAAXPEBVCloth@Scb@3@@Z 0000000180048f80 f   ScbScenePvdClient.obj
 0001:00047fd0       ?sendParticleAccelerations@ScbScenePvdClient@Vd@physx@@QEAAXPEBVCloth@Scb@3@@Z 0000000180048fd0 f   ScbScenePvdClient.obj
 0001:00048020       ?sendSelfCollisionIndices@ScbScenePvdClient@Vd@physx@@QEAAXPEBVCloth@Scb@3@@Z 0000000180049020 f   ScbScenePvdClient.obj
 0001:00048070       ?sendRestPositions@ScbScenePvdClient@Vd@physx@@QEAAXPEBVCloth@Scb@3@@Z 0000000180049070 f   ScbScenePvdClient.obj
 0001:000480c0       ?releasePvdInstance@ScbScenePvdClient@Vd@physx@@QEAAXPEBVCloth@Scb@3@@Z 00000001800490c0 f   ScbScenePvdClient.obj
 0001:00048120       ?originShift@ScbScenePvdClient@Vd@physx@@QEAAXVPxVec3@3@@Z 0000000180049120 f   ScbScenePvdClient.obj
 0001:00048180       ?updateJoints@ScbScenePvdClient@Vd@physx@@QEAAXXZ 0000000180049180 f   ScbScenePvdClient.obj
 0001:00048590       ?updateContacts@ScbScenePvdClient@Vd@physx@@QEAAXXZ 0000000180049590 f   ScbScenePvdClient.obj
 0001:00048880       ?updateSceneQueries@ScbScenePvdClient@Vd@physx@@QEAAXXZ 0000000180049880 f   ScbScenePvdClient.obj
 0001:000488e0       ?visualize@ScbScenePvdClient@Vd@physx@@UEAAXAEAVPxArticulationLink@3@@Z 00000001800498e0 f   ScbScenePvdClient.obj
 0001:00048950       ?visualize@ScbScenePvdClient@Vd@physx@@QEAAXAEBVPxRenderBuffer@3@@Z 0000000180049950 f   ScbScenePvdClient.obj
 0001:00048a60       ?sendStateDatas@ScbScenePvdClient@Vd@physx@@AEAAXPEAVParticleSystemCore@Sc@3@@Z 0000000180049a60 f   ScbScenePvdClient.obj
 0001:00048fb0       ?sendEntireScene@ScbScenePvdClient@Vd@physx@@AEAAXXZ 0000000180049fb0 f   ScbScenePvdClient.obj
 0001:000495a0       ?updateConstraint@ScbScenePvdClient@Vd@physx@@AEAAXAEBVConstraintCore@Sc@3@I@Z 000000018004a5a0 f   ScbScenePvdClient.obj
 0001:00049620       ?setCreateContactReports@ScbScenePvdClient@Vd@physx@@AEAAX_N@Z 000000018004a620 f   ScbScenePvdClient.obj
 0001:0004a4a0       ??$sendArray@M@ScbScenePvdClient@Vd@physx@@AEAAXPEBXPEBDPEBV?$BitMapBase@VNonTrackingAllocator@shdfnd@physx@@@Cm@2@IAEAV?$PxStrideIterator@$$CBM@2@@Z 000000018004b4a0 f i ScbScenePvdClient.obj
 0001:0004a720       ??$sendArray@VPxVec3@physx@@@ScbScenePvdClient@Vd@physx@@AEAAXPEBXPEBDPEBV?$BitMapBase@VNonTrackingAllocator@shdfnd@physx@@@Cm@2@IAEAV?$PxStrideIterator@$$CBVPxVec3@physx@@@2@@Z 000000018004b720 f i ScbScenePvdClient.obj
 0001:0004a9c0       ??1PvdClient@pvdsdk@physx@@MEAA@XZ 000000018004b9c0 f i ScbScenePvdClient.obj
 0001:0004a9d0       ??1PvdVisualizer@Vd@physx@@MEAA@XZ 000000018004b9d0 f i ScbScenePvdClient.obj
 0001:0004a9e0       ??1PxConstraintVisualizer@physx@@MEAA@XZ 000000018004b9e0 f i ScbScenePvdClient.obj
 0001:0004a9f0       ??1PxPvdSceneClient@physx@@MEAA@XZ 000000018004b9f0 f i ScbScenePvdClient.obj
 0001:0004aa00       ??1RendererEventClient@pvdsdk@physx@@UEAA@XZ 000000018004ba00 f i ScbScenePvdClient.obj
 0001:0004aa10       ??_EScbScenePvdClient@Vd@physx@@W7EAAPEAXI@Z 000000018004ba10 f i ScbScenePvdClient.obj
 0001:0004aa1c       ??_EScbScenePvdClient@Vd@physx@@WBA@EAAPEAXI@Z 000000018004ba1c f i ScbScenePvdClient.obj
 0001:0004aa30       ??_GPvdClient@pvdsdk@physx@@MEAAPEAXI@Z 000000018004ba30 f i ScbScenePvdClient.obj
 0001:0004aa30       ??_EPvdClient@pvdsdk@physx@@MEAAPEAXI@Z 000000018004ba30 f i ScbScenePvdClient.obj
 0001:0004aa70       ??_EPvdConstraintVisualizer@?A0x5b22003a@1@UEAAPEAXI@Z 000000018004ba70 f i ScbScenePvdClient.obj
 0001:0004aa70       ??_GPvdConstraintVisualizer@?A0x5b22003a@1@UEAAPEAXI@Z 000000018004ba70 f i ScbScenePvdClient.obj
 0001:0004aab0       ??_GPvdVisualizer@Vd@physx@@MEAAPEAXI@Z 000000018004bab0 f i ScbScenePvdClient.obj
 0001:0004aab0       ??_EPvdVisualizer@Vd@physx@@MEAAPEAXI@Z 000000018004bab0 f i ScbScenePvdClient.obj
 0001:0004aaf0       ??_GPxConstraintVisualizer@physx@@MEAAPEAXI@Z 000000018004baf0 f i ScbScenePvdClient.obj
 0001:0004aaf0       ??_EPxConstraintVisualizer@physx@@MEAAPEAXI@Z 000000018004baf0 f i ScbScenePvdClient.obj
 0001:0004ab30       ??_EPxPvdSceneClient@physx@@MEAAPEAXI@Z 000000018004bb30 f i ScbScenePvdClient.obj
 0001:0004ab30       ??_GPxPvdSceneClient@physx@@MEAAPEAXI@Z 000000018004bb30 f i ScbScenePvdClient.obj
 0001:0004ab70       ??_GRendererEventClient@pvdsdk@physx@@UEAAPEAXI@Z 000000018004bb70 f i ScbScenePvdClient.obj
 0001:0004ab70       ??_ERendererEventClient@pvdsdk@physx@@UEAAPEAXI@Z 000000018004bb70 f i ScbScenePvdClient.obj
 0001:0004abb0       ??_GScbScenePvdClient@Vd@physx@@UEAAPEAXI@Z 000000018004bbb0 f i ScbScenePvdClient.obj
 0001:0004abb0       ??_EScbScenePvdClient@Vd@physx@@UEAAPEAXI@Z 000000018004bbb0 f i ScbScenePvdClient.obj
 0001:0004ac70       ??_GSceneRendererClient@?A0x5b22003a@@UEAAPEAXI@Z 000000018004bc70 f i ScbScenePvdClient.obj
 0001:0004ac70       ??_ESceneRendererClient@?A0x5b22003a@@UEAAPEAXI@Z 000000018004bc70 f i ScbScenePvdClient.obj
 0001:0004ade0       ?flush@ScbScenePvdClient@Vd@physx@@UEAAXXZ 000000018004bde0 f i ScbScenePvdClient.obj
 0001:0004adf0       ?getClientInternal@ScbScenePvdClient@Vd@physx@@UEAAPEAVPvdClient@pvdsdk@3@XZ 000000018004bdf0 f i ScbScenePvdClient.obj
 0001:0004ae10       ?getDataStream@ScbScenePvdClient@Vd@physx@@UEAAPEAVPvdDataStream@pvdsdk@3@XZ 000000018004be10 f i ScbScenePvdClient.obj
 0001:0004ae20       ?getMetaDataBinding@ScbScenePvdClient@Vd@physx@@UEAAPEAVPvdMetaDataBinding@23@XZ 000000018004be20 f i ScbScenePvdClient.obj
 0001:0004ae30       ?getScenePvdFlags@ScbScenePvdClient@Vd@physx@@UEBA?AV?$PxFlags@W4Enum@PxPvdSceneFlag@physx@@E@3@XZ 000000018004be30 f i ScbScenePvdClient.obj
 0001:0004ae40       ?getUserRender@ScbScenePvdClient@Vd@physx@@UEAAPEAVPvdUserRenderer@pvdsdk@3@XZ 000000018004be40 f i ScbScenePvdClient.obj
 0001:0004ae50       ?growAndPushBack@?$Array@UContact@Sc@physx@@VNamedAllocator@shdfnd@3@@shdfnd@physx@@IEAAAEAUContact@Sc@3@AEBU453@@Z 000000018004be50 f i ScbScenePvdClient.obj
 0001:0004b300       ?isConnected@ScbScenePvdClient@Vd@physx@@UEBA_NXZ 000000018004c300 f i ScbScenePvdClient.obj
 0001:0004b310       ?recreate@?$Array@EVNamedAllocator@shdfnd@physx@@@shdfnd@physx@@IEAAXI@Z 000000018004c310 f i ScbScenePvdClient.obj
 0001:0004b420       ?recreate@?$Array@PEAVPxActor@physx@@VNamedAllocator@shdfnd@2@@shdfnd@physx@@IEAAXI@Z 000000018004c420 f i ScbScenePvdClient.obj
 0001:0004b530       ?recreate@?$Array@PEAVPxArticulation@physx@@VNamedAllocator@shdfnd@2@@shdfnd@physx@@IEAAXI@Z 000000018004c530 f i ScbScenePvdClient.obj
 0001:0004b640       ?resize@?$Array@EVNamedAllocator@shdfnd@physx@@@shdfnd@physx@@QEAAXIAEBE@Z 000000018004c640 f i ScbScenePvdClient.obj
 0001:0004b730       ?resize@?$Array@PEAVPxActor@physx@@VNamedAllocator@shdfnd@2@@shdfnd@physx@@QEAAXIAEBQEAVPxActor@3@@Z 000000018004c730 f i ScbScenePvdClient.obj
 0001:0004b840       ?resize@?$Array@PEAVPxArticulation@physx@@VNamedAllocator@shdfnd@2@@shdfnd@physx@@QEAAXIAEBQEAVPxArticulation@3@@Z 000000018004c840 f i ScbScenePvdClient.obj
 0001:0004b950       ?setScenePvdFlags@ScbScenePvdClient@Vd@physx@@UEAAXV?$PxFlags@W4Enum@PxPvdSceneFlag@physx@@E@3@@Z 000000018004c950 f i ScbScenePvdClient.obj
 0001:0004ba60       ?syncState@Shape@Scb@physx@@QEAAXXZ 000000018004ca60 f   ScbShape.obj
 0001:0004bc60       ?setMaterialsHelper@Shape@Scb@physx@@AEAA_NPEBQEAVPxMaterial@3@G@Z 000000018004cc60 f   ScbShape.obj
 0001:0004bec0       ??0NpCloth@physx@@QEAA@V?$PxFlags@W4Enum@PxBaseFlag@physx@@G@1@@Z 000000018004cec0 f   NpCloth.obj
 0001:0004bf40       ?requires@NpCloth@physx@@UEAAXAEAVPxProcessPxBaseCallback@2@@Z 000000018004cf40 f   NpCloth.obj
 0001:0004bf60       ?resolveReferences@NpCloth@physx@@UEAAXAEAVPxDeserializationContext@2@@Z 000000018004cf60 f   NpCloth.obj
 0001:0004bfc0       ?createObject@NpCloth@physx@@SAPEAV12@AEAPEAEAEAVPxDeserializationContext@2@@Z 000000018004cfc0 f   NpCloth.obj
 0001:0004c090       ??0NpCloth@physx@@QEAA@AEBVPxTransform@1@AEAVNpClothFabric@1@PEBUPxClothParticle@1@V?$PxFlags@W4Enum@PxClothFlag@physx@@G@1@@Z 000000018004d090 f   NpCloth.obj
 0001:0004c170       ??1NpCloth@physx@@UEAA@XZ  000000018004d170 f   NpCloth.obj
 0001:0004c210       ?release@NpCloth@physx@@UEAAXXZ 000000018004d210 f   NpCloth.obj
 0001:0004c290       ?getType@NpCloth@physx@@UEBA?AW4Enum@PxActorType@2@XZ 000000018004d290 f   NpCloth.obj
 0001:0004c2a0       ?getFabric@NpCloth@physx@@UEBAPEAVPxClothFabric@2@XZ 000000018004d2a0 f   NpCloth.obj
 0001:0004c2e0       ?setParticles@NpCloth@physx@@UEAAXPEBUPxClothParticle@2@0@Z 000000018004d2e0 f   NpCloth.obj
 0001:0004c450       ?getNbParticles@NpCloth@physx@@UEBAIXZ 000000018004d450 f   NpCloth.obj
 0001:0004c4a0       ?setMotionConstraints@NpCloth@physx@@UEAAXPEBUPxClothParticleMotionConstraint@2@@Z 000000018004d4a0 f   NpCloth.obj
 0001:0004c600       ?getMotionConstraints@NpCloth@physx@@UEBA_NPEAUPxClothParticleMotionConstraint@2@@Z 000000018004d600 f   NpCloth.obj
 0001:0004c6f0       ?getNbMotionConstraints@NpCloth@physx@@UEBAIXZ 000000018004d6f0 f   NpCloth.obj
 0001:0004c740       ?setMotionConstraintConfig@NpCloth@physx@@UEAAXAEBUPxClothMotionConstraintConfig@2@@Z 000000018004d740 f   NpCloth.obj
 0001:0004c820       ?getMotionConstraintConfig@NpCloth@physx@@UEBA?AUPxClothMotionConstraintConfig@2@XZ 000000018004d820 f   NpCloth.obj
 0001:0004c8d0       ?setSeparationConstraints@NpCloth@physx@@UEAAXPEBUPxClothParticleSeparationConstraint@2@@Z 000000018004d8d0 f   NpCloth.obj
 0001:0004ca30       ?getSeparationConstraints@NpCloth@physx@@UEBA_NPEAUPxClothParticleSeparationConstraint@2@@Z 000000018004da30 f   NpCloth.obj
 0001:0004cb20       ?getNbSeparationConstraints@NpCloth@physx@@UEBAIXZ 000000018004db20 f   NpCloth.obj
 0001:0004cb30       ?clearInterpolation@NpCloth@physx@@UEAAXXZ 000000018004db30 f   NpCloth.obj
 0001:0004cb40       ?setParticleAccelerations@NpCloth@physx@@UEAAXPEBVPxVec4@2@@Z 000000018004db40 f   NpCloth.obj
 0001:0004cc40       ?getParticleAccelerations@NpCloth@physx@@UEBA_NPEAVPxVec4@2@@Z 000000018004dc40 f   NpCloth.obj
 0001:0004cd00       ?getNbParticleAccelerations@NpCloth@physx@@UEBAIXZ 000000018004dd00 f   NpCloth.obj
 0001:0004cd10       ?addCollisionSphere@NpCloth@physx@@UEAAXAEBUPxClothCollisionSphere@2@@Z 000000018004dd10 f   NpCloth.obj
 0001:0004ce40       ?removeCollisionSphere@NpCloth@physx@@UEAAXI@Z 000000018004de40 f   NpCloth.obj
 0001:0004cee0       ?setCollisionSpheres@NpCloth@physx@@UEAAXPEBUPxClothCollisionSphere@2@I@Z 000000018004dee0 f   NpCloth.obj
 0001:0004d050       ?getNbCollisionSpheres@NpCloth@physx@@UEBAIXZ 000000018004e050 f   NpCloth.obj
 0001:0004d0a0       ?getCollisionData@NpCloth@physx@@UEBAXPEAUPxClothCollisionSphere@2@PEAIPEAUPxClothCollisionPlane@2@1PEAUPxClothCollisionTriangle@2@@Z 000000018004e0a0 f   NpCloth.obj
 0001:0004d180       ?addCollisionCapsule@NpCloth@physx@@UEAAXII@Z 000000018004e180 f   NpCloth.obj
 0001:0004d290       ?removeCollisionCapsule@NpCloth@physx@@UEAAXI@Z 000000018004e290 f   NpCloth.obj
 0001:0004d380       ?getNbCollisionCapsules@NpCloth@physx@@UEBAIXZ 000000018004e380 f   NpCloth.obj
 0001:0004d3d0       ?addCollisionTriangle@NpCloth@physx@@UEAAXAEBUPxClothCollisionTriangle@2@@Z 000000018004e3d0 f   NpCloth.obj
 0001:0004d4c0       ?removeCollisionTriangle@NpCloth@physx@@UEAAXI@Z 000000018004e4c0 f   NpCloth.obj
 0001:0004d5b0       ?setCollisionTriangles@NpCloth@physx@@UEAAXPEBUPxClothCollisionTriangle@2@I@Z 000000018004e5b0 f   NpCloth.obj
 0001:0004d6b0       ?getNbCollisionTriangles@NpCloth@physx@@UEBAIXZ 000000018004e6b0 f   NpCloth.obj
 0001:0004d760       ?addCollisionPlane@NpCloth@physx@@UEAAXAEBUPxClothCollisionPlane@2@@Z 000000018004e760 f   NpCloth.obj
 0001:0004d860       ?removeCollisionPlane@NpCloth@physx@@UEAAXI@Z 000000018004e860 f   NpCloth.obj
 0001:0004d950       ?setCollisionPlanes@NpCloth@physx@@UEAAXPEBUPxClothCollisionPlane@2@I@Z 000000018004e950 f   NpCloth.obj
 0001:0004da40       ?getNbCollisionPlanes@NpCloth@physx@@UEBAIXZ 000000018004ea40 f   NpCloth.obj
 0001:0004da90       ?addCollisionConvex@NpCloth@physx@@UEAAXI@Z 000000018004ea90 f   NpCloth.obj
 0001:0004db80       ?removeCollisionConvex@NpCloth@physx@@UEAAXI@Z 000000018004eb80 f   NpCloth.obj
 0001:0004dc70       ?getNbCollisionConvexes@NpCloth@physx@@UEBAIXZ 000000018004ec70 f   NpCloth.obj
 0001:0004dd20       ?setVirtualParticles@NpCloth@physx@@UEAAXIPEBIIPEBVPxVec3@2@@Z 000000018004ed20 f   NpCloth.obj
 0001:0004df20       ?getNbVirtualParticles@NpCloth@physx@@UEBAIXZ 000000018004ef20 f   NpCloth.obj
 0001:0004dfd0       ?getVirtualParticles@NpCloth@physx@@UEBAXPEAI@Z 000000018004efd0 f   NpCloth.obj
 0001:0004e0a0       ?getNbVirtualParticleWeights@NpCloth@physx@@UEBAIXZ 000000018004f0a0 f   NpCloth.obj
 0001:0004e150       ?getVirtualParticleWeights@NpCloth@physx@@UEBAXPEAVPxVec3@2@@Z 000000018004f150 f   NpCloth.obj
 0001:0004e220       ?setGlobalPose@NpCloth@physx@@UEAAXAEBVPxTransform@2@@Z 000000018004f220 f   NpCloth.obj
 0001:0004e4f0       ?getGlobalPose@NpCloth@physx@@UEBA?AVPxTransform@2@XZ 000000018004f4f0 f   NpCloth.obj
 0001:0004e5b0       ?setTargetPose@NpCloth@physx@@UEAAXAEBVPxTransform@2@@Z 000000018004f5b0 f   NpCloth.obj
 0001:0004e880       ?setExternalAcceleration@NpCloth@physx@@UEAAXVPxVec3@2@@Z 000000018004f880 f   NpCloth.obj
 0001:0004ea00       ?getExternalAcceleration@NpCloth@physx@@UEBA?AVPxVec3@2@XZ 000000018004fa00 f   NpCloth.obj
 0001:0004eab0       ?setLinearInertiaScale@NpCloth@physx@@UEAAXVPxVec3@2@@Z 000000018004fab0 f   NpCloth.obj
 0001:0004ebb0       ?getLinearInertiaScale@NpCloth@physx@@UEBA?AVPxVec3@2@XZ 000000018004fbb0 f   NpCloth.obj
 0001:0004ec30       ?setAngularInertiaScale@NpCloth@physx@@UEAAXVPxVec3@2@@Z 000000018004fc30 f   NpCloth.obj
 0001:0004ed30       ?getAngularInertiaScale@NpCloth@physx@@UEBA?AVPxVec3@2@XZ 000000018004fd30 f   NpCloth.obj
 0001:0004edb0       ?setCentrifugalInertiaScale@NpCloth@physx@@UEAAXVPxVec3@2@@Z 000000018004fdb0 f   NpCloth.obj
 0001:0004ef20       ?getCentrifugalInertiaScale@NpCloth@physx@@UEBA?AVPxVec3@2@XZ 000000018004ff20 f   NpCloth.obj
 0001:0004efa0       ?setInertiaScale@NpCloth@physx@@UEAAXM@Z 000000018004ffa0 f   NpCloth.obj
 0001:0004f080       ?setDampingCoefficient@NpCloth@physx@@UEAAXVPxVec3@2@@Z 0000000180050080 f   NpCloth.obj
 0001:0004f1f0       ?getDampingCoefficient@NpCloth@physx@@UEBA?AVPxVec3@2@XZ 00000001800501f0 f   NpCloth.obj
 0001:0004f2a0       ?setFrictionCoefficient@NpCloth@physx@@UEAAXM@Z 00000001800502a0 f   NpCloth.obj
 0001:0004f3a0       ?getFrictionCoefficient@NpCloth@physx@@UEBAMXZ 00000001800503a0 f   NpCloth.obj
 0001:0004f410       ?setLinearDragCoefficient@NpCloth@physx@@UEAAXVPxVec3@2@@Z 0000000180050410 f   NpCloth.obj
 0001:0004f580       ?getLinearDragCoefficient@NpCloth@physx@@UEBA?AVPxVec3@2@XZ 0000000180050580 f   NpCloth.obj
 0001:0004f600       ?setAngularDragCoefficient@NpCloth@physx@@UEAAXVPxVec3@2@@Z 0000000180050600 f   NpCloth.obj
 0001:0004f770       ?getAngularDragCoefficient@NpCloth@physx@@UEBA?AVPxVec3@2@XZ 0000000180050770 f   NpCloth.obj
 0001:0004f7f0       ?setDragCoefficient@NpCloth@physx@@UEAAXM@Z 00000001800507f0 f   NpCloth.obj
 0001:0004f860       ?setCollisionMassScale@NpCloth@physx@@UEAAXM@Z 0000000180050860 f   NpCloth.obj
 0001:0004f930       ?getCollisionMassScale@NpCloth@physx@@UEBAMXZ 0000000180050930 f   NpCloth.obj
 0001:0004f9a0       ?setSelfCollisionDistance@NpCloth@physx@@UEAAXM@Z 00000001800509a0 f   NpCloth.obj
 0001:0004fa70       ?getSelfCollisionDistance@NpCloth@physx@@UEBAMXZ 0000000180050a70 f   NpCloth.obj
 0001:0004fae0       ?setSelfCollisionStiffness@NpCloth@physx@@UEAAXM@Z 0000000180050ae0 f   NpCloth.obj
 0001:0004fbb0       ?getSelfCollisionStiffness@NpCloth@physx@@UEBAMXZ 0000000180050bb0 f   NpCloth.obj
 0001:0004fc20       ?setSelfCollisionIndices@NpCloth@physx@@UEAAXPEBII@Z 0000000180050c20 f   NpCloth.obj
 0001:0004fd20       ?getSelfCollisionIndices@NpCloth@physx@@UEBA_NPEAI@Z 0000000180050d20 f   NpCloth.obj
 0001:0004fd90       ?getNbSelfCollisionIndices@NpCloth@physx@@UEBAIXZ 0000000180050d90 f   NpCloth.obj
 0001:0004fda0       ?setRestPositions@NpCloth@physx@@UEAAXPEBVPxVec4@2@@Z 0000000180050da0 f   NpCloth.obj
 0001:0004fe90       ?getRestPositions@NpCloth@physx@@UEBA_NPEAVPxVec4@2@@Z 0000000180050e90 f   NpCloth.obj
 0001:0004ff00       ?getNbRestPositions@NpCloth@physx@@UEBAIXZ 0000000180050f00 f   NpCloth.obj
 0001:0004ff10       ?setSolverFrequency@NpCloth@physx@@UEAAXM@Z 0000000180050f10 f   NpCloth.obj
 0001:0004fff0       ?getSolverFrequency@NpCloth@physx@@UEBAMXZ 0000000180050ff0 f   NpCloth.obj
 0001:000500a0       ?setStiffnessFrequency@NpCloth@physx@@UEAAXM@Z 00000001800510a0 f   NpCloth.obj
 0001:00050180       ?getStiffnessFrequency@NpCloth@physx@@UEBAMXZ 0000000180051180 f   NpCloth.obj
 0001:00050230       ?setStretchConfig@NpCloth@physx@@UEAAXW4Enum@PxClothFabricPhaseType@2@AEBUPxClothStretchConfig@2@@Z 0000000180051230 f   NpCloth.obj
 0001:00050450       ?getStretchConfig@NpCloth@physx@@UEBA?AUPxClothStretchConfig@2@W4Enum@PxClothFabricPhaseType@2@@Z 0000000180051450 f   NpCloth.obj
 0001:00050520       ?setTetherConfig@NpCloth@physx@@UEAAXAEBUPxClothTetherConfig@2@@Z 0000000180051520 f   NpCloth.obj
 0001:00050640       ?getTetherConfig@NpCloth@physx@@UEBA?AUPxClothTetherConfig@2@XZ 0000000180051640 f   NpCloth.obj
 0001:000506f0       ?setClothFlags@NpCloth@physx@@UEAAXV?$PxFlags@W4Enum@PxClothFlag@physx@@G@2@@Z 00000001800516f0 f   NpCloth.obj
 0001:00050810       ?setClothFlag@NpCloth@physx@@UEAAXW4Enum@PxClothFlag@2@_N@Z 0000000180051810 f   NpCloth.obj
 0001:000508d0       ?getClothFlags@NpCloth@physx@@UEBA?AV?$PxFlags@W4Enum@PxClothFlag@physx@@G@2@XZ 00000001800518d0 f   NpCloth.obj
 0001:00050930       ?getWindVelocity@NpCloth@physx@@UEBA?AVPxVec3@2@XZ 0000000180051930 f   NpCloth.obj
 0001:000509e0       ?setWindVelocity@NpCloth@physx@@UEAAXVPxVec3@2@@Z 00000001800519e0 f   NpCloth.obj
 0001:00050af0       ?getWindDrag@NpCloth@physx@@UEBAMXZ 0000000180051af0 f   NpCloth.obj
 0001:00050b90       ?setWindDrag@NpCloth@physx@@UEAAXM@Z 0000000180051b90 f   NpCloth.obj
 0001:00050c70       ?getWindLift@NpCloth@physx@@UEBAMXZ 0000000180051c70 f   NpCloth.obj
 0001:00050d10       ?setWindLift@NpCloth@physx@@UEAAXM@Z 0000000180051d10 f   NpCloth.obj
 0001:00050df0       ?isSleeping@NpCloth@physx@@UEBA_NXZ 0000000180051df0 f   NpCloth.obj
 0001:00050ed0       ?getSleepLinearVelocity@NpCloth@physx@@UEBAMXZ 0000000180051ed0 f   NpCloth.obj
 0001:00050f70       ?setSleepLinearVelocity@NpCloth@physx@@UEAAXM@Z 0000000180051f70 f   NpCloth.obj
 0001:000510a0       ?setWakeCounter@NpCloth@physx@@UEAAXM@Z 00000001800520a0 f   NpCloth.obj
 0001:000511d0       ?getWakeCounter@NpCloth@physx@@UEBAMXZ 00000001800521d0 f   NpCloth.obj
 0001:00051270       ?wakeUp@NpCloth@physx@@UEAAXXZ 0000000180052270 f   NpCloth.obj
 0001:00051340       ?putToSleep@NpCloth@physx@@UEAAXXZ 0000000180052340 f   NpCloth.obj
 0001:00051410       ?lockParticleData@NpCloth@physx@@UEAAPEAVPxClothParticleData@2@V?$PxFlags@W4Enum@PxDataAccessFlag@physx@@E@2@@Z 0000000180052410 f   NpCloth.obj
 0001:00051530       ?lockParticleData@NpCloth@physx@@UEBAPEAVPxClothParticleData@2@XZ 0000000180052530 f   NpCloth.obj
 0001:00051560       ?getPreviousTimeStep@NpCloth@physx@@UEBAMXZ 0000000180052560 f   NpCloth.obj
 0001:00051600       ?getWorldBounds@NpCloth@physx@@UEBA?AVPxBounds3@2@M@Z 0000000180052600 f   NpCloth.obj
 0001:000517c0       ?setSimulationFilterData@NpCloth@physx@@UEAAXAEBUPxFilterData@2@@Z 00000001800527c0 f   NpCloth.obj
 0001:00051860       ?getSimulationFilterData@NpCloth@physx@@UEBA?AUPxFilterData@2@XZ 0000000180052860 f   NpCloth.obj
 0001:00051910       ?setContactOffset@NpCloth@physx@@UEAAXM@Z 0000000180052910 f   NpCloth.obj
 0001:000519b0       ?getContactOffset@NpCloth@physx@@UEBAMXZ 00000001800529b0 f   NpCloth.obj
 0001:00051a50       ?setRestOffset@NpCloth@physx@@UEAAXM@Z 0000000180052a50 f   NpCloth.obj
 0001:00051af0       ?getRestOffset@NpCloth@physx@@UEBAMXZ 0000000180052af0 f   NpCloth.obj
 0001:00051b90       ?checkParticles@NpCloth@physx@@SA_NIPEBUPxClothParticle@2@@Z 0000000180052b90 f   NpCloth.obj
 0001:00051c40       ?checkMotionConstraints@NpCloth@physx@@SA_NIPEBUPxClothParticleMotionConstraint@2@@Z 0000000180052c40 f   NpCloth.obj
 0001:00051cf0       ?checkSeparationConstraints@NpCloth@physx@@SA_NIPEBUPxClothParticleSeparationConstraint@2@@Z 0000000180052cf0 f   NpCloth.obj
 0001:00051da0       ?checkParticleAccelerations@NpCloth@physx@@SA_NIPEBVPxVec4@2@@Z 0000000180052da0 f   NpCloth.obj
 0001:00051e60       ?checkCollisionSpheres@NpCloth@physx@@SA_NIPEBUPxClothCollisionSphere@2@@Z 0000000180052e60 f   NpCloth.obj
 0001:00051f10       ?checkCollisionSpherePairs@NpCloth@physx@@SA_NIIPEBI@Z 0000000180052f10 f   NpCloth.obj
 0001:00051f50       ?checkVirtualParticles@NpCloth@physx@@SA_NIIPEBIIPEBVPxVec3@2@@Z 0000000180052f50 f   NpCloth.obj
 0001:00052030       ?visualize@NpCloth@physx@@UEAAXAEAVRenderOutput@Cm@2@PEAVNpScene@2@@Z 0000000180053030 f   NpCloth.obj
 0001:00052ca0       ?unlockParticleData@NpCloth@physx@@QEAAXXZ 0000000180053ca0 f   NpCloth.obj
 0001:00052cb0       ?sendPvdSimpleProperties@NpCloth@physx@@AEAAXXZ 0000000180053cb0 f   NpCloth.obj
 0001:00052d20       ?sendPvdMotionConstraints@NpCloth@physx@@AEAAXXZ 0000000180053d20 f   NpCloth.obj
 0001:00052d90       ?sendPvdSeparationConstraints@NpCloth@physx@@AEAAXXZ 0000000180053d90 f   NpCloth.obj
 0001:00052e00       ?sendPvdCollisionSpheres@NpCloth@physx@@AEAAXXZ 0000000180053e00 f   NpCloth.obj
 0001:00052e70       ?sendPvdCollisionCapsules@NpCloth@physx@@AEAAXXZ 0000000180053e70 f   NpCloth.obj
 0001:00052ee0       ?sendPvdCollisionTriangles@NpCloth@physx@@AEAAXXZ 0000000180053ee0 f   NpCloth.obj
 0001:00052f50       ?sendPvdVirtualParticles@NpCloth@physx@@AEAAXXZ 0000000180053f50 f   NpCloth.obj
 0001:00052fc0       ?sendPvdSelfCollisionIndices@NpCloth@physx@@AEAAXXZ 0000000180053fc0 f   NpCloth.obj
 0001:00053030       ?sendPvdRestPositions@NpCloth@physx@@AEAAXXZ 0000000180054030 f   NpCloth.obj
 0001:00054d10       ??0?$NpActorTemplate@VPxCloth@physx@@@physx@@QEAA@GV?$PxFlags@W4Enum@PxBaseFlag@physx@@G@1@PEBDPEAX@Z 0000000180055d10 f i NpCloth.obj
 0001:00054d80       ??1?$NpActorTemplate@VPxCloth@physx@@@physx@@UEAA@XZ 0000000180055d80 f i NpCloth.obj
 0001:00054dc0       ??1NpClothParticleData@physx@@UEAA@XZ 0000000180055dc0 f i NpCloth.obj
 0001:00054dd0       ??1PxCloth@physx@@MEAA@XZ  0000000180055dd0 f i NpCloth.obj
 0001:00054de0       ??_G?$NpActorTemplate@VPxCloth@physx@@@physx@@UEAAPEAXI@Z 0000000180055de0 f i NpCloth.obj
 0001:00054de0       ??_E?$NpActorTemplate@VPxCloth@physx@@@physx@@UEAAPEAXI@Z 0000000180055de0 f i NpCloth.obj
 0001:00054e80       ??_ENpCloth@physx@@UEAAPEAXI@Z 0000000180055e80 f i NpCloth.obj
 0001:00054e80       ??_GNpCloth@physx@@UEAAPEAXI@Z 0000000180055e80 f i NpCloth.obj
 0001:00054fa0       ??_ENpClothParticleData@physx@@UEAAPEAXI@Z 0000000180055fa0 f i NpCloth.obj
 0001:00054fa0       ??_GNpClothParticleData@physx@@UEAAPEAXI@Z 0000000180055fa0 f i NpCloth.obj
 0001:00055000       ??_EPxCloth@physx@@MEAAPEAXI@Z 0000000180056000 f i NpCloth.obj
 0001:00055000       ??_GPxCloth@physx@@MEAAPEAXI@Z 0000000180056000 f i NpCloth.obj
 0001:00055040       ??_GPxClothParticleData@physx@@UEAAPEAXI@Z 0000000180056040 f i NpCloth.obj
 0001:00055040       ??_EPxClothParticleData@physx@@UEAAPEAXI@Z 0000000180056040 f i NpCloth.obj
 0001:00055080       ?exportExtraData@?$NpActorTemplate@VPxCloth@physx@@@physx@@UEAAXAEAVPxSerializationContext@2@@Z 0000000180056080 f i NpCloth.obj
 0001:00055090       ?exportExtraData@NpCloth@physx@@UEAAXAEAVPxSerializationContext@2@@Z 0000000180056090 f i NpCloth.obj
 0001:000550a0       ?getActorFlags@?$NpActorTemplate@VPxCloth@physx@@@physx@@UEBA?AV?$PxFlags@W4Enum@PxActorFlag@physx@@E@2@XZ 00000001800560a0 f i NpCloth.obj
 0001:00055140       ?getAggregate@?$NpActorTemplate@VPxCloth@physx@@@physx@@UEBAPEAVPxAggregate@2@XZ 0000000180056140 f i NpCloth.obj
 0001:00055150       ?getClientBehaviorFlags@?$NpActorTemplate@VPxCloth@physx@@@physx@@UEBA?AV?$PxFlags@W4Enum@PxActorClientBehaviorFlag@physx@@E@2@XZ 0000000180056150 f i NpCloth.obj
 0001:000551f0       ?getClothFlags@Cloth@Scb@physx@@QEBA?AV?$PxFlags@W4Enum@PxClothFlag@physx@@G@3@XZ 00000001800561f0 f i NpCloth.obj
 0001:00055280       ?getConcreteTypeName@PxCloth@physx@@UEBAPEBDXZ 0000000180056280 f i NpCloth.obj
 0001:00055290       ?getDataAccessFlags@NpClothParticleData@physx@@UEAA?AV?$PxFlags@W4Enum@PxDataAccessFlag@physx@@E@2@XZ 0000000180056290 f i NpCloth.obj
 0001:000552a0       ?getDominanceGroup@?$NpActorTemplate@VPxCloth@physx@@@physx@@UEBAEXZ 00000001800562a0 f i NpCloth.obj
 0001:00055350       ?getName@?$NpActorTemplate@VPxCloth@physx@@@physx@@UEBAPEBDXZ 0000000180056350 f i NpCloth.obj
 0001:000553a0       ?getNbCollisionCapsules@Cloth@Scb@physx@@QEBAIXZ 00000001800563a0 f i NpCloth.obj
 0001:00055420       ?getNbCollisionPlanes@Cloth@Scb@physx@@QEBAIXZ 0000000180056420 f i NpCloth.obj
 0001:000554a0       ?getNbCollisionSpheres@Cloth@Scb@physx@@QEBAIXZ 00000001800564a0 f i NpCloth.obj
 0001:00055520       ?getOwnerClient@?$NpActorTemplate@VPxCloth@physx@@@physx@@UEBAEXZ 0000000180056520 f i NpCloth.obj
 0001:00055560       ?getScene@?$NpActorTemplate@VPxCloth@physx@@@physx@@UEBAPEAVPxScene@2@XZ 0000000180056560 f i NpCloth.obj
 0001:00055570       ?isFinite@PxQuat@physx@@QEBA_NXZ 0000000180056570 f i NpCloth.obj
 0001:00055600       ?isKindOf@PxCloth@physx@@MEBA_NPEBD@Z 0000000180056600 f i NpCloth.obj
 0001:000556a0       ?recreate@?$Array@IVNamedAllocator@shdfnd@physx@@@shdfnd@physx@@IEAAXI@Z 00000001800566a0 f i NpCloth.obj
 0001:000557b0       ?recreate@?$Array@UPxClothFabricPhase@physx@@VNamedAllocator@shdfnd@2@@shdfnd@physx@@IEAAXI@Z 00000001800567b0 f i NpCloth.obj
 0001:000558c0       ?recreate@?$Array@VPxVec3@physx@@VNamedAllocator@shdfnd@2@@shdfnd@physx@@IEAAXI@Z 00000001800568c0 f i NpCloth.obj
 0001:00055a60       ?release@?$NpActorTemplate@VPxCloth@physx@@@physx@@UEAAXXZ 0000000180056a60 f i NpCloth.obj
 0001:00055a70       ?resize@?$Array@IVNamedAllocator@shdfnd@physx@@@shdfnd@physx@@QEAAXIAEBI@Z 0000000180056a70 f i NpCloth.obj
 0001:00055b80       ?resize@?$Array@UPxClothFabricPhase@physx@@VNamedAllocator@shdfnd@2@@shdfnd@physx@@QEAAXIAEBUPxClothFabricPhase@3@@Z 0000000180056b80 f i NpCloth.obj
 0001:00055c90       ?resize@?$Array@VPxVec3@physx@@VNamedAllocator@shdfnd@2@@shdfnd@physx@@QEAAXIAEBVPxVec3@3@@Z 0000000180056c90 f i NpCloth.obj
 0001:00055db0       ?resolveReferences@?$NpActorTemplate@VPxCloth@physx@@@physx@@UEAAXAEAVPxDeserializationContext@2@@Z 0000000180056db0 f i NpCloth.obj
 0001:00055dc0       ?setActorFlag@?$NpActorTemplate@VPxCloth@physx@@@physx@@UEAAXW4Enum@PxActorFlag@2@_N@Z 0000000180056dc0 f i NpCloth.obj
 0001:00055ed0       ?setActorFlags@?$NpActorTemplate@VPxCloth@physx@@@physx@@UEAAXV?$PxFlags@W4Enum@PxActorFlag@physx@@E@2@@Z 0000000180056ed0 f i NpCloth.obj
 0001:00055f50       ?setAngularInertiaScale@Cloth@Scb@physx@@QEAAXVPxVec3@3@@Z 0000000180056f50 f i NpCloth.obj
 0001:00056000       ?setClientBehaviorFlags@?$NpActorTemplate@VPxCloth@physx@@@physx@@UEAAXV?$PxFlags@W4Enum@PxActorClientBehaviorFlag@physx@@E@2@@Z 0000000180057000 f i NpCloth.obj
 0001:00056110       ?setDominanceGroup@?$NpActorTemplate@VPxCloth@physx@@@physx@@UEAAXE@Z 0000000180057110 f i NpCloth.obj
 0001:00056230       ?setLinearInertiaScale@Cloth@Scb@physx@@QEAAXVPxVec3@3@@Z 0000000180057230 f i NpCloth.obj
 0001:000562e0       ?setName@?$NpActorTemplate@VPxCloth@physx@@@physx@@UEAAXPEBD@Z 00000001800572e0 f i NpCloth.obj
 0001:00056380       ?setOwnerClient@?$NpActorTemplate@VPxCloth@physx@@@physx@@UEAAXE@Z 0000000180057380 f i NpCloth.obj
 0001:000564c0       ?onRefCountZero@NpClothFabric@physx@@UEAAXXZ 00000001800574c0 f   NpClothFabric.obj
 0001:00056570       ?exportExtraData@NpClothFabric@physx@@UEAAXAEAVPxSerializationContext@2@@Z 0000000180057570 f   NpClothFabric.obj
 0001:00056580       ?importExtraData@NpClothFabric@physx@@QEAAXAEAVPxDeserializationContext@2@@Z 0000000180057580 f   NpClothFabric.obj
 0001:00056590       ?createObject@NpClothFabric@physx@@SAPEAV12@AEAPEAEAEAVPxDeserializationContext@2@@Z 0000000180057590 f   NpClothFabric.obj
 0001:00056640       ??0NpClothFabric@physx@@QEAA@XZ 0000000180057640 f   NpClothFabric.obj
 0001:000566b0       ?load@NpClothFabric@physx@@QEAA_NAEAVPxInputStream@2@@Z 00000001800576b0 f   NpClothFabric.obj
 0001:000566c0       ?load@NpClothFabric@physx@@QEAA_NAEBVPxClothFabricDesc@2@@Z 00000001800576c0 f   NpClothFabric.obj
 0001:000566d0       ?release@NpClothFabric@physx@@UEAAXXZ 00000001800576d0 f   NpClothFabric.obj
 0001:00056710       ?getNbParticles@NpClothFabric@physx@@UEBAIXZ 0000000180057710 f   NpClothFabric.obj
 0001:00056720       ?getNbPhases@NpClothFabric@physx@@UEBAIXZ 0000000180057720 f   NpClothFabric.obj
 0001:00056730       ?getNbSets@NpClothFabric@physx@@UEBAIXZ 0000000180057730 f   NpClothFabric.obj
 0001:00056740       ?getNbParticleIndices@NpClothFabric@physx@@UEBAIXZ 0000000180057740 f   NpClothFabric.obj
 0001:00056750       ?getNbRestvalues@NpClothFabric@physx@@UEBAIXZ 0000000180057750 f   NpClothFabric.obj
 0001:00056760       ?getNbTethers@NpClothFabric@physx@@UEBAIXZ 0000000180057760 f   NpClothFabric.obj
 0001:00056770       ?getPhases@NpClothFabric@physx@@UEBAIPEAUPxClothFabricPhase@2@I@Z 0000000180057770 f   NpClothFabric.obj
 0001:00056780       ?getSets@NpClothFabric@physx@@UEBAIPEAII@Z 0000000180057780 f   NpClothFabric.obj
 0001:00056790       ?getParticleIndices@NpClothFabric@physx@@UEBAIPEAII@Z 0000000180057790 f   NpClothFabric.obj
 0001:000567a0       ?getRestvalues@NpClothFabric@physx@@UEBAIPEAMI@Z 00000001800577a0 f   NpClothFabric.obj
 0001:000567b0       ?getTetherAnchors@NpClothFabric@physx@@UEBAIPEAII@Z 00000001800577b0 f   NpClothFabric.obj
 0001:000567c0       ?getTetherLengths@NpClothFabric@physx@@UEBAIPEAMI@Z 00000001800577c0 f   NpClothFabric.obj
 0001:000567d0       ?getPhaseType@NpClothFabric@physx@@QEBA?AW4Enum@PxClothFabricPhaseType@2@I@Z 00000001800577d0 f   NpClothFabric.obj
 0001:000567e0       ?scaleRestlengths@NpClothFabric@physx@@UEAAXM@Z 00000001800577e0 f   NpClothFabric.obj
 0001:000567f0       ?getReferenceCount@NpClothFabric@physx@@UEBAIXZ 00000001800577f0 f   NpClothFabric.obj
 0001:00056800       ?acquireReference@NpClothFabric@physx@@UEAAXXZ 0000000180057800 f   NpClothFabric.obj
 0001:00056820       ??1NpClothFabric@physx@@UEAA@XZ 0000000180057820 f   NpClothFabric.obj
 0001:00056950       ??1PxClothFabric@physx@@MEAA@XZ 0000000180057950 f i NpClothFabric.obj
 0001:00056960       ??1RefCountable@Cm@physx@@UEAA@XZ 0000000180057960 f i NpClothFabric.obj
 0001:00056970       ??_ENpClothFabric@physx@@WBA@EAAPEAXI@Z 0000000180057970 f i NpClothFabric.obj
 0001:00056980       ??_ENpClothFabric@physx@@UEAAPEAXI@Z 0000000180057980 f i NpClothFabric.obj
 0001:00056980       ??_GNpClothFabric@physx@@UEAAPEAXI@Z 0000000180057980 f i NpClothFabric.obj
 0001:00056a30       ??_GPxClothFabric@physx@@MEAAPEAXI@Z 0000000180057a30 f i NpClothFabric.obj
 0001:00056a30       ??_EPxClothFabric@physx@@MEAAPEAXI@Z 0000000180057a30 f i NpClothFabric.obj
 0001:00056a70       ??_GRefCountable@Cm@physx@@UEAAPEAXI@Z 0000000180057a70 f i NpClothFabric.obj
 0001:00056a70       ??_ERefCountable@Cm@physx@@UEAAPEAXI@Z 0000000180057a70 f i NpClothFabric.obj
 0001:00056ab0       ?getConcreteTypeName@PxClothFabric@physx@@UEBAPEBDXZ 0000000180057ab0 f i NpClothFabric.obj
 0001:00056ac0       ?isKindOf@PxClothFabric@physx@@MEBA_NPEBD@Z 0000000180057ac0 f i NpClothFabric.obj
 0001:00056b20       ?onRefCountZero@RefCountable@Cm@physx@@UEAAXXZ 0000000180057b20 f i NpClothFabric.obj
 0001:00056b40       ?requires@NpClothFabric@physx@@UEAAXAEAVPxProcessPxBaseCallback@2@@Z 0000000180057b40 f i NpClothFabric.obj
 0001:00056b50       ?unlock@NpClothParticleData@physx@@UEAAXXZ 0000000180057b50 f   NpClothParticleData.obj
 0001:00056ba0       ?tryLock@NpClothParticleData@physx@@QEAA_NV?$PxFlags@W4Enum@PxDataAccessFlag@physx@@E@2@@Z 0000000180057ba0 f   NpClothParticleData.obj
 0001:00056be0       PxConstructSolverBodies    0000000180057be0 f   NpImmediateMode.obj
 0001:00056eb0       PxConstructStaticSolverBody 0000000180057eb0 f   NpImmediateMode.obj
 0001:00056f20       PxBatchConstraints         0000000180057f20 f   NpImmediateMode.obj
 0001:000571c0       PxCreateContactConstraints 00000001800581c0 f   NpImmediateMode.obj
 0001:00057440       PxCreateJointConstraints   0000000180058440 f   NpImmediateMode.obj
 0001:000575e0       PxCreateJointConstraintsWithShaders 00000001800585e0 f   NpImmediateMode.obj
 0001:00057830       PxSolveConstraints         0000000180058830 f   NpImmediateMode.obj
 0001:00057b80       PxIntegrateSolverBodies    0000000180058b80 f   NpImmediateMode.obj
 0001:00058070       PxGenerateContacts         0000000180059070 f   NpImmediateMode.obj
 0001:00058620       ?createCache@physx@@YAXAEAUCache@Gu@1@W4Enum@PxGeometryType@1@1AEAVPxCacheAllocator@1@@Z 0000000180059620 f   NpImmediateMode.obj
 0001:00059320       ??0ContactPatchData@CorrelationBuffer@Dy@physx@@QEAA@XZ 000000018005a320 f i NpImmediateMode.obj
 0001:00059330       ??0ContactPoint@Gu@physx@@QEAA@XZ 000000018005a330 f i NpImmediateMode.obj
 0001:00059340       ??0FrictionPatch@Dy@physx@@QEAA@XZ 000000018005a340 f i NpImmediateMode.obj
 0001:00059350       ??0PersistentContact@Gu@physx@@QEAA@XZ 000000018005a350 f i NpImmediateMode.obj
 0001:00059360       ??0Px1DConstraint@physx@@QEAA@XZ 000000018005a360 f i NpImmediateMode.obj
 0001:00059370       ??0PxBounds3@physx@@QEAA@XZ 000000018005a370 f i NpImmediateMode.obj
 0001:00059380       ?exportExtraData@NpActor@physx@@QEAAXAEAVPxSerializationContext@2@@Z 000000018005a380 f   NpActor.obj
 0001:00059550       ?importExtraData@NpActor@physx@@QEAAXAEAVPxDeserializationContext@2@@Z 000000018005a550 f   NpActor.obj
 0001:00059620       ?resolveReferences@NpActor@physx@@QEAAXAEAVPxDeserializationContext@2@@Z 000000018005a620 f   NpActor.obj
 0001:000596b0       ??0NpActor@physx@@QEAA@PEBD@Z 000000018005a6b0 f   NpActor.obj
 0001:000596d0       ?releaseConstraints@NpActor@physx@@QEAAXAEAVPxRigidActor@2@@Z 000000018005a6d0 f   NpActor.obj
 0001:00059800       ?release@NpActor@physx@@QEAAXAEAVPxActor@2@@Z 000000018005a800 f   NpActor.obj
 0001:00059820       ?getNpAggregate@NpActor@physx@@QEBAPEAVNpAggregate@2@AEAI@Z 000000018005a820 f   NpActor.obj
 0001:00059870       ?setAggregate@NpActor@physx@@QEAAXPEAVNpAggregate@2@AEAVPxActor@2@@Z 000000018005a870 f   NpActor.obj
 0001:00059900       ?getAggregate@NpActor@physx@@QEBAPEAVPxAggregate@2@XZ 000000018005a900 f   NpActor.obj
 0001:00059950       ?removeConstraintsFromScene@NpActor@physx@@QEAAXXZ 000000018005a950 f   NpActor.obj
 0001:00059a00       ?findConnector@NpActor@physx@@QEBAIW4Enum@NpConnectorType@2@PEAVPxBase@2@@Z 000000018005aa00 f   NpActor.obj
 0001:00059a50       ?addConnector@NpActor@physx@@QEAAXW4Enum@NpConnectorType@2@PEAVPxBase@2@PEBD@Z 000000018005aa50 f   NpActor.obj
 0001:00059c40       ?removeConnector@NpActor@physx@@QEAAXAEAVPxActor@2@W4Enum@NpConnectorType@2@PEAVPxBase@2@PEBD@Z 000000018005ac40 f   NpActor.obj
 0001:00059d30       ?getNbConnectors@NpActor@physx@@QEBAIW4Enum@NpConnectorType@2@@Z 000000018005ad30 f   NpActor.obj
 0001:00059d70       ?getShapeManager@NpActor@physx@@SAPEAVNpShapeManager@2@AEAVPxRigidActor@2@@Z 000000018005ad70 f   NpActor.obj
 0001:00059da0       ?getShapeManager@NpActor@physx@@SAPEBVNpShapeManager@2@AEBVPxRigidActor@2@@Z 000000018005ada0 f   NpActor.obj
 0001:00059dd0       ?getGlobalPose@NpActor@physx@@SAXAEAVPxTransform@2@AEBVNpShape@2@AEBVPxRigidActor@2@@Z 000000018005add0 f   NpActor.obj
 0001:00059e00       ?getGlobalPose@NpActor@physx@@SAXAEAVPxTransform@2@AEBVShape@Scb@2@AEBVActor@52@@Z 000000018005ae00 f   NpActor.obj
 0001:0005a360       ?getAPIScene@NpActor@physx@@SAPEAVNpScene@2@AEBVPxActor@2@@Z 000000018005b360 f   NpActor.obj
 0001:0005a3a0       ?getOwnerScene@NpActor@physx@@SAPEAVNpScene@2@AEBVPxActor@2@@Z 000000018005b3a0 f   NpActor.obj
 0001:0005a3d0       ?onActorRelease@NpActor@physx@@SAXPEAVPxActor@2@@Z 000000018005b3d0 f   NpActor.obj
 0001:0005a3f0       ??1NpActor@physx@@IEAA@XZ  000000018005b3f0 f   NpActor.obj
 0001:0005a400       ?addConstraintsToSceneInternal@NpActor@physx@@AEAAXXZ 000000018005b400 f   NpActor.obj
 0001:0005a4d0       ?removeConnector@NpActor@physx@@AEAAXAEAVPxActor@2@I@Z 000000018005b4d0 f   NpActor.obj
 0001:0005a550       ??0Offsets@NpActor@physx@@QEAA@XZ 000000018005b550 f   NpActor.obj
 0001:0005ab20       ??$exportArray@VNpConnector@physx@@V?$InlineAllocator@$0EA@VNamedAllocator@shdfnd@physx@@@shdfnd@2@@Cm@physx@@YAXAEBV?$Array@VNpConnector@physx@@V?$InlineAllocator@$0EA@VNamedAllocator@shdfnd@physx@@@shdfnd@2@@shdfnd@1@AEAVPxSerializationContext@1@@Z 000000018005bb20 f i NpActor.obj
 0001:0005ab60       ??$exportInlineArray@VNpConnector@physx@@$03VNamedAllocator@shdfnd@2@@Cm@physx@@YAXAEBV?$InlineArray@VNpConnector@physx@@$03VNamedAllocator@shdfnd@2@@shdfnd@1@AEAVPxSerializationContext@1@@Z 000000018005bb60 f i NpActor.obj
 0001:0005abb0       ??$importArray@VNpConnector@physx@@V?$InlineAllocator@$0EA@VNamedAllocator@shdfnd@physx@@@shdfnd@2@@Cm@physx@@YAXAEAV?$Array@VNpConnector@physx@@V?$InlineAllocator@$0EA@VNamedAllocator@shdfnd@physx@@@shdfnd@2@@shdfnd@1@AEAVPxDeserializationContext@1@@Z 000000018005bbb0 f i NpActor.obj
 0001:0005ac00       ??$importInlineArray@VNpConnector@physx@@$03VNamedAllocator@shdfnd@2@@Cm@physx@@YAXAEAV?$InlineArray@VNpConnector@physx@@$03VNamedAllocator@shdfnd@2@@shdfnd@1@AEAVPxDeserializationContext@1@@Z 000000018005bc00 f i NpActor.obj
 0001:0005ac50       ?allocate@?$Array@VNpConnector@physx@@V?$InlineAllocator@$0EA@VNamedAllocator@shdfnd@physx@@@shdfnd@2@@shdfnd@physx@@IEAAPEAVNpConnector@3@I@Z 000000018005bc50 f i NpActor.obj
 0001:0005ace0       ?create@?$HashBase@PEAVPxConstraint@physx@@PEAV12@U?$Hash@PEAVPxConstraint@physx@@@shdfnd@2@UGetKey@?$HashSetBase@PEAVPxConstraint@physx@@U?$Hash@PEAVPxConstraint@physx@@@shdfnd@2@VNonTrackingAllocator@42@$00@internal@42@VNonTrackingAllocator@42@$00@internal@shdfnd@physx@@QEAAPEAPEAVPxConstraint@4@AEBQEAV54@AEA_N@Z 000000018005bce0 f i NpActor.obj
 0001:0005aee0       ?erase@?$HashBase@PEAVPxConstraint@physx@@PEAV12@U?$Hash@PEAVPxConstraint@physx@@@shdfnd@2@UGetKey@?$HashSetBase@PEAVPxConstraint@physx@@U?$Hash@PEAVPxConstraint@physx@@@shdfnd@2@VNonTrackingAllocator@42@$00@internal@42@VNonTrackingAllocator@42@$00@internal@shdfnd@physx@@QEAA_NAEBQEAVPxConstraint@4@@Z 000000018005bee0 f i NpActor.obj
 0001:0005b0c0       ?growAndPushBack@?$Array@VNpConnector@physx@@V?$InlineAllocator@$0EA@VNamedAllocator@shdfnd@physx@@@shdfnd@2@@shdfnd@physx@@IEAAAEAVNpConnector@3@AEBV43@@Z 000000018005c0c0 f i NpActor.obj
 0001:0005b220       ?recreate@?$Array@VNpConnector@physx@@V?$InlineAllocator@$0EA@VNamedAllocator@shdfnd@physx@@@shdfnd@2@@shdfnd@physx@@IEAAXI@Z 000000018005c220 f i NpActor.obj
 0001:0005b320       ?reserveInternal@?$HashBase@PEAVPxConstraint@physx@@PEAV12@U?$Hash@PEAVPxConstraint@physx@@@shdfnd@2@UGetKey@?$HashSetBase@PEAVPxConstraint@physx@@U?$Hash@PEAVPxConstraint@physx@@@shdfnd@2@VNonTrackingAllocator@42@$00@internal@42@VNonTrackingAllocator@42@$00@internal@shdfnd@physx@@AEAAXI@Z 000000018005c320 f i NpActor.obj
 0001:0005b570       ?resizeUninitialized@?$Array@VNpConnector@physx@@V?$InlineAllocator@$0EA@VNamedAllocator@shdfnd@physx@@@shdfnd@2@@shdfnd@physx@@QEAAXI@Z 000000018005c570 f i NpActor.obj
 0001:0005b5c0       ?exportExtraData@NpAggregate@physx@@UEAAXAEAVPxSerializationContext@2@@Z 000000018005c5c0 f   NpAggregate.obj
 0001:0005b610       ?importExtraData@NpAggregate@physx@@QEAAXAEAVPxDeserializationContext@2@@Z 000000018005c610 f   NpAggregate.obj
 0001:0005b640       ?resolveReferences@NpAggregate@physx@@QEAAXAEAVPxDeserializationContext@2@@Z 000000018005c640 f   NpAggregate.obj
 0001:0005b750       ?requires@NpAggregate@physx@@UEAAXAEAVPxProcessPxBaseCallback@2@@Z 000000018005c750 f   NpAggregate.obj
 0001:0005b7c0       ?createObject@NpAggregate@physx@@SAPEAV12@AEAPEAEAEAVPxDeserializationContext@2@@Z 000000018005c7c0 f   NpAggregate.obj
 0001:0005b920       ??0NpAggregate@physx@@QEAA@I_N@Z 000000018005c920 f   NpAggregate.obj
 0001:0005b9c0       ??1NpAggregate@physx@@UEAA@XZ 000000018005c9c0 f   NpAggregate.obj
 0001:0005ba40       ?release@NpAggregate@physx@@UEAAXXZ 000000018005ca40 f   NpAggregate.obj
 0001:0005bbe0       ?addActor@NpAggregate@physx@@UEAA_NAEAVPxActor@2@@Z 000000018005cbe0 f   NpAggregate.obj
 0001:0005be10       ?removeActor@NpAggregate@physx@@UEAA_NAEAVPxActor@2@@Z 000000018005ce10 f   NpAggregate.obj
 0001:0005bf80       ?addArticulation@NpAggregate@physx@@UEAA_NAEAVPxArticulation@2@@Z 000000018005cf80 f   NpAggregate.obj
 0001:0005c1a0       ?removeArticulation@NpAggregate@physx@@UEAA_NAEAVPxArticulation@2@@Z 000000018005d1a0 f   NpAggregate.obj
 0001:0005c330       ?getNbActors@NpAggregate@physx@@UEBAIXZ 000000018005d330 f   NpAggregate.obj
 0001:0005c380       ?getMaxNbActors@NpAggregate@physx@@UEBAIXZ 000000018005d380 f   NpAggregate.obj
 0001:0005c3d0       ?getActors@NpAggregate@physx@@UEBAIPEAPEAVPxActor@2@II@Z 000000018005d3d0 f   NpAggregate.obj
 0001:0005c4a0       ?getScene@NpAggregate@physx@@UEAAPEAVPxScene@2@XZ 000000018005d4a0 f   NpAggregate.obj
 0001:0005c4e0       ?getSelfCollision@NpAggregate@physx@@UEBA_NXZ 000000018005d4e0 f   NpAggregate.obj
 0001:0005c530       ?getAPIScene@NpAggregate@physx@@QEBAPEAVNpScene@2@XZ 000000018005d530 f   NpAggregate.obj
 0001:0005c570       ?getOwnerScene@NpAggregate@physx@@QEBAPEAVNpScene@2@XZ 000000018005d570 f   NpAggregate.obj
 0001:0005c590       ?addActorInternal@NpAggregate@physx@@QEAAXAEAVPxActor@2@AEAVNpScene@2@@Z 000000018005d590 f   NpAggregate.obj
 0001:0005c680       ?removeAndReinsert@NpAggregate@physx@@QEAAXAEAVPxActor@2@_N@Z 000000018005d680 f   NpAggregate.obj
 0001:0005c6f0       ?removeActorAndReinsert@NpAggregate@physx@@QEAA_NAEAVPxActor@2@_N@Z 000000018005d6f0 f   NpAggregate.obj
 0001:0005c7d0       ?removeArticulationAndReinsert@NpAggregate@physx@@QEAA_NAEAVPxArticulation@2@_N@Z 000000018005d7d0 f   NpAggregate.obj
 0001:0005cde0       ??$pointerOffset@PEAVNpActor@physx@@@shdfnd@physx@@YAPEAVNpActor@1@PEAX_J@Z 000000018005dde0 f i NpAggregate.obj
 0001:0005cdf0       ??1PxAggregate@physx@@MEAA@XZ 000000018005ddf0 f i NpAggregate.obj
 0001:0005ce00       ??_ENpAggregate@physx@@UEAAPEAXI@Z 000000018005de00 f i NpAggregate.obj
 0001:0005ce00       ??_GNpAggregate@physx@@UEAAPEAXI@Z 000000018005de00 f i NpAggregate.obj
 0001:0005ced0       ??_GPxAggregate@physx@@MEAAPEAXI@Z 000000018005ded0 f i NpAggregate.obj
 0001:0005ced0       ??_EPxAggregate@physx@@MEAAPEAXI@Z 000000018005ded0 f i NpAggregate.obj
 0001:0005cf10       ?erase@?$HashBase@PEAVPxAggregate@physx@@PEAV12@U?$Hash@PEAVPxAggregate@physx@@@shdfnd@2@UGetKey@?$HashSetBase@PEAVPxAggregate@physx@@U?$Hash@PEAVPxAggregate@physx@@@shdfnd@2@VNonTrackingAllocator@42@$00@internal@42@VNonTrackingAllocator@42@$00@internal@shdfnd@physx@@QEAA_NAEBQEAVPxAggregate@4@@Z 000000018005df10 f i NpAggregate.obj
 0001:0005d0f0       ?getConcreteTypeName@PxAggregate@physx@@UEBAPEBDXZ 000000018005e0f0 f i NpAggregate.obj
 0001:0005d100       ?isKindOf@PxAggregate@physx@@MEBA_NPEBD@Z 000000018005e100 f i NpAggregate.obj
 0001:0005d160       ?NpArticulationGetRootFromScb@physx@@YAPEAVBody@Scb@1@AEAVArticulation@31@@Z 000000018005e160 f   NpArticulation.obj
 0001:0005d190       ??1NpArticulation@physx@@UEAA@XZ 000000018005e190 f   NpArticulation.obj
 0001:0005d210       ?exportExtraData@NpArticulation@physx@@UEAAXAEAVPxSerializationContext@2@@Z 000000018005e210 f   NpArticulation.obj
 0001:0005d280       ?importExtraData@NpArticulation@physx@@QEAAXAEAVPxDeserializationContext@2@@Z 000000018005e280 f   NpArticulation.obj
 0001:0005d300       ?resolveReferences@NpArticulation@physx@@QEAAXAEAVPxDeserializationContext@2@@Z 000000018005e300 f   NpArticulation.obj
 0001:0005d3a0       ?requires@NpArticulation@physx@@UEAAXAEAVPxProcessPxBaseCallback@2@@Z 000000018005e3a0 f   NpArticulation.obj
 0001:0005d410       ?createObject@NpArticulation@physx@@SAPEAV12@AEAPEAEAEAVPxDeserializationContext@2@@Z 000000018005e410 f   NpArticulation.obj
 0001:0005d570       ?release@NpArticulation@physx@@UEAAXXZ 000000018005e570 f   NpArticulation.obj
 0001:0005d6b0       ?getScene@NpArticulation@physx@@UEBAPEAVPxScene@2@XZ 000000018005e6b0 f   NpArticulation.obj
 0001:0005d6f0       ?getInternalDriveIterations@NpArticulation@physx@@UEBAIXZ 000000018005e6f0 f   NpArticulation.obj
 0001:0005d760       ?setInternalDriveIterations@NpArticulation@physx@@UEAAXI@Z 000000018005e760 f   NpArticulation.obj
 0001:0005d840       ?getExternalDriveIterations@NpArticulation@physx@@UEBAIXZ 000000018005e840 f   NpArticulation.obj
 0001:0005d8c0       ?setExternalDriveIterations@NpArticulation@physx@@UEAAXI@Z 000000018005e8c0 f   NpArticulation.obj
 0001:0005d9a0       ?getMaxProjectionIterations@NpArticulation@physx@@UEBAIXZ 000000018005e9a0 f   NpArticulation.obj
 0001:0005da20       ?setMaxProjectionIterations@NpArticulation@physx@@UEAAXI@Z 000000018005ea20 f   NpArticulation.obj
 0001:0005db00       ?getSeparationTolerance@NpArticulation@physx@@UEBAMXZ 000000018005eb00 f   NpArticulation.obj
 0001:0005db70       ?setSeparationTolerance@NpArticulation@physx@@UEAAXM@Z 000000018005eb70 f   NpArticulation.obj
 0001:0005dc50       ?setSleepThreshold@NpArticulation@physx@@UEAAXM@Z 000000018005ec50 f   NpArticulation.obj
 0001:0005dd30       ?getSleepThreshold@NpArticulation@physx@@UEBAMXZ 000000018005ed30 f   NpArticulation.obj
 0001:0005dda0       ?setStabilizationThreshold@NpArticulation@physx@@UEAAXM@Z 000000018005eda0 f   NpArticulation.obj
 0001:0005de80       ?getStabilizationThreshold@NpArticulation@physx@@UEBAMXZ 000000018005ee80 f   NpArticulation.obj
 0001:0005def0       ?setWakeCounter@NpArticulation@physx@@UEAAXM@Z 000000018005eef0 f   NpArticulation.obj
 0001:0005e100       ?getWakeCounter@NpArticulation@physx@@UEBAMXZ 000000018005f100 f   NpArticulation.obj
 0001:0005e160       ?setSolverIterationCounts@NpArticulation@physx@@UEAAXII@Z 000000018005f160 f   NpArticulation.obj
 0001:0005e2f0       ?getSolverIterationCounts@NpArticulation@physx@@UEBAXAEAI0@Z 000000018005f2f0 f   NpArticulation.obj
 0001:0005e380       ?isSleeping@NpArticulation@physx@@UEBA_NXZ 000000018005f380 f   NpArticulation.obj
 0001:0005e470       ?wakeUp@NpArticulation@physx@@UEAAXXZ 000000018005f470 f   NpArticulation.obj
 0001:0005e640       ?putToSleep@NpArticulation@physx@@UEAAXXZ 000000018005f640 f   NpArticulation.obj
 0001:0005e7c0       ?createLink@NpArticulation@physx@@UEAAPEAVPxArticulationLink@2@PEAV32@AEBVPxTransform@2@@Z 000000018005f7c0 f   NpArticulation.obj
 0001:0005eb30       ?getNbLinks@NpArticulation@physx@@UEBAIXZ 000000018005fb30 f   NpArticulation.obj
 0001:0005eb80       ?getLinks@NpArticulation@physx@@UEBAIPEAPEAVPxArticulationLink@2@II@Z 000000018005fb80 f   NpArticulation.obj
 0001:0005ec50       ?getWorldBounds@NpArticulation@physx@@UEBA?AVPxBounds3@2@M@Z 000000018005fc50 f   NpArticulation.obj
 0001:0005ee60       ?getAggregate@NpArticulation@physx@@UEBAPEAVPxAggregate@2@XZ 000000018005fe60 f   NpArticulation.obj
 0001:0005eeb0       ?setName@NpArticulation@physx@@UEAAXPEBD@Z 000000018005feb0 f   NpArticulation.obj
 0001:0005ef10       ?getName@NpArticulation@physx@@UEBAPEBDXZ 000000018005ff10 f   NpArticulation.obj
 0001:0005ef60       ?createDriveCache@NpArticulation@physx@@UEBAPEAVPxArticulationDriveCache@2@MI@Z 000000018005ff60 f   NpArticulation.obj
 0001:0005f070       ?updateDriveCache@NpArticulation@physx@@UEBAXAEAVPxArticulationDriveCache@2@MI@Z 0000000180060070 f   NpArticulation.obj
 0001:0005f210       ?releaseDriveCache@NpArticulation@physx@@UEBAXAEAVPxArticulationDriveCache@2@@Z 0000000180060210 f   NpArticulation.obj
 0001:0005f320       ?applyImpulse@NpArticulation@physx@@UEAAXPEAVPxArticulationLink@2@AEBVPxArticulationDriveCache@2@AEBVPxVec3@2@2@Z 0000000180060320 f   NpArticulation.obj
 0001:0005f650       ?computeImpulseResponse@NpArticulation@physx@@UEBAXPEAVPxArticulationLink@2@AEAVPxVec3@2@1AEBVPxArticulationDriveCache@2@AEBV42@3@Z 0000000180060650 f   NpArticulation.obj
 0001:0005f8c0       ??0NpArticulation@physx@@QEAA@XZ 00000001800608c0 f   NpArticulation.obj
 0001:0005fa30       ?getRoot@NpArticulation@physx@@QEAAPEAVNpArticulationLink@2@XZ 0000000180060a30 f   NpArticulation.obj
 0001:0005fa50       ?getAPIScene@NpArticulation@physx@@QEBAPEAVNpScene@2@XZ 0000000180060a50 f   NpArticulation.obj
 0001:0005fa90       ?getOwnerScene@NpArticulation@physx@@QEBAPEAVNpScene@2@XZ 0000000180060a90 f   NpArticulation.obj
 0001:0005fab0       ?wakeUpInternal@NpArticulation@physx@@QEAAX_N0@Z 0000000180060ab0 f   NpArticulation.obj
 0001:0005fc80       ?visualize@NpArticulation@physx@@QEAAXAEAVRenderOutput@Cm@2@PEAVNpScene@2@@Z 0000000180060c80 f   NpArticulation.obj
 0001:000607d0       ??$exportArray@PEAVNpArticulationLink@physx@@V?$InlineAllocator@$0CA@VNamedAllocator@shdfnd@physx@@@shdfnd@2@@Cm@physx@@YAXAEBV?$Array@PEAVNpArticulationLink@physx@@V?$InlineAllocator@$0CA@VNamedAllocator@shdfnd@physx@@@shdfnd@2@@shdfnd@1@AEAVPxSerializationContext@1@@Z 00000001800617d0 f i NpArticulation.obj
 0001:00060810       ??$exportInlineArray@PEAVNpArticulationLink@physx@@$03VNamedAllocator@shdfnd@2@@Cm@physx@@YAXAEBV?$InlineArray@PEAVNpArticulationLink@physx@@$03VNamedAllocator@shdfnd@2@@shdfnd@1@AEAVPxSerializationContext@1@@Z 0000000180061810 f i NpArticulation.obj
 0001:00060860       ??$importArray@PEAVNpArticulationLink@physx@@V?$InlineAllocator@$0CA@VNamedAllocator@shdfnd@physx@@@shdfnd@2@@Cm@physx@@YAXAEAV?$Array@PEAVNpArticulationLink@physx@@V?$InlineAllocator@$0CA@VNamedAllocator@shdfnd@physx@@@shdfnd@2@@shdfnd@1@AEAVPxDeserializationContext@1@@Z 0000000180061860 f i NpArticulation.obj
 0001:000608a0       ??$importInlineArray@PEAVNpArticulationLink@physx@@$03VNamedAllocator@shdfnd@2@@Cm@physx@@YAXAEAV?$InlineArray@PEAVNpArticulationLink@physx@@$03VNamedAllocator@shdfnd@2@@shdfnd@1@AEAVPxDeserializationContext@1@@Z 00000001800618a0 f i NpArticulation.obj
 0001:000608f0       ??1PxArticulation@physx@@MEAA@XZ 00000001800618f0 f i NpArticulation.obj
 0001:00060900       ??_ENpArticulation@physx@@UEAAPEAXI@Z 0000000180061900 f i NpArticulation.obj
 0001:00060900       ??_GNpArticulation@physx@@UEAAPEAXI@Z 0000000180061900 f i NpArticulation.obj
 0001:00060a00       ??_GPxArticulation@physx@@MEAAPEAXI@Z 0000000180061a00 f i NpArticulation.obj
 0001:00060a00       ??_EPxArticulation@physx@@MEAAPEAXI@Z 0000000180061a00 f i NpArticulation.obj
 0001:00060a40       ?erase@?$HashBase@PEAVPxArticulation@physx@@PEAV12@U?$Hash@PEAVPxArticulation@physx@@@shdfnd@2@UGetKey@?$HashSetBase@PEAVPxArticulation@physx@@U?$Hash@PEAVPxArticulation@physx@@@shdfnd@2@VNonTrackingAllocator@42@$00@internal@42@VNonTrackingAllocator@42@$00@internal@shdfnd@physx@@QEAA_NAEBQEAVPxArticulation@4@@Z 0000000180061a40 f i NpArticulation.obj
 0001:00060c20       ?getConcreteTypeName@PxArticulation@physx@@UEBAPEBDXZ 0000000180061c20 f i NpArticulation.obj
 0001:00060c30       ?isFinite@PxVec3@physx@@QEBA_NXZ 0000000180061c30 f i NpArticulation.obj
 0001:00060ca0       ?isKindOf@PxArticulation@physx@@MEBA_NPEBD@Z 0000000180061ca0 f i NpArticulation.obj
 0001:00060d00       ?wakeUpInternal@Body@Scb@physx@@QEAAXM@Z 0000000180061d00 f i NpArticulation.obj
 0001:00060da0       ?NpArticulationJointGetBodiesFromScb@physx@@YAXAEAVArticulationJoint@Scb@1@AEAPEAVBody@31@1@Z 0000000180061da0 f   NpArticulationJoint.obj
 0001:00060dd0       ?resolveReferences@NpArticulationJoint@physx@@UEAAXAEAVPxDeserializationContext@2@@Z 0000000180061dd0 f   NpArticulationJoint.obj
 0001:00060e50       ?createObject@NpArticulationJoint@physx@@SAPEAV12@AEAPEAEAEAVPxDeserializationContext@2@@Z 0000000180061e50 f   NpArticulationJoint.obj
 0001:00060eb0       ??0NpArticulationJoint@physx@@QEAA@AEAVNpArticulationLink@1@AEBVPxTransform@1@01@Z 0000000180061eb0 f   NpArticulationJoint.obj
 0001:00060f40       ??1NpArticulationJoint@physx@@UEAA@XZ 0000000180061f40 f   NpArticulationJoint.obj
 0001:00060f80       ?getParentPose@NpArticulationJoint@physx@@UEBA?AVPxTransform@2@XZ 0000000180061f80 f   NpArticulationJoint.obj
 0001:000611a0       ?setParentPose@NpArticulationJoint@physx@@UEAAXAEBVPxTransform@2@@Z 00000001800621a0 f   NpArticulationJoint.obj
 0001:00061710       ?getChildPose@NpArticulationJoint@physx@@UEBA?AVPxTransform@2@XZ 0000000180062710 f   NpArticulationJoint.obj
 0001:00061940       ?setChildPose@NpArticulationJoint@physx@@UEAAXAEBVPxTransform@2@@Z 0000000180062940 f   NpArticulationJoint.obj
 0001:00061ea0       ?setTargetOrientation@NpArticulationJoint@physx@@UEAAXAEBVPxQuat@2@@Z 0000000180062ea0 f   NpArticulationJoint.obj
 0001:00062160       ?getTargetOrientation@NpArticulationJoint@physx@@UEBA?AVPxQuat@2@XZ 0000000180063160 f   NpArticulationJoint.obj
 0001:000621e0       ?setTargetVelocity@NpArticulationJoint@physx@@UEAAXAEBVPxVec3@2@@Z 00000001800631e0 f   NpArticulationJoint.obj
 0001:000623a0       ?getTargetVelocity@NpArticulationJoint@physx@@UEBA?AVPxVec3@2@XZ 00000001800633a0 f   NpArticulationJoint.obj
 0001:00062420       ?setDriveType@NpArticulationJoint@physx@@UEAAXW4Enum@PxArticulationJointDriveType@2@@Z 0000000180063420 f   NpArticulationJoint.obj
 0001:00062500       ?getDriveType@NpArticulationJoint@physx@@UEBA?AW4Enum@PxArticulationJointDriveType@2@XZ 0000000180063500 f   NpArticulationJoint.obj
 0001:00062570       ?setStiffness@NpArticulationJoint@physx@@UEAAXM@Z 0000000180063570 f   NpArticulationJoint.obj
 0001:000626e0       ?getStiffness@NpArticulationJoint@physx@@UEBAMXZ 00000001800636e0 f   NpArticulationJoint.obj
 0001:00062750       ?setDamping@NpArticulationJoint@physx@@UEAAXM@Z 0000000180063750 f   NpArticulationJoint.obj
 0001:000628c0       ?getDamping@NpArticulationJoint@physx@@UEBAMXZ 00000001800638c0 f   NpArticulationJoint.obj
 0001:00062930       ?setInternalCompliance@NpArticulationJoint@physx@@UEAAXM@Z 0000000180063930 f   NpArticulationJoint.obj
 0001:00062aa0       ?getInternalCompliance@NpArticulationJoint@physx@@UEBAMXZ 0000000180063aa0 f   NpArticulationJoint.obj
 0001:00062b10       ?setExternalCompliance@NpArticulationJoint@physx@@UEAAXM@Z 0000000180063b10 f   NpArticulationJoint.obj
 0001:00062c90       ?getExternalCompliance@NpArticulationJoint@physx@@UEBAMXZ 0000000180063c90 f   NpArticulationJoint.obj
 0001:00062d00       ?setSwingLimit@NpArticulationJoint@physx@@UEAAXMM@Z 0000000180063d00 f   NpArticulationJoint.obj
 0001:00062f00       ?getSwingLimit@NpArticulationJoint@physx@@UEBAXAEAM0@Z 0000000180063f00 f   NpArticulationJoint.obj
 0001:00062fa0       ?setTangentialStiffness@NpArticulationJoint@physx@@UEAAXM@Z 0000000180063fa0 f   NpArticulationJoint.obj
 0001:00063120       ?getTangentialStiffness@NpArticulationJoint@physx@@UEBAMXZ 0000000180064120 f   NpArticulationJoint.obj
 0001:00063190       ?setTangentialDamping@NpArticulationJoint@physx@@UEAAXM@Z 0000000180064190 f   NpArticulationJoint.obj
 0001:00063310       ?getTangentialDamping@NpArticulationJoint@physx@@UEBAMXZ 0000000180064310 f   NpArticulationJoint.obj
 0001:00063380       ?setSwingLimitEnabled@NpArticulationJoint@physx@@UEAAX_N@Z 0000000180064380 f   NpArticulationJoint.obj
 0001:00063470       ?getSwingLimitEnabled@NpArticulationJoint@physx@@UEBA_NXZ 0000000180064470 f   NpArticulationJoint.obj
 0001:000634f0       ?setSwingLimitContactDistance@NpArticulationJoint@physx@@UEAAXM@Z 00000001800644f0 f   NpArticulationJoint.obj
 0001:00063670       ?getSwingLimitContactDistance@NpArticulationJoint@physx@@UEBAMXZ 0000000180064670 f   NpArticulationJoint.obj
 0001:000636e0       ?setTwistLimit@NpArticulationJoint@physx@@UEAAXMM@Z 00000001800646e0 f   NpArticulationJoint.obj
 0001:000638c0       ?getTwistLimit@NpArticulationJoint@physx@@UEBAXAEAM0@Z 00000001800648c0 f   NpArticulationJoint.obj
 0001:00063960       ?setTwistLimitEnabled@NpArticulationJoint@physx@@UEAAX_N@Z 0000000180064960 f   NpArticulationJoint.obj
 0001:00063a50       ?getTwistLimitEnabled@NpArticulationJoint@physx@@UEBA_NXZ 0000000180064a50 f   NpArticulationJoint.obj
 0001:00063ad0       ?setTwistLimitContactDistance@NpArticulationJoint@physx@@UEAAXM@Z 0000000180064ad0 f   NpArticulationJoint.obj
 0001:00063c50       ?getTwistLimitContactDistance@NpArticulationJoint@physx@@UEBAMXZ 0000000180064c50 f   NpArticulationJoint.obj
 0001:00063cc0       ?release@NpArticulationJoint@physx@@UEAAXXZ 0000000180064cc0 f   NpArticulationJoint.obj
 0001:00063d30       ?getOwnerScene@NpArticulationJoint@physx@@AEBAPEAVNpScene@2@XZ 0000000180064d30 f   NpArticulationJoint.obj
 0001:00064930       ??1PxArticulationJoint@physx@@MEAA@XZ 0000000180065930 f i NpArticulationJoint.obj
 0001:00064940       ??_ENpArticulationJoint@physx@@UEAAPEAXI@Z 0000000180065940 f i NpArticulationJoint.obj
 0001:00064940       ??_GNpArticulationJoint@physx@@UEAAPEAXI@Z 0000000180065940 f i NpArticulationJoint.obj
 0001:000649e0       ??_GPxArticulationJoint@physx@@MEAAPEAXI@Z 00000001800659e0 f i NpArticulationJoint.obj
 0001:000649e0       ??_EPxArticulationJoint@physx@@MEAAPEAXI@Z 00000001800659e0 f i NpArticulationJoint.obj
 0001:00064a20       ?getConcreteTypeName@PxArticulationJoint@physx@@UEBAPEBDXZ 0000000180065a20 f i NpArticulationJoint.obj
 0001:00064a30       ?isKindOf@PxArticulationJoint@physx@@MEBA_NPEBD@Z 0000000180065a30 f i NpArticulationJoint.obj
 0001:00064a90       ?isSubordinate@NpArticulationJoint@physx@@UEBA_NXZ 0000000180065a90 f i NpArticulationJoint.obj
 0001:00064aa0       ?isUnit@PxQuat@physx@@QEBA_NXZ 0000000180065aa0 f i NpArticulationJoint.obj
 0001:00064b30       ?requires@NpArticulationJoint@physx@@UEAAXAEAVPxProcessPxBaseCallback@2@@Z 0000000180065b30 f i NpArticulationJoint.obj
 0001:00064b40       ?exportExtraData@NpArticulationLink@physx@@UEAAXAEAVPxSerializationContext@2@@Z 0000000180065b40 f   NpArticulationLink.obj
 0001:00064bc0       ?importExtraData@NpArticulationLink@physx@@QEAAXAEAVPxDeserializationContext@2@@Z 0000000180065bc0 f   NpArticulationLink.obj
 0001:00064c40       ?resolveReferences@NpArticulationLink@physx@@UEAAXAEAVPxDeserializationContext@2@@Z 0000000180065c40 f   NpArticulationLink.obj
 0001:00064d80       ?requires@NpArticulationLink@physx@@UEAAXAEAVPxProcessPxBaseCallback@2@@Z 0000000180065d80 f   NpArticulationLink.obj
 0001:00064e20       ?createObject@NpArticulationLink@physx@@SAPEAV12@AEAPEAEAEAVPxDeserializationContext@2@@Z 0000000180065e20 f   NpArticulationLink.obj
 0001:00064f80       ??1NpArticulationLink@physx@@UEAA@XZ 0000000180065f80 f   NpArticulationLink.obj
 0001:00065030       ?release@NpArticulationLink@physx@@UEAAXXZ 0000000180066030 f   NpArticulationLink.obj
 0001:00065120       ?setGlobalPose@NpArticulationLink@physx@@UEAAXAEBVPxTransform@2@@Z 0000000180066120 f   NpArticulationLink.obj
 0001:00065140       ?setGlobalPose@NpArticulationLink@physx@@UEAAXAEBVPxTransform@2@_N@Z 0000000180066140 f   NpArticulationLink.obj
 0001:000654d0       ?getGlobalPose@NpArticulationLink@physx@@UEBA?AVPxTransform@2@XZ 00000001800664d0 f   NpArticulationLink.obj
 0001:00065810       ?setLinearVelocity@NpArticulationLink@physx@@UEAAXAEBVPxVec3@2@_N@Z 0000000180066810 f   NpArticulationLink.obj
 0001:00065960       ?setAngularVelocity@NpArticulationLink@physx@@UEAAXAEBVPxVec3@2@_N@Z 0000000180066960 f   NpArticulationLink.obj
 0001:00065ab0       ?getArticulation@NpArticulationLink@physx@@UEBAAEAVPxArticulation@2@XZ 0000000180066ab0 f   NpArticulationLink.obj
 0001:00065b00       ?getInboundJoint@NpArticulationLink@physx@@UEBAPEAVPxArticulationJoint@2@XZ 0000000180066b00 f   NpArticulationLink.obj
 0001:00065b50       ?getNbChildren@NpArticulationLink@physx@@UEBAIXZ 0000000180066b50 f   NpArticulationLink.obj
 0001:00065b90       ?getChildren@NpArticulationLink@physx@@UEBAIPEAPEAVPxArticulationLink@2@II@Z 0000000180066b90 f   NpArticulationLink.obj
 0001:00065c40       ?setCMassLocalPose@NpArticulationLink@physx@@UEAAXAEBVPxTransform@2@@Z 0000000180066c40 f   NpArticulationLink.obj
 0001:000665f0       ?addForce@NpArticulationLink@physx@@UEAAXAEBVPxVec3@2@W4Enum@PxForceMode@2@_N@Z 00000001800675f0 f   NpArticulationLink.obj
 0001:00066790       ?addTorque@NpArticulationLink@physx@@UEAAXAEBVPxVec3@2@W4Enum@PxForceMode@2@_N@Z 0000000180067790 f   NpArticulationLink.obj
 0001:00066930       ?clearForce@NpArticulationLink@physx@@UEAAXW4Enum@PxForceMode@2@@Z 0000000180067930 f   NpArticulationLink.obj
 0001:000669d0       ?clearTorque@NpArticulationLink@physx@@UEAAXW4Enum@PxForceMode@2@@Z 00000001800679d0 f   NpArticulationLink.obj
 0001:00066a70       ??0NpArticulationLink@physx@@QEAA@AEBVPxTransform@1@AEAVNpArticulation@1@PEAV01@@Z 0000000180067a70 f   NpArticulationLink.obj
 0001:00066d70       ?releaseInternal@NpArticulationLink@physx@@QEAAXXZ 0000000180067d70 f   NpArticulationLink.obj
 0001:00066ef0       ?visualize@NpArticulationLink@physx@@QEAAXAEAVRenderOutput@Cm@2@PEAVNpScene@2@@Z 0000000180067ef0 f   NpArticulationLink.obj
 0001:00067210       ?visualizeJoint@NpArticulationLink@physx@@QEAAXAEAVPxConstraintVisualizer@2@@Z 0000000180068210 f   NpArticulationLink.obj
 0001:000684d0       ??0?$NpActorTemplate@VPxArticulationLink@physx@@@physx@@QEAA@GV?$PxFlags@W4Enum@PxBaseFlag@physx@@G@1@PEBDPEAX@Z 00000001800694d0 f i NpArticulationLink.obj
 0001:00068540       ??0?$NpRigidActorTemplate@VPxArticulationLink@physx@@@physx@@QEAA@GV?$PxFlags@W4Enum@PxBaseFlag@physx@@G@1@@Z 0000000180069540 f i NpArticulationLink.obj
 0001:000685b0       ??0?$NpRigidBodyTemplate@VPxArticulationLink@physx@@@physx@@QEAA@GV?$PxFlags@W4Enum@PxBaseFlag@physx@@G@1@W4Enum@PxActorType@1@AEBVPxTransform@1@@Z 00000001800695b0 f i NpArticulationLink.obj
 0001:00068760       ??1?$NpActorTemplate@VPxArticulationLink@physx@@@physx@@UEAA@XZ 0000000180069760 f i NpArticulationLink.obj
 0001:000687a0       ??1?$NpRigidActorTemplate@VPxArticulationLink@physx@@@physx@@UEAA@XZ 00000001800697a0 f i NpArticulationLink.obj
 0001:00068800       ??1?$NpRigidBodyTemplate@VPxArticulationLink@physx@@@physx@@UEAA@XZ 0000000180069800 f i NpArticulationLink.obj
 0001:00068870       ??1PxArticulationLink@physx@@MEAA@XZ 0000000180069870 f i NpArticulationLink.obj
 0001:00068880       ??1PxRigidActor@physx@@MEAA@XZ 0000000180069880 f i NpArticulationLink.obj
 0001:00068890       ??1PxRigidBody@physx@@MEAA@XZ 0000000180069890 f i NpArticulationLink.obj
 0001:000688a0       ??_G?$NpActorTemplate@VPxArticulationLink@physx@@@physx@@UEAAPEAXI@Z 00000001800698a0 f i NpArticulationLink.obj
 0001:000688a0       ??_E?$NpActorTemplate@VPxArticulationLink@physx@@@physx@@UEAAPEAXI@Z 00000001800698a0 f i NpArticulationLink.obj
 0001:00068940       ??_E?$NpRigidActorTemplate@VPxArticulationLink@physx@@@physx@@UEAAPEAXI@Z 0000000180069940 f i NpArticulationLink.obj
 0001:00068940       ??_G?$NpRigidActorTemplate@VPxArticulationLink@physx@@@physx@@UEAAPEAXI@Z 0000000180069940 f i NpArticulationLink.obj
 0001:00068a00       ??_G?$NpRigidBodyTemplate@VPxArticulationLink@physx@@@physx@@UEAAPEAXI@Z 0000000180069a00 f i NpArticulationLink.obj
 0001:00068a00       ??_E?$NpRigidBodyTemplate@VPxArticulationLink@physx@@@physx@@UEAAPEAXI@Z 0000000180069a00 f i NpArticulationLink.obj
 0001:00068ad0       ??_EConstraintImmediateVisualizer@Cm@physx@@UEAAPEAXI@Z 0000000180069ad0 f i NpArticulationLink.obj
 0001:00068ad0       ??_GConstraintImmediateVisualizer@Cm@physx@@UEAAPEAXI@Z 0000000180069ad0 f i NpArticulationLink.obj
 0001:00068b10       ??_GNpArticulationLink@physx@@UEAAPEAXI@Z 0000000180069b10 f i NpArticulationLink.obj
 0001:00068b10       ??_ENpArticulationLink@physx@@UEAAPEAXI@Z 0000000180069b10 f i NpArticulationLink.obj
 0001:00068c50       ??_GPxArticulationLink@physx@@MEAAPEAXI@Z 0000000180069c50 f i NpArticulationLink.obj
 0001:00068c50       ??_EPxArticulationLink@physx@@MEAAPEAXI@Z 0000000180069c50 f i NpArticulationLink.obj
 0001:00068c90       ??_GPxRigidActor@physx@@MEAAPEAXI@Z 0000000180069c90 f i NpArticulationLink.obj
 0001:00068c90       ??_EPxRigidActor@physx@@MEAAPEAXI@Z 0000000180069c90 f i NpArticulationLink.obj
 0001:00068cd0       ??_GPxRigidBody@physx@@MEAAPEAXI@Z 0000000180069cd0 f i NpArticulationLink.obj
 0001:00068cd0       ??_EPxRigidBody@physx@@MEAAPEAXI@Z 0000000180069cd0 f i NpArticulationLink.obj
 0001:00068d10       ?accumulate@Body@Scb@physx@@AEAAXAEAVPxVec3@3@0IIPEBV43@1@Z 0000000180069d10 f i NpArticulationLink.obj
 0001:00068de0       ?addSpatialAcceleration@Body@Scb@physx@@QEAAXPEBVPxVec3@3@0@Z 0000000180069de0 f i NpArticulationLink.obj
 0001:00068ed0       ?addSpatialForce@?$NpRigidBodyTemplate@VPxArticulationLink@physx@@@physx@@IEAAXPEBVPxVec3@2@0W4Enum@PxForceMode@2@@Z 0000000180069ed0 f i NpArticulationLink.obj
 0001:000691c0       ?addSpatialVelocity@Body@Scb@physx@@QEAAXPEBVPxVec3@3@0@Z 000000018006a1c0 f i NpArticulationLink.obj
 0001:000692e0       ?allocate@?$Array@PEAVNpArticulationLink@physx@@V?$InlineAllocator@$0CA@VNamedAllocator@shdfnd@physx@@@shdfnd@2@@shdfnd@physx@@IEAAPEAPEAVNpArticulationLink@3@I@Z 000000018006a2e0 f i NpArticulationLink.obj
 0001:00069370       ?attachShape@?$NpRigidActorTemplate@VPxArticulationLink@physx@@@physx@@UEAAXAEAVPxShape@2@@Z 000000018006a370 f i NpArticulationLink.obj
 0001:00069500       ?attachShape@?$NpRigidBodyTemplate@VPxArticulationLink@physx@@@physx@@UEAAXAEAVPxShape@2@@Z 000000018006a500 f i NpArticulationLink.obj
 0001:00069850       ?clearSpatialForce@?$NpRigidBodyTemplate@VPxArticulationLink@physx@@@physx@@IEAAXW4Enum@PxForceMode@2@_N1@Z 000000018006a850 f i NpArticulationLink.obj
 0001:00069aa0       ?copy@?$Array@UPxDebugLine@physx@@VNamedAllocator@shdfnd@2@@shdfnd@physx@@KAXPEAUPxDebugLine@3@0PEBU43@@Z 000000018006aaa0 f i NpArticulationLink.obj
 0001:00069cc0       ?createShape@?$NpRigidBodyTemplate@VPxArticulationLink@physx@@@physx@@UEAAPEAVPxShape@2@AEBVPxGeometry@2@PEBQEAVPxMaterial@2@GV?$PxFlags@W4Enum@PxShapeFlag@physx@@E@2@@Z 000000018006acc0 f i NpArticulationLink.obj
 0001:00069ea0       ?detachShape@?$NpRigidActorTemplate@VPxArticulationLink@physx@@@physx@@UEAAXAEAVPxShape@2@_N@Z 000000018006aea0 f i NpArticulationLink.obj
 0001:00069fb0       ?exportExtraData@?$NpActorTemplate@VPxArticulationLink@physx@@@physx@@UEAAXAEAVPxSerializationContext@2@@Z 000000018006afb0 f i NpArticulationLink.obj
 0001:00069fc0       ?exportExtraData@?$NpRigidActorTemplate@VPxArticulationLink@physx@@@physx@@UEAAXAEAVPxSerializationContext@2@@Z 000000018006afc0 f i NpArticulationLink.obj
 0001:0006a000       ?getActorFlags@?$NpActorTemplate@VPxArticulationLink@physx@@@physx@@UEBA?AV?$PxFlags@W4Enum@PxActorFlag@physx@@E@2@XZ 000000018006b000 f i NpArticulationLink.obj
 0001:0006a0a0       ?getAggregate@?$NpActorTemplate@VPxArticulationLink@physx@@@physx@@UEBAPEAVPxAggregate@2@XZ 000000018006b0a0 f i NpArticulationLink.obj
 0001:0006a0b0       ?getAngularVelocity@?$NpRigidBodyTemplate@VPxArticulationLink@physx@@@physx@@UEBA?AVPxVec3@2@XZ 000000018006b0b0 f i NpArticulationLink.obj
 0001:0006a130       ?getCMassLocalPose@?$NpRigidBodyTemplate@VPxArticulationLink@physx@@@physx@@UEBA?AVPxTransform@2@XZ 000000018006b130 f i NpArticulationLink.obj
 0001:0006a1e0       ?getClientBehaviorFlags@?$NpActorTemplate@VPxArticulationLink@physx@@@physx@@UEBA?AV?$PxFlags@W4Enum@PxActorClientBehaviorFlag@physx@@E@2@XZ 000000018006b1e0 f i NpArticulationLink.obj
 0001:0006a280       ?getConcreteTypeName@PxArticulationLink@physx@@UEBAPEBDXZ 000000018006b280 f i NpArticulationLink.obj
 0001:0006a290       ?getConstraints@?$NpRigidActorTemplate@VPxArticulationLink@physx@@@physx@@UEBAIPEAPEAVPxConstraint@2@II@Z 000000018006b290 f i NpArticulationLink.obj
 0001:0006a380       ?getDominanceGroup@?$NpActorTemplate@VPxArticulationLink@physx@@@physx@@UEBAEXZ 000000018006b380 f i NpArticulationLink.obj
 0001:0006a430       ?getGlobalInertiaTensorInverse@Body@Scb@physx@@QEBA?AVPxMat33@3@XZ 000000018006b430 f i NpArticulationLink.obj
 0001:0006a760       ?getInvMass@?$NpRigidBodyTemplate@VPxArticulationLink@physx@@@physx@@UEBAMXZ 000000018006b760 f i NpArticulationLink.obj
 0001:0006a7e0       ?getLinearVelocity@?$NpRigidBodyTemplate@VPxArticulationLink@physx@@@physx@@UEBA?AVPxVec3@2@XZ 000000018006b7e0 f i NpArticulationLink.obj
 0001:0006a860       ?getMass@?$NpRigidBodyTemplate@VPxArticulationLink@physx@@@physx@@UEBAMXZ 000000018006b860 f i NpArticulationLink.obj
 0001:0006a900       ?getMassSpaceInertiaTensor@?$NpRigidBodyTemplate@VPxArticulationLink@physx@@@physx@@UEBA?AVPxVec3@2@XZ 000000018006b900 f i NpArticulationLink.obj
 0001:0006a9f0       ?getMassSpaceInvInertiaTensor@?$NpRigidBodyTemplate@VPxArticulationLink@physx@@@physx@@UEBA?AVPxVec3@2@XZ 000000018006b9f0 f i NpArticulationLink.obj
 0001:0006aa80       ?getMaxContactImpulse@?$NpRigidBodyTemplate@VPxArticulationLink@physx@@@physx@@UEBAMXZ 000000018006ba80 f i NpArticulationLink.obj
 0001:0006ab00       ?getMaxDepenetrationVelocity@?$NpRigidBodyTemplate@VPxArticulationLink@physx@@@physx@@UEBAMXZ 000000018006bb00 f i NpArticulationLink.obj
 0001:0006ab90       ?getMinCCDAdvanceCoefficient@?$NpRigidBodyTemplate@VPxArticulationLink@physx@@@physx@@UEBAMXZ 000000018006bb90 f i NpArticulationLink.obj
 0001:0006ac10       ?getName@?$NpActorTemplate@VPxArticulationLink@physx@@@physx@@UEBAPEBDXZ 000000018006bc10 f i NpArticulationLink.obj
 0001:0006ac60       ?getNbConstraints@?$NpRigidActorTemplate@VPxArticulationLink@physx@@@physx@@UEBAIXZ 000000018006bc60 f i NpArticulationLink.obj
 0001:0006acc0       ?getNbShapes@?$NpRigidActorTemplate@VPxArticulationLink@physx@@@physx@@UEBAIXZ 000000018006bcc0 f i NpArticulationLink.obj
 0001:0006ad10       ?getOwnerClient@?$NpActorTemplate@VPxArticulationLink@physx@@@physx@@UEBAEXZ 000000018006bd10 f i NpArticulationLink.obj
 0001:0006ad50       ?getRigidBodyFlags@?$NpRigidBodyTemplate@VPxArticulationLink@physx@@@physx@@UEBA?AV?$PxFlags@W4Enum@PxRigidBodyFlag@physx@@E@2@XZ 000000018006bd50 f i NpArticulationLink.obj
 0001:0006add0       ?getScene@?$NpActorTemplate@VPxArticulationLink@physx@@@physx@@UEBAPEAVPxScene@2@XZ 000000018006bdd0 f i NpArticulationLink.obj
 0001:0006ade0       ?getShapes@?$NpRigidActorTemplate@VPxArticulationLink@physx@@@physx@@UEBAIPEAPEAVPxShape@2@II@Z 000000018006bde0 f i NpArticulationLink.obj
 0001:0006ae70       ?getType@NpArticulationLink@physx@@UEBA?AW4Enum@PxActorType@2@XZ 000000018006be70 f i NpArticulationLink.obj
 0001:0006ae80       ?getWorldBounds@?$NpRigidActorTemplate@VPxArticulationLink@physx@@@physx@@UEBA?AVPxBounds3@2@M@Z 000000018006be80 f i NpArticulationLink.obj
 0001:0006b070       ?growAndPushBack@?$Array@PEAVNpArticulationLink@physx@@V?$InlineAllocator@$0CA@VNamedAllocator@shdfnd@physx@@@shdfnd@2@@shdfnd@physx@@IEAAAEAPEAVNpArticulationLink@3@AEBQEAV43@@Z 000000018006c070 f i NpArticulationLink.obj
 0001:0006b170       ?importExtraData@?$NpRigidActorTemplate@VPxArticulationLink@physx@@@physx@@QEAAXAEAVPxDeserializationContext@2@@Z 000000018006c170 f i NpArticulationLink.obj
 0001:0006b1b0       ?isKindOf@PxArticulationLink@physx@@MEBA_NPEBD@Z 000000018006c1b0 f i NpArticulationLink.obj
 0001:0006b210       ?isKindOf@PxRigidActor@physx@@MEBA_NPEBD@Z 000000018006c210 f i NpArticulationLink.obj
 0001:0006b2c0       ?isKindOf@PxRigidBody@physx@@MEBA_NPEBD@Z 000000018006c2c0 f i NpArticulationLink.obj
 0001:0006b370       ?isSubordinate@NpArticulationLink@physx@@UEBA_NXZ 000000018006c370 f i NpArticulationLink.obj
 0001:0006b380       ?isValid@PxTransform@physx@@QEBA_NXZ 000000018006c380 f i NpArticulationLink.obj
 0001:0006b480       ?recreate@?$Array@UPxDebugLine@physx@@VNamedAllocator@shdfnd@2@@shdfnd@physx@@IEAAXI@Z 000000018006c480 f i NpArticulationLink.obj
 0001:0006b540       ?release@?$NpActorTemplate@VPxArticulationLink@physx@@@physx@@UEAAXXZ 000000018006c540 f i NpArticulationLink.obj
 0001:0006b550       ?release@?$NpRigidActorTemplate@VPxArticulationLink@physx@@@physx@@UEAAXXZ 000000018006c550 f i NpArticulationLink.obj
 0001:0006b610       ?requires@?$NpRigidActorTemplate@VPxArticulationLink@physx@@@physx@@UEAAXAEAVPxProcessPxBaseCallback@2@@Z 000000018006c610 f i NpArticulationLink.obj
 0001:0006b6a0       ?resolveReferences@?$NpActorTemplate@VPxArticulationLink@physx@@@physx@@UEAAXAEAVPxDeserializationContext@2@@Z 000000018006c6a0 f i NpArticulationLink.obj
 0001:0006b6b0       ?resolveReferences@?$NpRigidActorTemplate@VPxArticulationLink@physx@@@physx@@UEAAXAEAVPxDeserializationContext@2@@Z 000000018006c6b0 f i NpArticulationLink.obj
 0001:0006b760       ?setActorFlag@?$NpActorTemplate@VPxArticulationLink@physx@@@physx@@UEAAXW4Enum@PxActorFlag@2@_N@Z 000000018006c760 f i NpArticulationLink.obj
 0001:0006b870       ?setActorFlag@?$NpRigidActorTemplate@VPxArticulationLink@physx@@@physx@@UEAAXW4Enum@PxActorFlag@2@_N@Z 000000018006c870 f i NpArticulationLink.obj
 0001:0006bbb0       ?setActorFlags@?$NpActorTemplate@VPxArticulationLink@physx@@@physx@@UEAAXV?$PxFlags@W4Enum@PxActorFlag@physx@@E@2@@Z 000000018006cbb0 f i NpArticulationLink.obj
 0001:0006bc30       ?setActorFlags@?$NpRigidActorTemplate@VPxArticulationLink@physx@@@physx@@UEAAXV?$PxFlags@W4Enum@PxActorFlag@physx@@E@2@@Z 000000018006cc30 f i NpArticulationLink.obj
 0001:0006bee0       ?setAngularVelocity@Body@Scb@physx@@QEAAXAEBVPxVec3@3@@Z 000000018006cee0 f i NpArticulationLink.obj
 0001:0006bfa0       ?setCMassLocalPoseInternal@?$NpRigidBodyTemplate@VPxArticulationLink@physx@@@physx@@IEAAXAEBVPxTransform@2@@Z 000000018006cfa0 f i NpArticulationLink.obj
 0001:0006c460       ?setClientBehaviorFlags@?$NpActorTemplate@VPxArticulationLink@physx@@@physx@@UEAAXV?$PxFlags@W4Enum@PxActorClientBehaviorFlag@physx@@E@2@@Z 000000018006d460 f i NpArticulationLink.obj
 0001:0006c4e0       ?setClientBehaviorFlags@?$NpRigidActorTemplate@VPxArticulationLink@physx@@@physx@@UEAAXV?$PxFlags@W4Enum@PxActorClientBehaviorFlag@physx@@E@2@@Z 000000018006d4e0 f i NpArticulationLink.obj
 0001:0006c5a0       ?setDominanceGroup@?$NpActorTemplate@VPxArticulationLink@physx@@@physx@@UEAAXE@Z 000000018006d5a0 f i NpArticulationLink.obj
 0001:0006c6c0       ?setFlags@Body@Scb@physx@@QEAAXV?$PxFlags@W4Enum@PxRigidBodyFlag@physx@@E@3@@Z 000000018006d6c0 f i NpArticulationLink.obj
 0001:0006c8a0       ?setLinearVelocity@Body@Scb@physx@@QEAAXAEBVPxVec3@3@@Z 000000018006d8a0 f i NpArticulationLink.obj
 0001:0006c960       ?setMass@?$NpRigidBodyTemplate@VPxArticulationLink@physx@@@physx@@UEAAXM@Z 000000018006d960 f i NpArticulationLink.obj
 0001:0006cb80       ?setMassSpaceInertiaTensor@?$NpRigidBodyTemplate@VPxArticulationLink@physx@@@physx@@UEAAXAEBVPxVec3@2@@Z 000000018006db80 f i NpArticulationLink.obj
 0001:0006cf50       ?setMaxContactImpulse@?$NpRigidBodyTemplate@VPxArticulationLink@physx@@@physx@@UEAAXM@Z 000000018006df50 f i NpArticulationLink.obj
 0001:0006d0b0       ?setMaxDepenetrationVelocity@?$NpRigidBodyTemplate@VPxArticulationLink@physx@@@physx@@UEAAXM@Z 000000018006e0b0 f i NpArticulationLink.obj
 0001:0006d200       ?setMinCCDAdvanceCoefficient@?$NpRigidBodyTemplate@VPxArticulationLink@physx@@@physx@@UEAAXM@Z 000000018006e200 f i NpArticulationLink.obj
 0001:0006d2f0       ?setName@?$NpActorTemplate@VPxArticulationLink@physx@@@physx@@UEAAXPEBD@Z 000000018006e2f0 f i NpArticulationLink.obj
 0001:0006d390       ?setOwnerClient@?$NpActorTemplate@VPxArticulationLink@physx@@@physx@@UEAAXE@Z 000000018006e390 f i NpArticulationLink.obj
 0001:0006d4d0       ?setRigidBodyFlag@?$NpRigidBodyTemplate@VPxArticulationLink@physx@@@physx@@UEAAXW4Enum@PxRigidBodyFlag@2@_N@Z 000000018006e4d0 f i NpArticulationLink.obj
 0001:0006db00       ?setRigidBodyFlags@?$NpRigidBodyTemplate@VPxArticulationLink@physx@@@physx@@UEAAXV?$PxFlags@W4Enum@PxRigidBodyFlag@physx@@E@2@@Z 000000018006eb00 f i NpArticulationLink.obj
 0001:0006e130       ?switchFromNoSim@?$NpRigidActorTemplate@VPxArticulationLink@physx@@@physx@@UEAAXXZ 000000018006f130 f i NpArticulationLink.obj
 0001:0006e140       ?switchToNoSim@?$NpRigidActorTemplate@VPxArticulationLink@physx@@@physx@@UEAAXXZ 000000018006f140 f i NpArticulationLink.obj
 0001:0006e150       ?updateShaderComs@?$NpRigidActorTemplate@VPxArticulationLink@physx@@@physx@@QEAAXXZ 000000018006f150 f i NpArticulationLink.obj
 0001:0006e1f0       ?visualize@?$NpRigidActorTemplate@VPxArticulationLink@physx@@@physx@@QEAAXAEAVRenderOutput@Cm@2@PEAVNpScene@2@@Z 000000018006f1f0 f i NpArticulationLink.obj
 0001:0006e200       ?visualize@?$NpRigidBodyTemplate@VPxArticulationLink@physx@@@physx@@QEAAXAEAVRenderOutput@Cm@2@PEAVNpScene@2@@Z 000000018006f200 f i NpArticulationLink.obj
 0001:0006e6b0       ?visualizeAngularLimit@ConstraintImmediateVisualizer@Cm@physx@@UEAAXAEBVPxTransform@3@MM_N@Z 000000018006f6b0 f i NpArticulationLink.obj
 0001:0006e6f0       ?visualizeDoubleCone@ConstraintImmediateVisualizer@Cm@physx@@UEAAXAEBVPxTransform@3@M_N@Z 000000018006f6f0 f i NpArticulationLink.obj
 0001:0006e720       ?visualizeJointFrames@ConstraintImmediateVisualizer@Cm@physx@@UEAAXAEBVPxTransform@3@0@Z 000000018006f720 f i NpArticulationLink.obj
 0001:0006e740       ?visualizeLimitCone@ConstraintImmediateVisualizer@Cm@physx@@UEAAXAEBVPxTransform@3@MM_N@Z 000000018006f740 f i NpArticulationLink.obj
 0001:0006e780       ?visualizeLine@ConstraintImmediateVisualizer@Cm@physx@@UEAAXAEBVPxVec3@3@0I@Z 000000018006f780 f i NpArticulationLink.obj
 0001:0006e820       ?visualizeLinearLimit@ConstraintImmediateVisualizer@Cm@physx@@UEAAXAEBVPxTransform@3@0M_N@Z 000000018006f820 f i NpArticulationLink.obj
 0001:0006e860       ??0NpBatchQuery@physx@@QEAA@AEAVNpScene@1@AEBVPxBatchQueryDesc@1@@Z 000000018006f860 f   NpBatchQuery.obj
 0001:0006e9c0       ??1NpBatchQuery@physx@@UEAA@XZ 000000018006f9c0 f   NpBatchQuery.obj
 0001:0006ea40       ?execute@NpBatchQuery@physx@@UEAAXXZ 000000018006fa40 f   NpBatchQuery.obj
 0001:0006f5d0       ?release@NpBatchQuery@physx@@UEAAXXZ 00000001800705d0 f   NpBatchQuery.obj
 0001:0006f640       ?getPreFilterShader@NpBatchQuery@physx@@UEBAP6A?AW4Enum@PxQueryHitType@2@UPxFilterData@2@0PEBXIAEAV?$PxFlags@W4Enum@PxHitFlag@physx@@G@2@@ZXZ 0000000180070640 f   NpBatchQuery.obj
 0001:0006f650       ?getPostFilterShader@NpBatchQuery@physx@@UEBAP6A?AW4Enum@PxQueryHitType@2@UPxFilterData@2@0PEBXIAEBUPxQueryHit@2@@ZXZ 0000000180070650 f   NpBatchQuery.obj
 0001:0006f660       ?getFilterShaderData@NpBatchQuery@physx@@UEBAPEBXXZ 0000000180070660 f   NpBatchQuery.obj
 0001:0006f670       ?getFilterShaderDataSize@NpBatchQuery@physx@@UEBAIXZ 0000000180070670 f   NpBatchQuery.obj
 0001:0006f680       ?getOwnerClient@NpBatchQuery@physx@@UEBAEXZ 0000000180070680 f   NpBatchQuery.obj
 0001:0006f690       ?setUserMemory@NpBatchQuery@physx@@UEAAXAEBUPxBatchQueryMemory@2@@Z 0000000180070690 f   NpBatchQuery.obj
 0001:0006f730       ?getUserMemory@NpBatchQuery@physx@@UEAAAEBUPxBatchQueryMemory@2@XZ 0000000180070730 f   NpBatchQuery.obj
 0001:0006f740       ?raycast@NpBatchQuery@physx@@UEAAXAEBVPxVec3@2@0MGV?$PxFlags@W4Enum@PxHitFlag@physx@@G@2@AEBUPxQueryFilterData@2@PEAXPEBUPxQueryCache@2@@Z 0000000180070740 f   NpBatchQuery.obj
 0001:0006fa60       ?overlap@NpBatchQuery@physx@@UEAAXAEBVPxGeometry@2@AEBVPxTransform@2@GAEBUPxQueryFilterData@2@PEAXPEBUPxQueryCache@2@@Z 0000000180070a60 f   NpBatchQuery.obj
 0001:0006fc20       ?sweep@NpBatchQuery@physx@@UEAAXAEBVPxGeometry@2@AEBVPxTransform@2@AEBVPxVec3@2@MGV?$PxFlags@W4Enum@PxHitFlag@physx@@G@2@AEBUPxQueryFilterData@2@PEAXPEBUPxQueryCache@2@M@Z 0000000180070c20 f   NpBatchQuery.obj
 0001:00070150       ?resetResultBuffers@NpBatchQuery@physx@@AEAAXXZ 0000000180071150 f   NpBatchQuery.obj
 0001:00070260       ?finalizeExecute@NpBatchQuery@physx@@AEAAXXZ 0000000180071260 f   NpBatchQuery.obj
 0001:00070290       ?writeBatchHeader@NpBatchQuery@physx@@AEAAXAEBUBatchStreamHeader@2@@Z 0000000180071290 f   NpBatchQuery.obj
 0001:00070a30       ??$writeStatus@U?$PxBatchQueryResult@UPxOverlapHit@physx@@@physx@@UPxOverlapHit@2@@@YAXPEAU?$PxBatchQueryResult@UPxOverlapHit@physx@@@physx@@AEBU?$PxHitBuffer@UPxOverlapHit@physx@@@1@PEAX_N@Z 0000000180071a30 f i NpBatchQuery.obj
 0001:00070a90       ??$writeStatus@U?$PxBatchQueryResult@UPxRaycastHit@physx@@@physx@@UPxRaycastHit@2@@@YAXPEAU?$PxBatchQueryResult@UPxRaycastHit@physx@@@physx@@AEBU?$PxHitBuffer@UPxRaycastHit@physx@@@1@PEAX_N@Z 0000000180071a90 f i NpBatchQuery.obj
 0001:00070b40       ??$writeStatus@U?$PxBatchQueryResult@UPxSweepHit@physx@@@physx@@UPxSweepHit@2@@@YAXPEAU?$PxBatchQueryResult@UPxSweepHit@physx@@@physx@@AEBU?$PxHitBuffer@UPxSweepHit@physx@@@1@PEAX_N@Z 0000000180071b40 f i NpBatchQuery.obj
 0001:00070be0       ??1?$PxHitBuffer@UPxOverlapHit@physx@@@physx@@UEAA@XZ 0000000180071be0 f i NpBatchQuery.obj
 0001:00070bf0       ??1?$PxHitBuffer@UPxRaycastHit@physx@@@physx@@UEAA@XZ 0000000180071bf0 f i NpBatchQuery.obj
 0001:00070c00       ??1?$PxHitBuffer@UPxSweepHit@physx@@@physx@@UEAA@XZ 0000000180071c00 f i NpBatchQuery.obj
 0001:00070c10       ??1?$PxHitCallback@UPxOverlapHit@physx@@@physx@@UEAA@XZ 0000000180071c10 f i NpBatchQuery.obj
 0001:00070c20       ??1?$PxHitCallback@UPxRaycastHit@physx@@@physx@@UEAA@XZ 0000000180071c20 f i NpBatchQuery.obj
 0001:00070c30       ??1?$PxHitCallback@UPxSweepHit@physx@@@physx@@UEAA@XZ 0000000180071c30 f i NpBatchQuery.obj
 0001:00070c40       ??1PxBatchQuery@physx@@MEAA@XZ 0000000180071c40 f i NpBatchQuery.obj
 0001:00070c50       ??_E?$PxHitBuffer@UPxOverlapHit@physx@@@physx@@UEAAPEAXI@Z 0000000180071c50 f i NpBatchQuery.obj
 0001:00070c50       ??_G?$PxHitBuffer@UPxOverlapHit@physx@@@physx@@UEAAPEAXI@Z 0000000180071c50 f i NpBatchQuery.obj
 0001:00070c90       ??_E?$PxHitBuffer@UPxRaycastHit@physx@@@physx@@UEAAPEAXI@Z 0000000180071c90 f i NpBatchQuery.obj
 0001:00070c90       ??_G?$PxHitBuffer@UPxRaycastHit@physx@@@physx@@UEAAPEAXI@Z 0000000180071c90 f i NpBatchQuery.obj
 0001:00070cd0       ??_G?$PxHitBuffer@UPxSweepHit@physx@@@physx@@UEAAPEAXI@Z 0000000180071cd0 f i NpBatchQuery.obj
 0001:00070cd0       ??_E?$PxHitBuffer@UPxSweepHit@physx@@@physx@@UEAAPEAXI@Z 0000000180071cd0 f i NpBatchQuery.obj
 0001:00070d10       ??_E?$PxHitCallback@UPxOverlapHit@physx@@@physx@@UEAAPEAXI@Z 0000000180071d10 f i NpBatchQuery.obj
 0001:00070d10       ??_G?$PxHitCallback@UPxOverlapHit@physx@@@physx@@UEAAPEAXI@Z 0000000180071d10 f i NpBatchQuery.obj
 0001:00070d50       ??_E?$PxHitCallback@UPxRaycastHit@physx@@@physx@@UEAAPEAXI@Z 0000000180071d50 f i NpBatchQuery.obj
 0001:00070d50       ??_G?$PxHitCallback@UPxRaycastHit@physx@@@physx@@UEAAPEAXI@Z 0000000180071d50 f i NpBatchQuery.obj
 0001:00070d90       ??_E?$PxHitCallback@UPxSweepHit@physx@@@physx@@UEAAPEAXI@Z 0000000180071d90 f i NpBatchQuery.obj
 0001:00070d90       ??_G?$PxHitCallback@UPxSweepHit@physx@@@physx@@UEAAPEAXI@Z 0000000180071d90 f i NpBatchQuery.obj
 0001:00070dd0       ??_G?$PxOverflowBuffer@UPxOverlapHit@physx@@@@UEAAPEAXI@Z 0000000180071dd0 f i NpBatchQuery.obj
 0001:00070dd0       ??_E?$PxOverflowBuffer@UPxOverlapHit@physx@@@@UEAAPEAXI@Z 0000000180071dd0 f i NpBatchQuery.obj
 0001:00070e10       ??_G?$PxOverflowBuffer@UPxRaycastHit@physx@@@@UEAAPEAXI@Z 0000000180071e10 f i NpBatchQuery.obj
 0001:00070e10       ??_E?$PxOverflowBuffer@UPxRaycastHit@physx@@@@UEAAPEAXI@Z 0000000180071e10 f i NpBatchQuery.obj
 0001:00070e50       ??_G?$PxOverflowBuffer@UPxSweepHit@physx@@@@UEAAPEAXI@Z 0000000180071e50 f i NpBatchQuery.obj
 0001:00070e50       ??_E?$PxOverflowBuffer@UPxSweepHit@physx@@@@UEAAPEAXI@Z 0000000180071e50 f i NpBatchQuery.obj
 0001:00070e90       ??_GNpBatchQuery@physx@@UEAAPEAXI@Z 0000000180071e90 f i NpBatchQuery.obj
 0001:00070e90       ??_ENpBatchQuery@physx@@UEAAPEAXI@Z 0000000180071e90 f i NpBatchQuery.obj
 0001:00070f90       ??_GPxBatchQuery@physx@@MEAAPEAXI@Z 0000000180071f90 f i NpBatchQuery.obj
 0001:00070f90       ??_EPxBatchQuery@physx@@MEAAPEAXI@Z 0000000180071f90 f i NpBatchQuery.obj
 0001:00070fd0       ?finalizeQuery@?$PxHitCallback@UPxOverlapHit@physx@@@physx@@UEAAXXZ 0000000180071fd0 f i NpBatchQuery.obj
 0001:00070fe0       ?finalizeQuery@?$PxHitCallback@UPxRaycastHit@physx@@@physx@@UEAAXXZ 0000000180071fe0 f i NpBatchQuery.obj
 0001:00070ff0       ?finalizeQuery@?$PxHitCallback@UPxSweepHit@physx@@@physx@@UEAAXXZ 0000000180071ff0 f i NpBatchQuery.obj
 0001:00071000       ?finalizeQuery@?$PxOverflowBuffer@UPxOverlapHit@physx@@@@UEAAXXZ 0000000180072000 f i NpBatchQuery.obj
 0001:00071030       ?finalizeQuery@?$PxOverflowBuffer@UPxRaycastHit@physx@@@@UEAAXXZ 0000000180072030 f i NpBatchQuery.obj
 0001:00071060       ?finalizeQuery@?$PxOverflowBuffer@UPxSweepHit@physx@@@@UEAAXXZ 0000000180072060 f i NpBatchQuery.obj
 0001:00071090       ?getDesc@NpBatchQuery@physx@@UEBAAEBVPxBatchQueryDesc@2@XZ 0000000180072090 f i NpBatchQuery.obj
 0001:000710a0       ?processTouches@?$PxHitBuffer@UPxOverlapHit@physx@@@physx@@MEAA_NPEBUPxOverlapHit@2@I@Z 00000001800720a0 f i NpBatchQuery.obj
 0001:000710b0       ?processTouches@?$PxHitBuffer@UPxRaycastHit@physx@@@physx@@MEAA_NPEBUPxRaycastHit@2@I@Z 00000001800720b0 f i NpBatchQuery.obj
 0001:000710c0       ?processTouches@?$PxHitBuffer@UPxSweepHit@physx@@@physx@@MEAA_NPEBUPxSweepHit@2@I@Z 00000001800720c0 f i NpBatchQuery.obj
 0001:000710d0       ?processTouches@?$PxOverflowBuffer@UPxOverlapHit@physx@@@@UEAA_NPEBUPxOverlapHit@physx@@I@Z 00000001800720d0 f i NpBatchQuery.obj
 0001:00071110       ?processTouches@?$PxOverflowBuffer@UPxRaycastHit@physx@@@@UEAA_NPEBUPxRaycastHit@physx@@I@Z 0000000180072110 f i NpBatchQuery.obj
 0001:00071160       ?processTouches@?$PxOverflowBuffer@UPxSweepHit@physx@@@@UEAA_NPEBUPxSweepHit@physx@@I@Z 0000000180072160 f i NpBatchQuery.obj
 0001:000711b0       ?recreate@?$Array@DVNamedAllocator@shdfnd@physx@@@shdfnd@physx@@IEAAXI@Z 00000001800721b0 f i NpBatchQuery.obj
 0001:000712c0       ?resizeUninitialized@?$Array@DVNamedAllocator@shdfnd@physx@@@shdfnd@physx@@QEAAXI@Z 00000001800722c0 f i NpBatchQuery.obj
 0001:00071750       ?NpConstraintGetRigidObjectsFromScb@physx@@YAXAEBVConstraint@Scb@1@AEAPEAVRigidObject@31@1@Z 0000000180072750 f   NpConstraint.obj
 0001:000717c0       ?setConstraintFunctions@NpConstraint@physx@@UEAAXAEAVPxConstraintConnector@2@AEBUPxConstraintShaderTable@2@@Z 00000001800727c0 f   NpConstraint.obj
 0001:000719e0       ?createObject@NpConstraint@physx@@SAPEAV12@AEAPEAEAEAVPxDeserializationContext@2@@Z 00000001800729e0 f   NpConstraint.obj
 0001:00071a80       ?resolveReferences@NpConstraint@physx@@QEAAXAEAVPxDeserializationContext@2@@Z 0000000180072a80 f   NpConstraint.obj
 0001:00071ae0       ??0NpConstraint@physx@@QEAA@PEAVPxRigidActor@1@0AEAVPxConstraintConnector@1@AEBUPxConstraintShaderTable@1@I@Z 0000000180072ae0 f   NpConstraint.obj
 0001:00071ce0       ??1NpConstraint@physx@@UEAA@XZ 0000000180072ce0 f   NpConstraint.obj
 0001:00071d40       ?release@NpConstraint@physx@@UEAAXXZ 0000000180072d40 f   NpConstraint.obj
 0001:00071e70       ?getScene@NpConstraint@physx@@UEBAPEAVPxScene@2@XZ 0000000180072e70 f   NpConstraint.obj
 0001:00071eb0       ?getActors@NpConstraint@physx@@UEBAXAEAPEAVPxRigidActor@2@0@Z 0000000180072eb0 f   NpConstraint.obj
 0001:00071f40       ?setActors@NpConstraint@physx@@UEAAXPEAVPxRigidActor@2@0@Z 0000000180072f40 f   NpConstraint.obj
 0001:00072300       ?getFlags@NpConstraint@physx@@UEBA?AV?$PxFlags@W4Enum@PxConstraintFlag@physx@@G@2@XZ 0000000180073300 f   NpConstraint.obj
 0001:000723a0       ?setFlags@NpConstraint@physx@@UEAAXV?$PxFlags@W4Enum@PxConstraintFlag@physx@@G@2@@Z 00000001800733a0 f   NpConstraint.obj
 0001:000724d0       ?setFlag@NpConstraint@physx@@UEAAXW4Enum@PxConstraintFlag@2@_N@Z 00000001800734d0 f   NpConstraint.obj
 0001:00072640       ?getForce@NpConstraint@physx@@UEBAXAEAVPxVec3@2@0@Z 0000000180073640 f   NpConstraint.obj
 0001:000726f0       ?markDirty@NpConstraint@physx@@UEAAXXZ 00000001800736f0 f   NpConstraint.obj
 0001:00072700       ?setBreakForce@NpConstraint@physx@@UEAAXMM@Z 0000000180073700 f   NpConstraint.obj
 0001:00072860       ?getBreakForce@NpConstraint@physx@@UEBAXAEAM0@Z 0000000180073860 f   NpConstraint.obj
 0001:00072940       ?setMinResponseThreshold@NpConstraint@physx@@UEAAXM@Z 0000000180073940 f   NpConstraint.obj
 0001:00072b40       ?getMinResponseThreshold@NpConstraint@physx@@UEBAMXZ 0000000180073b40 f   NpConstraint.obj
 0001:00072c00       ?isValid@NpConstraint@physx@@UEBA_NXZ 0000000180073c00 f   NpConstraint.obj
 0001:00072cc0       ?getExternalReference@NpConstraint@physx@@UEAAPEAXAEAI@Z 0000000180073cc0 f   NpConstraint.obj
 0001:00072d50       ?updateConstants@NpConstraint@physx@@QEAAXXZ 0000000180073d50 f   NpConstraint.obj
 0001:00072dd0       ?comShift@NpConstraint@physx@@QEAAXPEAVPxRigidActor@2@@Z 0000000180073dd0 f   NpConstraint.obj
 0001:00072e30       ?actorDeleted@NpConstraint@physx@@QEAAXPEAVPxRigidActor@2@@Z 0000000180073e30 f   NpConstraint.obj
 0001:00072e50       ?getNpScene@NpConstraint@physx@@QEBAPEAVNpScene@2@XZ 0000000180073e50 f   NpConstraint.obj
 0001:00072e90       ?getSceneFromActors@NpConstraint@physx@@QEBAPEAVNpScene@2@XZ 0000000180073e90 f   NpConstraint.obj
 0001:00072f70       ?getScbRigidObject@NpConstraint@physx@@SAPEAVRigidObject@Scb@2@PEAVPxRigidActor@2@@Z 0000000180073f70 f   NpConstraint.obj
 0001:00073590       ??1PxConstraint@physx@@MEAA@XZ 0000000180074590 f i NpConstraint.obj
 0001:000735a0       ??_GNpConstraint@physx@@UEAAPEAXI@Z 00000001800745a0 f i NpConstraint.obj
 0001:000735a0       ??_ENpConstraint@physx@@UEAAPEAXI@Z 00000001800745a0 f i NpConstraint.obj
 0001:00073660       ??_GPxConstraint@physx@@MEAAPEAXI@Z 0000000180074660 f i NpConstraint.obj
 0001:00073660       ??_EPxConstraint@physx@@MEAAPEAXI@Z 0000000180074660 f i NpConstraint.obj
 0001:000736a0       ?getConcreteTypeName@PxConstraint@physx@@UEBAPEBDXZ 00000001800746a0 f i NpConstraint.obj
 0001:000736b0       ?isKindOf@PxConstraint@physx@@MEBA_NPEBD@Z 00000001800746b0 f i NpConstraint.obj
 0001:00073710       ?isSubordinate@NpConstraint@physx@@UEBA_NXZ 0000000180074710 f i NpConstraint.obj
 0001:00073720       ?requires@NpConstraint@physx@@UEAAXAEAVPxProcessPxBaseCallback@2@@Z 0000000180074720 f i NpConstraint.obj
 0001:00073730       ?setBodies@Constraint@Scb@physx@@QEAAXPEAVRigidObject@23@0@Z 0000000180074730 f i NpConstraint.obj
 0001:00073890       ?setFlags@Constraint@Scb@physx@@QEAAXV?$PxFlags@W4Enum@PxConstraintFlag@physx@@G@3@@Z 0000000180074890 f i NpConstraint.obj
 0001:00073980       ??0NpFactory@physx@@QEAA@XZ 0000000180074980 f   NpFactory.obj
 0001:00074810       ??1NpFactory@physx@@EEAA@XZ 0000000180075810 f   NpFactory.obj
 0001:00074c40       ?createInstance@NpFactory@physx@@SAXXZ 0000000180075c40 f   NpFactory.obj
 0001:00074cd0       ?destroyInstance@NpFactory@physx@@SAXXZ 0000000180075cd0 f   NpFactory.obj
 0001:00074d80       ?registerArticulations@NpFactory@physx@@SAXXZ 0000000180075d80 f   NpFactory.obj
 0001:00074db0       ?registerCloth@NpFactory@physx@@SAXXZ 0000000180075db0 f   NpFactory.obj
 0001:00074df0       ?registerParticles@NpFactory@physx@@SAXXZ 0000000180075df0 f   NpFactory.obj
 0001:00074e20       ?release@NpFactory@physx@@QEAAXXZ 0000000180075e20 f   NpFactory.obj
 0001:00074ec0       ?addCollection@NpFactory@physx@@QEAAXAEBVCollection@Cm@2@@Z 0000000180075ec0 f   NpFactory.obj
 0001:000751e0       ?createRigidDynamic@NpFactory@physx@@QEAAPEAVPxRigidDynamic@2@AEBVPxTransform@2@@Z 00000001800761e0 f   NpFactory.obj
 0001:000753f0       ?addRigidDynamic@NpFactory@physx@@QEAAXPEAVPxRigidDynamic@2@_N@Z 00000001800763f0 f   NpFactory.obj
 0001:00075410       ?releaseRigidDynamicToPool@NpFactory@physx@@QEAAXAEAVNpRigidDynamic@2@@Z 0000000180076410 f   NpFactory.obj
 0001:00075480       ?createRigidStatic@NpFactory@physx@@QEAAPEAVPxRigidStatic@2@AEBVPxTransform@2@@Z 0000000180076480 f   NpFactory.obj
 0001:00075690       ?addRigidStatic@NpFactory@physx@@QEAAXPEAVPxRigidStatic@2@_N@Z 0000000180076690 f   NpFactory.obj
 0001:000756b0       ?releaseRigidStaticToPool@NpFactory@physx@@QEAAXAEAVNpRigidStatic@2@@Z 00000001800766b0 f   NpFactory.obj
 0001:00075720       ?createShape@NpFactory@physx@@QEAAPEAVNpShape@2@AEBVPxGeometry@2@V?$PxFlags@W4Enum@PxShapeFlag@physx@@E@2@PEBQEAVPxMaterial@2@G_N@Z 0000000180076720 f   NpFactory.obj
 0001:00075c50       ?addShape@NpFactory@physx@@QEAAXPEAVPxShape@2@_N@Z 0000000180076c50 f   NpFactory.obj
 0001:00075cd0       ?releaseShapeToPool@NpFactory@physx@@QEAAXAEAVNpShape@2@@Z 0000000180076cd0 f   NpFactory.obj
 0001:00075d40       ?getNbShapes@NpFactory@physx@@QEBAIXZ 0000000180076d40 f   NpFactory.obj
 0001:00075d50       ?getShapes@NpFactory@physx@@QEBAIPEAPEAVPxShape@2@II@Z 0000000180076d50 f   NpFactory.obj
 0001:00075da0       ?addConstraint@NpFactory@physx@@QEAAXPEAVPxConstraint@2@_N@Z 0000000180076da0 f   NpFactory.obj
 0001:00075e20       ?createConstraint@NpFactory@physx@@QEAAPEAVPxConstraint@2@PEAVPxRigidActor@2@0AEAVPxConstraintConnector@2@AEBUPxConstraintShaderTable@2@I@Z 0000000180076e20 f   NpFactory.obj
 0001:000760b0       ?releaseConstraintToPool@NpFactory@physx@@QEAAXAEAVNpConstraint@2@@Z 00000001800770b0 f   NpFactory.obj
 0001:00076120       ?addArticulation@NpFactory@physx@@QEAAXPEAVPxArticulation@2@_N@Z 0000000180077120 f   NpFactory.obj
 0001:000761a0       ?createArticulation@NpFactory@physx@@QEAAPEAVPxArticulation@2@XZ 00000001800771a0 f   NpFactory.obj
 0001:00076250       ?createNpArticulation@NpFactory@physx@@QEAAPEAVNpArticulation@2@XZ 0000000180077250 f   NpFactory.obj
 0001:000763c0       ?releaseArticulationToPool@NpFactory@physx@@QEAAXAEAVNpArticulation@2@@Z 00000001800773c0 f   NpFactory.obj
 0001:00076430       ?createNpArticulationLink@NpFactory@physx@@QEAAPEAVNpArticulationLink@2@AEAVNpArticulation@2@PEAV32@AEBVPxTransform@2@@Z 0000000180077430 f   NpFactory.obj
 0001:000765c0       ?releaseArticulationLinkToPool@NpFactory@physx@@QEAAXAEAVNpArticulationLink@2@@Z 00000001800775c0 f   NpFactory.obj
 0001:00076630       ?createArticulationLink@NpFactory@physx@@QEAAPEAVPxArticulationLink@2@AEAVNpArticulation@2@PEAVNpArticulationLink@2@AEBVPxTransform@2@@Z 0000000180077630 f   NpFactory.obj
 0001:00076690       ?createNpArticulationJoint@NpFactory@physx@@QEAAPEAVNpArticulationJoint@2@AEAVNpArticulationLink@2@AEBVPxTransform@2@01@Z 0000000180077690 f   NpFactory.obj
 0001:00076830       ?releaseArticulationJointToPool@NpFactory@physx@@QEAAXAEAVNpArticulationJoint@2@@Z 0000000180077830 f   NpFactory.obj
 0001:000768a0       ?addAggregate@NpFactory@physx@@QEAAXPEAVPxAggregate@2@_N@Z 00000001800778a0 f   NpFactory.obj
 0001:00076920       ?createAggregate@NpFactory@physx@@QEAAPEAVPxAggregate@2@I_N@Z 0000000180077920 f   NpFactory.obj
 0001:00076af0       ?releaseAggregateToPool@NpFactory@physx@@QEAAXAEAVNpAggregate@2@@Z 0000000180077af0 f   NpFactory.obj
 0001:00076b60       ?createNpParticleSystem@NpFactory@physx@@QEAAPEAVNpParticleSystem@2@I_N@Z 0000000180077b60 f   NpFactory.obj
 0001:00076ce0       ?releaseParticleSystemToPool@NpFactory@physx@@QEAAXAEAVNpParticleSystem@2@@Z 0000000180077ce0 f   NpFactory.obj
 0001:00076d50       ?createNpParticleFluid@NpFactory@physx@@QEAAPEAVNpParticleFluid@2@I_N@Z 0000000180077d50 f   NpFactory.obj
 0001:00076ed0       ?releaseParticleFluidToPool@NpFactory@physx@@QEAAXAEAVNpParticleFluid@2@@Z 0000000180077ed0 f   NpFactory.obj
 0001:00076f40       ?addParticleSystem@NpFactory@physx@@QEAAXPEAVPxParticleSystem@2@_N@Z 0000000180077f40 f   NpFactory.obj
 0001:00076f60       ?createParticleSystem@NpFactory@physx@@QEAAPEAVPxParticleSystem@2@I_N@Z 0000000180077f60 f   NpFactory.obj
 0001:00077050       ?addParticleFluid@NpFactory@physx@@QEAAXPEAVPxParticleFluid@2@_N@Z 0000000180078050 f   NpFactory.obj
 0001:00077070       ?createParticleFluid@NpFactory@physx@@QEAAPEAVPxParticleFluid@2@I_N@Z 0000000180078070 f   NpFactory.obj
 0001:00077160       ?createNpCloth@NpFactory@physx@@QEAAPEAVNpCloth@2@AEBVPxTransform@2@AEAVPxClothFabric@2@PEBUPxClothParticle@2@V?$PxFlags@W4Enum@PxClothFlag@physx@@G@2@@Z 0000000180078160 f   NpFactory.obj
 0001:00077310       ?releaseClothToPool@NpFactory@physx@@QEAAXAEAVNpCloth@2@@Z 0000000180078310 f   NpFactory.obj
 0001:00077380       ?addCloth@NpFactory@physx@@QEAAXPEAVPxCloth@2@_N@Z 0000000180078380 f   NpFactory.obj
 0001:000773a0       ?addClothFabric@NpFactory@physx@@QEAAXPEAVNpClothFabric@2@_N@Z 00000001800783a0 f   NpFactory.obj
 0001:000774c0       ?createClothFabric@NpFactory@physx@@QEAAPEAVPxClothFabric@2@AEAVPxInputStream@2@@Z 00000001800784c0 f   NpFactory.obj
 0001:00077540       ?createClothFabric@NpFactory@physx@@QEAAPEAVPxClothFabric@2@AEBVPxClothFabricDesc@2@@Z 0000000180078540 f   NpFactory.obj
 0001:000775c0       ?createNpClothFabric@NpFactory@physx@@QEAAPEAVNpClothFabric@2@XZ 00000001800785c0 f   NpFactory.obj
 0001:00077620       ?releaseClothFabricToPool@NpFactory@physx@@QEAAXAEAVNpClothFabric@2@@Z 0000000180078620 f   NpFactory.obj
 0001:00077690       ?removeClothFabric@NpFactory@physx@@QEAA_NAEAVPxClothFabric@2@@Z 0000000180078690 f   NpFactory.obj
 0001:00077720       ?getNbClothFabrics@NpFactory@physx@@QEBAIXZ 0000000180078720 f   NpFactory.obj
 0001:00077730       ?getClothFabrics@NpFactory@physx@@QEBAIPEAPEAVPxClothFabric@2@I@Z 0000000180078730 f   NpFactory.obj
 0001:00077790       ?createCloth@NpFactory@physx@@QEAAPEAVPxCloth@2@AEBVPxTransform@2@AEAVPxClothFabric@2@PEBUPxClothParticle@2@V?$PxFlags@W4Enum@PxClothFlag@physx@@G@2@@Z 0000000180078790 f   NpFactory.obj
 0001:00077950       ?createMaterial@NpFactory@physx@@QEAAPEAVPxMaterial@2@MMM@Z 0000000180078950 f   NpFactory.obj
 0001:00077b90       ?releaseMaterialToPool@NpFactory@physx@@QEAAXAEAVNpMaterial@2@@Z 0000000180078b90 f   NpFactory.obj
 0001:00077c00       ?onActorRelease@NpFactory@physx@@QEAAXPEAVPxActor@2@@Z 0000000180078c00 f   NpFactory.obj
 0001:00077d20       ?onConstraintRelease@NpFactory@physx@@QEAAXPEAVPxConstraint@2@@Z 0000000180078d20 f   NpFactory.obj
 0001:00077e40       ?onAggregateRelease@NpFactory@physx@@QEAAXPEAVPxAggregate@2@@Z 0000000180078e40 f   NpFactory.obj
 0001:00077f60       ?onArticulationRelease@NpFactory@physx@@QEAAXPEAVPxArticulation@2@@Z 0000000180078f60 f   NpFactory.obj
 0001:00078080       ?onShapeRelease@NpFactory@physx@@QEAAXPEAVPxShape@2@@Z 0000000180079080 f   NpFactory.obj
 0001:000780c0       ?acquireConnectorArray@NpFactory@physx@@QEAAPEAVNpConnectorArray@2@XZ 00000001800790c0 f   NpFactory.obj
 0001:000781e0       ?releaseConnectorArray@NpFactory@physx@@QEAAXPEAVNpConnectorArray@2@@Z 00000001800791e0 f   NpFactory.obj
 0001:00078270       ?setNpFactoryListener@NpFactory@physx@@QEAAXAEAVNpFactoryListener@2@@Z 0000000180079270 f   NpFactory.obj
 0001:00078290       ?notifyReleaseTriangleMesh@NpFactory@physx@@EEAAXAEBVPxTriangleMesh@2@@Z 0000000180079290 f   NpFactory.obj
 0001:000782d0       ?notifyReleaseHeightField@NpFactory@physx@@EEAAXAEBVPxHeightField@2@@Z 00000001800792d0 f   NpFactory.obj
 0001:00078310       ?notifyReleaseConvexMesh@NpFactory@physx@@EEAAXAEBVPxConvexMesh@2@@Z 0000000180079310 f   NpFactory.obj
 0001:00078350       ?NpDestroy@physx@@YAXAEAVBase@Scb@1@@Z 0000000180079350 f   NpFactory.obj
 0001:0007b470       ??0?$InlineArray@PEAX$0EA@VNamedAllocator@shdfnd@physx@@@shdfnd@physx@@QEAA@AEBVNamedAllocator@12@@Z 000000018007c470 f i NpFactory.obj
 0001:0007b590       ??0NpConnectorArray@physx@@QEAA@XZ 000000018007c590 f i NpFactory.obj
 0001:0007b790       ??1?$PoolBase@V?$PtrBlock@$03@NpPtrTableStorageManager@physx@@VNamedAllocator@shdfnd@3@@shdfnd@physx@@QEAA@XZ 000000018007c790 f i NpFactory.obj
 0001:0007ba30       ??1?$PoolBase@V?$PtrBlock@$0BA@@NpPtrTableStorageManager@physx@@VNamedAllocator@shdfnd@3@@shdfnd@physx@@QEAA@XZ 000000018007ca30 f i NpFactory.obj
 0001:0007bcd0       ??1?$PoolBase@V?$PtrBlock@$0EA@@NpPtrTableStorageManager@physx@@VNamedAllocator@shdfnd@3@@shdfnd@physx@@QEAA@XZ 000000018007ccd0 f i NpFactory.obj
 0001:0007bf70       ??1?$PoolBase@VNpAggregate@physx@@VNamedAllocator@shdfnd@2@@shdfnd@physx@@QEAA@XZ 000000018007cf70 f i NpFactory.obj
 0001:0007c240       ??1?$PoolBase@VNpArticulation@physx@@VNamedAllocator@shdfnd@2@@shdfnd@physx@@QEAA@XZ 000000018007d240 f i NpFactory.obj
 0001:0007c510       ??1?$PoolBase@VNpArticulationJoint@physx@@VNamedAllocator@shdfnd@2@@shdfnd@physx@@QEAA@XZ 000000018007d510 f i NpFactory.obj
 0001:0007c7e0       ??1?$PoolBase@VNpArticulationLink@physx@@VNamedAllocator@shdfnd@2@@shdfnd@physx@@QEAA@XZ 000000018007d7e0 f i NpFactory.obj
 0001:0007cab0       ??1?$PoolBase@VNpCloth@physx@@VNamedAllocator@shdfnd@2@@shdfnd@physx@@QEAA@XZ 000000018007dab0 f i NpFactory.obj
 0001:0007cd80       ??1?$PoolBase@VNpClothFabric@physx@@VNamedAllocator@shdfnd@2@@shdfnd@physx@@QEAA@XZ 000000018007dd80 f i NpFactory.obj
 0001:0007d050       ??1?$PoolBase@VNpConnectorArray@physx@@VNamedAllocator@shdfnd@2@@shdfnd@physx@@QEAA@XZ 000000018007e050 f i NpFactory.obj
 0001:0007d150       ??1?$PoolBase@VNpConstraint@physx@@VNamedAllocator@shdfnd@2@@shdfnd@physx@@QEAA@XZ 000000018007e150 f i NpFactory.obj
 0001:0007d420       ??1?$PoolBase@VNpMaterial@physx@@VNamedAllocator@shdfnd@2@@shdfnd@physx@@QEAA@XZ 000000018007e420 f i NpFactory.obj
 0001:0007d6f0       ??1?$PoolBase@VNpParticleFluid@physx@@VNamedAllocator@shdfnd@2@@shdfnd@physx@@QEAA@XZ 000000018007e6f0 f i NpFactory.obj
 0001:0007d9c0       ??1?$PoolBase@VNpParticleSystem@physx@@VNamedAllocator@shdfnd@2@@shdfnd@physx@@QEAA@XZ 000000018007e9c0 f i NpFactory.obj
 0001:0007dc90       ??1?$PoolBase@VNpRigidDynamic@physx@@VNamedAllocator@shdfnd@2@@shdfnd@physx@@QEAA@XZ 000000018007ec90 f i NpFactory.obj
 0001:0007df60       ??1?$PoolBase@VNpRigidStatic@physx@@VNamedAllocator@shdfnd@2@@shdfnd@physx@@QEAA@XZ 000000018007ef60 f i NpFactory.obj
 0001:0007e230       ??1?$PoolBase@VNpShape@physx@@VNamedAllocator@shdfnd@2@@shdfnd@physx@@QEAA@XZ 000000018007f230 f i NpFactory.obj
 0001:0007e500       ??1PtrTableStorageManager@Cm@physx@@MEAA@XZ 000000018007f500 f i NpFactory.obj
 0001:0007e510       ??_GNpFactory@physx@@EEAAPEAXI@Z 000000018007f510 f i NpFactory.obj
 0001:0007e510       ??_ENpFactory@physx@@EEAAPEAXI@Z 000000018007f510 f i NpFactory.obj
 0001:0007e590       ??_GNpPtrTableStorageManager@physx@@UEAAPEAXI@Z 000000018007f590 f i NpFactory.obj
 0001:0007e590       ??_ENpPtrTableStorageManager@physx@@UEAAPEAXI@Z 000000018007f590 f i NpFactory.obj
 0001:0007e690       ??_EPtrTableStorageManager@Cm@physx@@MEAAPEAXI@Z 000000018007f690 f i NpFactory.obj
 0001:0007e690       ??_GPtrTableStorageManager@Cm@physx@@MEAAPEAXI@Z 000000018007f690 f i NpFactory.obj
 0001:0007e6d0       ?allocate@?$Array@PEAVPxActor@physx@@V?$ReflectionAllocator@PEAVPxActor@physx@@@shdfnd@2@@shdfnd@physx@@IEAAPEAPEAVPxActor@3@I@Z 000000018007f6d0 f i NpFactory.obj
 0001:0007e7d0       ?allocate@?$Array@PEAVPxAggregate@physx@@V?$ReflectionAllocator@PEAVPxAggregate@physx@@@shdfnd@2@@shdfnd@physx@@IEAAPEAPEAVPxAggregate@3@I@Z 000000018007f7d0 f i NpFactory.obj
 0001:0007e8d0       ?allocate@?$Array@PEAVPxArticulation@physx@@V?$ReflectionAllocator@PEAVPxArticulation@physx@@@shdfnd@2@@shdfnd@physx@@IEAAPEAPEAVPxArticulation@3@I@Z 000000018007f8d0 f i NpFactory.obj
 0001:0007e9d0       ?allocate@?$Array@PEAVPxConstraint@physx@@V?$ReflectionAllocator@PEAVPxConstraint@physx@@@shdfnd@2@@shdfnd@physx@@IEAAPEAPEAVPxConstraint@3@I@Z 000000018007f9d0 f i NpFactory.obj
 0001:0007ead0       ?allocate@?$Array@PEAXV?$InlineAllocator@$0CAA@VNamedAllocator@shdfnd@physx@@@shdfnd@physx@@@shdfnd@physx@@IEAAPEAPEAXI@Z 000000018007fad0 f i NpFactory.obj
 0001:0007eb70       ?allocate@?$PoolBase@VNpClothFabric@physx@@VNamedAllocator@shdfnd@2@@shdfnd@physx@@QEAAPEAVNpClothFabric@3@XZ 000000018007fb70 f i NpFactory.obj
 0001:0007ed00       ?allocate@NpPtrTableStorageManager@physx@@UEAAPEAPEAXI@Z 000000018007fd00 f i NpFactory.obj
 0001:0007f1b0       ?canReuse@NpPtrTableStorageManager@physx@@UEAA_NII@Z 00000001800801b0 f i NpFactory.obj
 0001:0007f220       ?create@?$HashBase@PEAVPxActor@physx@@PEAV12@U?$Hash@PEAVPxActor@physx@@@shdfnd@2@UGetKey@?$HashSetBase@PEAVPxActor@physx@@U?$Hash@PEAVPxActor@physx@@@shdfnd@2@VNonTrackingAllocator@42@$0A@@internal@42@VNonTrackingAllocator@42@$0A@@internal@shdfnd@physx@@QEAAPEAPEAVPxActor@4@AEBQEAV54@AEA_N@Z 0000000180080220 f i NpFactory.obj
 0001:0007f430       ?create@?$HashBase@PEAVPxAggregate@physx@@PEAV12@U?$Hash@PEAVPxAggregate@physx@@@shdfnd@2@UGetKey@?$HashSetBase@PEAVPxAggregate@physx@@U?$Hash@PEAVPxAggregate@physx@@@shdfnd@2@VNonTrackingAllocator@42@$0A@@internal@42@VNonTrackingAllocator@42@$0A@@internal@shdfnd@physx@@QEAAPEAPEAVPxAggregate@4@AEBQEAV54@AEA_N@Z 0000000180080430 f i NpFactory.obj
 0001:0007f640       ?create@?$HashBase@PEAVPxArticulation@physx@@PEAV12@U?$Hash@PEAVPxArticulation@physx@@@shdfnd@2@UGetKey@?$HashSetBase@PEAVPxArticulation@physx@@U?$Hash@PEAVPxArticulation@physx@@@shdfnd@2@VNonTrackingAllocator@42@$0A@@internal@42@VNonTrackingAllocator@42@$0A@@internal@shdfnd@physx@@QEAAPEAPEAVPxArticulation@4@AEBQEAV54@AEA_N@Z 0000000180080640 f i NpFactory.obj
 0001:0007f850       ?create@?$HashBase@PEAVPxConstraint@physx@@PEAV12@U?$Hash@PEAVPxConstraint@physx@@@shdfnd@2@UGetKey@?$HashSetBase@PEAVPxConstraint@physx@@U?$Hash@PEAVPxConstraint@physx@@@shdfnd@2@VNonTrackingAllocator@42@$0A@@internal@42@VNonTrackingAllocator@42@$0A@@internal@shdfnd@physx@@QEAAPEAPEAVPxConstraint@4@AEBQEAV54@AEA_N@Z 0000000180080850 f i NpFactory.obj
 0001:0007fa60       ?create@?$HashBase@PEAVPxShape@physx@@PEAV12@U?$Hash@PEAVPxShape@physx@@@shdfnd@2@UGetKey@?$HashSetBase@PEAVPxShape@physx@@U?$Hash@PEAVPxShape@physx@@@shdfnd@2@VNonTrackingAllocator@42@$00@internal@42@VNonTrackingAllocator@42@$00@internal@shdfnd@physx@@QEAAPEAPEAVPxShape@4@AEBQEAV54@AEA_N@Z 0000000180080a60 f i NpFactory.obj
 0001:0007fc60       ?deallocate@NpPtrTableStorageManager@physx@@UEAAXPEAPEAXI@Z 0000000180080c60 f i NpFactory.obj
 0001:0007fd60       ?disposeElements@?$PoolBase@VNpConnectorArray@physx@@VNamedAllocator@shdfnd@2@@shdfnd@physx@@IEAAXXZ 0000000180080d60 f i NpFactory.obj
 0001:0007ffc0       ?erase@?$HashBase@PEAVPxShape@physx@@PEAV12@U?$Hash@PEAVPxShape@physx@@@shdfnd@2@UGetKey@?$HashSetBase@PEAVPxShape@physx@@U?$Hash@PEAVPxShape@physx@@@shdfnd@2@VNonTrackingAllocator@42@$00@internal@42@VNonTrackingAllocator@42@$00@internal@shdfnd@physx@@QEAA_NAEBQEAVPxShape@4@@Z 0000000180080fc0 f i NpFactory.obj
 0001:000801a0       ?growAndPushBack@?$Array@PEAVNpClothFabric@physx@@VNamedAllocator@shdfnd@2@@shdfnd@physx@@IEAAAEAPEAVNpClothFabric@3@AEBQEAV43@@Z 00000001800811a0 f i NpFactory.obj
 0001:000802d0       ?growAndPushBack@?$Array@PEAVPxActor@physx@@V?$ReflectionAllocator@PEAVPxActor@physx@@@shdfnd@2@@shdfnd@physx@@IEAAAEAPEAVPxActor@3@AEBQEAV43@@Z 00000001800812d0 f i NpFactory.obj
 0001:000803e0       ?growAndPushBack@?$Array@PEAVPxAggregate@physx@@V?$ReflectionAllocator@PEAVPxAggregate@physx@@@shdfnd@2@@shdfnd@physx@@IEAAAEAPEAVPxAggregate@3@AEBQEAV43@@Z 00000001800813e0 f i NpFactory.obj
 0001:000804f0       ?growAndPushBack@?$Array@PEAVPxArticulation@physx@@V?$ReflectionAllocator@PEAVPxArticulation@physx@@@shdfnd@2@@shdfnd@physx@@IEAAAEAPEAVPxArticulation@3@AEBQEAV43@@Z 00000001800814f0 f i NpFactory.obj
 0001:00080600       ?growAndPushBack@?$Array@PEAVPxConstraint@physx@@V?$ReflectionAllocator@PEAVPxConstraint@physx@@@shdfnd@2@@shdfnd@physx@@IEAAAEAPEAVPxConstraint@3@AEBQEAV43@@Z 0000000180081600 f i NpFactory.obj
 0001:00080710       ?growAndPushBack@?$Array@PEAXV?$InlineAllocator@$0CAA@VNamedAllocator@shdfnd@physx@@@shdfnd@physx@@@shdfnd@physx@@IEAAAEAPEAXAEBQEAX@Z 0000000180081710 f i NpFactory.obj
 0001:00080840       ?isValid@PxBoxGeometry@physx@@QEBA_NXZ 0000000180081840 f i NpFactory.obj
 0001:000808d0       ?isValid@PxCapsuleGeometry@physx@@QEBA_NXZ 00000001800818d0 f i NpFactory.obj
 0001:00080940       ?isValid@PxConvexMeshGeometry@physx@@QEBA_NXZ 0000000180081940 f i NpFactory.obj
 0001:00080a20       ?isValid@PxHeightFieldGeometry@physx@@QEBA_NXZ 0000000180081a20 f i NpFactory.obj
 0001:00080ad0       ?isValid@PxSphereGeometry@physx@@QEBA_NXZ 0000000180081ad0 f i NpFactory.obj
 0001:00080b20       ?isValid@PxTriangleMeshGeometry@physx@@QEBA_NXZ 0000000180081b20 f i NpFactory.obj
 0001:00080c10       ?recreate@?$Array@GV?$InlineAllocator@$07VNamedAllocator@shdfnd@physx@@@shdfnd@physx@@@shdfnd@physx@@IEAAXI@Z 0000000180081c10 f i NpFactory.obj
 0001:00080d60       ?recreate@?$Array@PEAVNpClothFabric@physx@@VNamedAllocator@shdfnd@2@@shdfnd@physx@@IEAAXI@Z 0000000180081d60 f i NpFactory.obj
 0001:00080e70       ?recreate@?$Array@PEAVPxActor@physx@@V?$ReflectionAllocator@PEAVPxActor@physx@@@shdfnd@2@@shdfnd@physx@@IEAAXI@Z 0000000180081e70 f i NpFactory.obj
 0001:00080f50       ?recreate@?$Array@PEAVPxAggregate@physx@@V?$ReflectionAllocator@PEAVPxAggregate@physx@@@shdfnd@2@@shdfnd@physx@@IEAAXI@Z 0000000180081f50 f i NpFactory.obj
 0001:00081030       ?recreate@?$Array@PEAVPxArticulation@physx@@V?$ReflectionAllocator@PEAVPxArticulation@physx@@@shdfnd@2@@shdfnd@physx@@IEAAXI@Z 0000000180082030 f i NpFactory.obj
 0001:00081110       ?recreate@?$Array@PEAVPxConstraint@physx@@V?$ReflectionAllocator@PEAVPxConstraint@physx@@@shdfnd@2@@shdfnd@physx@@IEAAXI@Z 0000000180082110 f i NpFactory.obj
 0001:000811f0       ?reserveInternal@?$HashBase@PEAVPxActor@physx@@PEAV12@U?$Hash@PEAVPxActor@physx@@@shdfnd@2@UGetKey@?$HashSetBase@PEAVPxActor@physx@@U?$Hash@PEAVPxActor@physx@@@shdfnd@2@VNonTrackingAllocator@42@$0A@@internal@42@VNonTrackingAllocator@42@$0A@@internal@shdfnd@physx@@AEAAXI@Z 00000001800821f0 f i NpFactory.obj
 0001:000816a0       ?reserveInternal@?$HashBase@PEAVPxAggregate@physx@@PEAV12@U?$Hash@PEAVPxAggregate@physx@@@shdfnd@2@UGetKey@?$HashSetBase@PEAVPxAggregate@physx@@U?$Hash@PEAVPxAggregate@physx@@@shdfnd@2@VNonTrackingAllocator@42@$0A@@internal@42@VNonTrackingAllocator@42@$0A@@internal@shdfnd@physx@@AEAAXI@Z 00000001800826a0 f i NpFactory.obj
 0001:00081b50       ?reserveInternal@?$HashBase@PEAVPxArticulation@physx@@PEAV12@U?$Hash@PEAVPxArticulation@physx@@@shdfnd@2@UGetKey@?$HashSetBase@PEAVPxArticulation@physx@@U?$Hash@PEAVPxArticulation@physx@@@shdfnd@2@VNonTrackingAllocator@42@$0A@@internal@42@VNonTrackingAllocator@42@$0A@@internal@shdfnd@physx@@AEAAXI@Z 0000000180082b50 f i NpFactory.obj
 0001:00082000       ?reserveInternal@?$HashBase@PEAVPxConstraint@physx@@PEAV12@U?$Hash@PEAVPxConstraint@physx@@@shdfnd@2@UGetKey@?$HashSetBase@PEAVPxConstraint@physx@@U?$Hash@PEAVPxConstraint@physx@@@shdfnd@2@VNonTrackingAllocator@42@$0A@@internal@42@VNonTrackingAllocator@42@$0A@@internal@shdfnd@physx@@AEAAXI@Z 0000000180083000 f i NpFactory.obj
 0001:000824b0       ?reserveInternal@?$HashBase@PEAVPxShape@physx@@PEAV12@U?$Hash@PEAVPxShape@physx@@@shdfnd@2@UGetKey@?$HashSetBase@PEAVPxShape@physx@@U?$Hash@PEAVPxShape@physx@@@shdfnd@2@VNonTrackingAllocator@42@$00@internal@42@VNonTrackingAllocator@42@$00@internal@shdfnd@physx@@AEAAXI@Z 00000001800834b0 f i NpFactory.obj
 0001:00082700       ?resize@?$Array@GV?$InlineAllocator@$07VNamedAllocator@shdfnd@physx@@@shdfnd@physx@@@shdfnd@physx@@QEAAXIAEBG@Z 0000000180083700 f i NpFactory.obj
 0001:00082820       ?onRefCountZero@NpMaterial@physx@@UEAAXXZ 0000000180083820 f   NpMaterial.obj
 0001:00082880       ?resolveReferences@NpMaterial@physx@@UEAAXAEAVPxDeserializationContext@2@@Z 0000000180083880 f   NpMaterial.obj
 0001:000828a0       ?createObject@NpMaterial@physx@@SAPEAV12@AEAPEAEAEAVPxDeserializationContext@2@@Z 00000001800838a0 f   NpMaterial.obj
 0001:00082930       ??0NpMaterial@physx@@QEAA@AEBVMaterialCore@Sc@1@@Z 0000000180083930 f   NpMaterial.obj
 0001:000829d0       ??1NpMaterial@physx@@UEAA@XZ 00000001800839d0 f   NpMaterial.obj
 0001:00082a30       ?release@NpMaterial@physx@@UEAAXXZ 0000000180083a30 f   NpMaterial.obj
 0001:00082a70       ?acquireReference@NpMaterial@physx@@UEAAXXZ 0000000180083a70 f   NpMaterial.obj
 0001:00082a90       ?getReferenceCount@NpMaterial@physx@@UEBAIXZ 0000000180083a90 f   NpMaterial.obj
 0001:00082aa0       ?setDynamicFriction@NpMaterial@physx@@UEAAXM@Z 0000000180083aa0 f   NpMaterial.obj
 0001:00082b50       ?getDynamicFriction@NpMaterial@physx@@UEBAMXZ 0000000180083b50 f   NpMaterial.obj
 0001:00082b60       ?setStaticFriction@NpMaterial@physx@@UEAAXM@Z 0000000180083b60 f   NpMaterial.obj
 0001:00082c10       ?getStaticFriction@NpMaterial@physx@@UEBAMXZ 0000000180083c10 f   NpMaterial.obj
 0001:00082c20       ?setRestitution@NpMaterial@physx@@UEAAXM@Z 0000000180083c20 f   NpMaterial.obj
 0001:00082d60       ?getRestitution@NpMaterial@physx@@UEBAMXZ 0000000180083d60 f   NpMaterial.obj
 0001:00082d70       ?setFlag@NpMaterial@physx@@UEAAXW4Enum@PxMaterialFlag@2@_N@Z 0000000180083d70 f   NpMaterial.obj
 0001:00082db0       ?setFlags@NpMaterial@physx@@UEAAXV?$PxFlags@W4Enum@PxMaterialFlag@physx@@G@2@@Z 0000000180083db0 f   NpMaterial.obj
 0001:00082dd0       ?getFlags@NpMaterial@physx@@UEBA?AV?$PxFlags@W4Enum@PxMaterialFlag@physx@@G@2@XZ 0000000180083dd0 f   NpMaterial.obj
 0001:00082df0       ?setFrictionCombineMode@NpMaterial@physx@@UEAAXW4Enum@PxCombineMode@2@@Z 0000000180083df0 f   NpMaterial.obj
 0001:00082e10       ?getFrictionCombineMode@NpMaterial@physx@@UEBA?AW4Enum@PxCombineMode@2@XZ 0000000180083e10 f   NpMaterial.obj
 0001:00082e20       ?setRestitutionCombineMode@NpMaterial@physx@@UEAAXW4Enum@PxCombineMode@2@@Z 0000000180083e20 f   NpMaterial.obj
 0001:00082e40       ?getRestitutionCombineMode@NpMaterial@physx@@UEBA?AW4Enum@PxCombineMode@2@XZ 0000000180083e40 f   NpMaterial.obj
 0001:00082fe0       ??1PxMaterial@physx@@MEAA@XZ 0000000180083fe0 f i NpMaterial.obj
 0001:00082ff0       ??_ENpMaterial@physx@@WBI@EAAPEAXI@Z 0000000180083ff0 f i NpMaterial.obj
 0001:00083000       ??_ENpMaterial@physx@@UEAAPEAXI@Z 0000000180084000 f i NpMaterial.obj
 0001:00083000       ??_GNpMaterial@physx@@UEAAPEAXI@Z 0000000180084000 f i NpMaterial.obj
 0001:000830c0       ??_EPxMaterial@physx@@MEAAPEAXI@Z 00000001800840c0 f i NpMaterial.obj
 0001:000830c0       ??_GPxMaterial@physx@@MEAAPEAXI@Z 00000001800840c0 f i NpMaterial.obj
 0001:00083100       ?getConcreteTypeName@PxMaterial@physx@@UEBAPEBDXZ 0000000180084100 f i NpMaterial.obj
 0001:00083110       ?isKindOf@PxMaterial@physx@@MEBA_NPEBD@Z 0000000180084110 f i NpMaterial.obj
 0001:00083170       ?requires@NpMaterial@physx@@UEAAXAEAVPxProcessPxBaseCallback@2@@Z 0000000180084170 f i NpMaterial.obj
 0001:00083180       PxGetPhysicsBinaryMetaData 0000000180084180 f   NpMetaData.obj
 0001:00084080       ?getBinaryMetaData_PxBase@physx@@YAXAEAVPxOutputStream@1@@Z 0000000180085080 f   NpMetaData.obj
 0001:000841d0       ?getBinaryMetaData@RefCountable@Cm@physx@@SAXAEAVPxOutputStream@3@@Z 00000001800851d0 f   NpMetaData.obj
 0001:00084270       ?getBinaryMetaData@NpMaterial@physx@@SAXAEAVPxOutputStream@2@@Z 0000000180085270 f   NpMetaData.obj
 0001:000843d0       ?getBinaryMetaData@NpShape@physx@@SAXAEAVPxOutputStream@2@@Z 00000001800853d0 f   NpMetaData.obj
 0001:00084660       ?getBinaryMetaData@NpShapeManager@physx@@SAXAEAVPxOutputStream@2@@Z 0000000180085660 f   NpMetaData.obj
 0001:00084790       ?getBinaryMetaData@NpConstraint@physx@@SAXAEAVPxOutputStream@2@@Z 0000000180085790 f   NpMetaData.obj
 0001:00084970       ?getBinaryMetaData@NpConnector@physx@@SAXAEAVPxOutputStream@2@@Z 0000000180085970 f   NpMetaData.obj
 0001:00084aa0       ?getBinaryMetaData@NpConnectorArray@physx@@SAXAEAVPxOutputStream@2@@Z 0000000180085aa0 f   NpMetaData.obj
 0001:00084cd0       ?getBinaryMetaData@NpActor@physx@@SAXAEAVPxOutputStream@2@@Z 0000000180085cd0 f   NpMetaData.obj
 0001:00084dc0       ?getBinaryMetaData@NpRigidStatic@physx@@SAXAEAVPxOutputStream@2@@Z 0000000180085dc0 f   NpMetaData.obj
 0001:00085020       ?getBinaryMetaData@NpRigidDynamic@physx@@SAXAEAVPxOutputStream@2@@Z 0000000180086020 f   NpMetaData.obj
 0001:00085280       ?getBinaryMetaData@NpArticulationLinkArray@physx@@SAXAEAVPxOutputStream@2@@Z 0000000180086280 f   NpMetaData.obj
 0001:000854b0       ?getBinaryMetaData@NpArticulationLink@physx@@SAXAEAVPxOutputStream@2@@Z 00000001800864b0 f   NpMetaData.obj
 0001:00085810       ?getBinaryMetaData@NpArticulation@physx@@SAXAEAVPxOutputStream@2@@Z 0000000180086810 f   NpMetaData.obj
 0001:00085a30       ?getBinaryMetaData@NpArticulationJoint@physx@@SAXAEAVPxOutputStream@2@@Z 0000000180086a30 f   NpMetaData.obj
 0001:00085b90       ?getBinaryMetaData@NpClothFabric@physx@@SAXAEAVPxOutputStream@2@@Z 0000000180086b90 f   NpMetaData.obj
 0001:00085cb0       ?getBinaryMetaData@NpCloth@physx@@SAXAEAVPxOutputStream@2@@Z 0000000180086cb0 f   NpMetaData.obj
 0001:00085ea0       ?getBinaryMetaData@NpAggregate@physx@@SAXAEAVPxOutputStream@2@@Z 0000000180086ea0 f   NpMetaData.obj
 0001:00086050       ?getBinaryMetaData@NpParticleSystem@physx@@SAXAEAVPxOutputStream@2@@Z 0000000180087050 f   NpMetaData.obj
 0001:000861b0       ?getBinaryMetaData@NpParticleFluid@physx@@SAXAEAVPxOutputStream@2@@Z 00000001800871b0 f   NpMetaData.obj
 0001:000884b0       PxRegisterArticulations    00000001800894b0 f   NpPhysics.obj
 0001:000884d0       PxRegisterHeightFields     00000001800894d0 f   NpPhysics.obj
 0001:00088530       PxRegisterLegacyHeightFields 0000000180089530 f   NpPhysics.obj
 0001:00088590       PxRegisterCloth            0000000180089590 f   NpPhysics.obj
 0001:00088600       PxRegisterParticles        0000000180089600 f   NpPhysics.obj
 0001:00088620       PxCreateBasePhysics        0000000180089620 f   NpPhysics.obj
 0001:00088630       PxGetPhysics               0000000180089630 f   NpPhysics.obj
 0001:00088640       ??0NpPhysics@physx@@AEAA@AEBVPxTolerancesScale@1@AEBUPxvOffsetTable@1@_NPEAVPsPvd@pvdsdk@1@@Z 0000000180089640 f   NpPhysics.obj
 0001:00088a80       ??1NpPhysics@physx@@EEAA@XZ 0000000180089a80 f   NpPhysics.obj
 0001:00088e70       ?createInstance@NpPhysics@physx@@SAPEAV12@IAEAVPxFoundation@2@AEBVPxTolerancesScale@2@_NPEAVPsPvd@pvdsdk@2@@Z 0000000180089e70 f   NpPhysics.obj
 0001:000891d0       ?releaseInstance@NpPhysics@physx@@SAIXZ 000000018008a1d0 f   NpPhysics.obj
 0001:00089260       ?release@NpPhysics@physx@@UEAAXXZ 000000018008a260 f   NpPhysics.obj
 0001:000892f0       ?createScene@NpPhysics@physx@@UEAAPEAVPxScene@2@AEBVPxSceneDesc@2@@Z 000000018008a2f0 f   NpPhysics.obj
 0001:000895c0       ?releaseSceneInternal@NpPhysics@physx@@QEAAXAEAVPxScene@2@@Z 000000018008a5c0 f   NpPhysics.obj
 0001:00089640       ?getNbScenes@NpPhysics@physx@@UEBAIXZ 000000018008a640 f   NpPhysics.obj
 0001:00089680       ?getScenes@NpPhysics@physx@@UEBAIPEAPEAVPxScene@2@II@Z 000000018008a680 f   NpPhysics.obj
 0001:00089720       ?createRigidStatic@NpPhysics@physx@@UEAAPEAVPxRigidStatic@2@AEBVPxTransform@2@@Z 000000018008a720 f   NpPhysics.obj
 0001:00089960       ?createRigidDynamic@NpPhysics@physx@@UEAAPEAVPxRigidDynamic@2@AEBVPxTransform@2@@Z 000000018008a960 f   NpPhysics.obj
 0001:00089ba0       ?createArticulation@NpPhysics@physx@@UEAAPEAVPxArticulation@2@XZ 000000018008aba0 f   NpPhysics.obj
 0001:00089bc0       ?createConstraint@NpPhysics@physx@@UEAAPEAVPxConstraint@2@PEAVPxRigidActor@2@0AEAVPxConstraintConnector@2@AEBUPxConstraintShaderTable@2@I@Z 000000018008abc0 f   NpPhysics.obj
 0001:00089be0       ?createAggregate@NpPhysics@physx@@UEAAPEAVPxAggregate@2@I_N@Z 000000018008abe0 f   NpPhysics.obj
 0001:00089c00       ?createShape@NpPhysics@physx@@UEAAPEAVPxShape@2@AEBVPxGeometry@2@PEBQEAVPxMaterial@2@G_NV?$PxFlags@W4Enum@PxShapeFlag@physx@@E@2@@Z 000000018008ac00 f   NpPhysics.obj
 0001:00089d10       ?getNbShapes@NpPhysics@physx@@UEBAIXZ 000000018008ad10 f   NpPhysics.obj
 0001:00089d30       ?getShapes@NpPhysics@physx@@UEBAIPEAPEAVPxShape@2@II@Z 000000018008ad30 f   NpPhysics.obj
 0001:00089d50       ?createParticleSystem@NpPhysics@physx@@UEAAPEAVPxParticleSystem@2@I_N@Z 000000018008ad50 f   NpPhysics.obj
 0001:00089d70       ?createParticleFluid@NpPhysics@physx@@UEAAPEAVPxParticleFluid@2@I_N@Z 000000018008ad70 f   NpPhysics.obj
 0001:00089d90       ?createCloth@NpPhysics@physx@@UEAAPEAVPxCloth@2@AEBVPxTransform@2@AEAVPxClothFabric@2@PEBUPxClothParticle@2@V?$PxFlags@W4Enum@PxClothFlag@physx@@G@2@@Z 000000018008ad90 f   NpPhysics.obj
 0001:0008a000       ?createMaterial@NpPhysics@physx@@UEAAPEAVPxMaterial@2@MMM@Z 000000018008b000 f   NpPhysics.obj
 0001:0008a030       ?getNbMaterials@NpPhysics@physx@@UEBAIXZ 000000018008b030 f   NpPhysics.obj
 0001:0008a070       ?getMaterials@NpPhysics@physx@@UEBAIPEAPEAVPxMaterial@2@II@Z 000000018008b070 f   NpPhysics.obj
 0001:0008a130       ?createTriangleMesh@NpPhysics@physx@@UEAAPEAVPxTriangleMesh@2@AEAVPxInputStream@2@@Z 000000018008b130 f   NpPhysics.obj
 0001:0008a150       ?getNbTriangleMeshes@NpPhysics@physx@@UEBAIXZ 000000018008b150 f   NpPhysics.obj
 0001:0008a170       ?getTriangleMeshes@NpPhysics@physx@@UEBAIPEAPEAVPxTriangleMesh@2@II@Z 000000018008b170 f   NpPhysics.obj
 0001:0008a190       ?createHeightField@NpPhysics@physx@@UEAAPEAVPxHeightField@2@AEAVPxInputStream@2@@Z 000000018008b190 f   NpPhysics.obj
 0001:0008a1b0       ?getNbHeightFields@NpPhysics@physx@@UEBAIXZ 000000018008b1b0 f   NpPhysics.obj
 0001:0008a1d0       ?getHeightFields@NpPhysics@physx@@UEBAIPEAPEAVPxHeightField@2@II@Z 000000018008b1d0 f   NpPhysics.obj
 0001:0008a1f0       ?createConvexMesh@NpPhysics@physx@@UEAAPEAVPxConvexMesh@2@AEAVPxInputStream@2@@Z 000000018008b1f0 f   NpPhysics.obj
 0001:0008a210       ?getNbConvexMeshes@NpPhysics@physx@@UEBAIXZ 000000018008b210 f   NpPhysics.obj
 0001:0008a230       ?getConvexMeshes@NpPhysics@physx@@UEBAIPEAPEAVPxConvexMesh@2@II@Z 000000018008b230 f   NpPhysics.obj
 0001:0008a250       ?createClothFabric@NpPhysics@physx@@UEAAPEAVPxClothFabric@2@AEAVPxInputStream@2@@Z 000000018008b250 f   NpPhysics.obj
 0001:0008a270       ?createClothFabric@NpPhysics@physx@@UEAAPEAVPxClothFabric@2@AEBVPxClothFabricDesc@2@@Z 000000018008b270 f   NpPhysics.obj
 0001:0008a290       ?getNbClothFabrics@NpPhysics@physx@@UEBAIXZ 000000018008b290 f   NpPhysics.obj
 0001:0008a2b0       ?getClothFabrics@NpPhysics@physx@@UEBAIPEAPEAVPxClothFabric@2@I@Z 000000018008b2b0 f   NpPhysics.obj
 0001:0008a2d0       ?registerCloth@NpPhysics@physx@@QEAAXXZ 000000018008b2d0 f   NpPhysics.obj
 0001:0008a340       ?registerPhysXIndicatorGpuClient@NpPhysics@physx@@QEAAXXZ 000000018008b340 f   NpPhysics.obj
 0001:0008a390       ?unregisterPhysXIndicatorGpuClient@NpPhysics@physx@@QEAAXXZ 000000018008b390 f   NpPhysics.obj
 0001:0008a3f0       ?createPruningStructure@NpPhysics@physx@@UEAAPEAVPxPruningStructure@2@PEBQEAVPxRigidActor@2@I@Z 000000018008b3f0 f   NpPhysics.obj
 0001:0008a4e0       ?getTolerancesScale@NpPhysics@physx@@UEBAAEBVPxTolerancesScale@2@XZ 000000018008b4e0 f   NpPhysics.obj
 0001:0008a4f0       ?getFoundation@NpPhysics@physx@@UEAAAEAVPxFoundation@2@XZ 000000018008b4f0 f   NpPhysics.obj
 0001:0008a500       ?lockScene@NpPhysics@physx@@QEAA_NXZ 000000018008b500 f   NpPhysics.obj
 0001:0008a520       ?unlockScene@NpPhysics@physx@@QEAA_NXZ 000000018008b520 f   NpPhysics.obj
 0001:0008a540       ?registerDeletionListener@NpPhysics@physx@@UEAAXAEAVPxDeletionListener@2@AEBV?$PxFlags@W4Enum@PxDeletionEventFlag@physx@@E@2@_N@Z 000000018008b540 f   NpPhysics.obj
 0001:0008a750       ?unregisterDeletionListener@NpPhysics@physx@@UEAAXAEAVPxDeletionListener@2@@Z 000000018008b750 f   NpPhysics.obj
 0001:0008a8a0       ?registerDeletionListenerObjects@NpPhysics@physx@@UEAAXAEAVPxDeletionListener@2@PEBQEBVPxBase@2@I@Z 000000018008b8a0 f   NpPhysics.obj
 0001:0008aa50       ?unregisterDeletionListenerObjects@NpPhysics@physx@@UEAAXAEAVPxDeletionListener@2@PEBQEBVPxBase@2@I@Z 000000018008ba50 f   NpPhysics.obj
 0001:0008ac90       ?notifyDeletionListeners@NpPhysics@physx@@QEAAXPEBVPxBase@2@PEAXW4Enum@PxDeletionEventFlag@2@@Z 000000018008bc90 f   NpPhysics.obj
 0001:0008ade0       ?removeMaterialFromTable@NpPhysics@physx@@QEAAXAEAVNpMaterial@2@@Z 000000018008bde0 f   NpPhysics.obj
 0001:0008aea0       ?updateMaterial@NpPhysics@physx@@QEAAXAEAVNpMaterial@2@@Z 000000018008bea0 f   NpPhysics.obj
 0001:0008af20       ?sendMaterialTable@NpPhysics@physx@@QEAA_NAEAVNpScene@2@@Z 000000018008bf20 f   NpPhysics.obj
 0001:0008afa0       ?addMaterial@NpPhysics@physx@@QEAAPEAVNpMaterial@2@PEAV32@@Z 000000018008bfa0 f   NpPhysics.obj
 0001:0008b110       ?initOffsetTables@NpPhysics@physx@@SAXAEAUPxvOffsetTable@2@@Z 000000018008c110 f   NpPhysics.obj
 0001:0008b2a0       PxAddCollectionToPhysics   000000018008c2a0 f   NpPhysics.obj
 0001:0008be30       ??1GuMeshFactoryListener@physx@@MEAA@XZ 000000018008ce30 f i NpPhysics.obj
 0001:0008be40       ??1PxPhysics@physx@@UEAA@XZ 000000018008ce40 f i NpPhysics.obj
 0001:0008be50       ??1PxPhysicsInsertionCallback@physx@@MEAA@XZ 000000018008ce50 f i NpPhysics.obj
 0001:0008be60       ??_GGuMeshFactoryListener@physx@@MEAAPEAXI@Z 000000018008ce60 f i NpPhysics.obj
 0001:0008be60       ??_EGuMeshFactoryListener@physx@@MEAAPEAXI@Z 000000018008ce60 f i NpPhysics.obj
 0001:0008bea0       ??_GMeshDeletionListener@NpPhysics@physx@@UEAAPEAXI@Z 000000018008cea0 f i NpPhysics.obj
 0001:0008bea0       ??_EMeshDeletionListener@NpPhysics@physx@@UEAAPEAXI@Z 000000018008cea0 f i NpPhysics.obj
 0001:0008bee0       ??_GNpPhysics@physx@@EEAAPEAXI@Z 000000018008cee0 f i NpPhysics.obj
 0001:0008bee0       ??_ENpPhysics@physx@@EEAAPEAXI@Z 000000018008cee0 f i NpPhysics.obj
 0001:0008bf60       ??_ENpPhysicsInsertionCallback@physx@@UEAAPEAXI@Z 000000018008cf60 f i NpPhysics.obj
 0001:0008bf60       ??_GNpPhysicsInsertionCallback@physx@@UEAAPEAXI@Z 000000018008cf60 f i NpPhysics.obj
 0001:0008bfa0       ??_GPxPhysics@physx@@UEAAPEAXI@Z 000000018008cfa0 f i NpPhysics.obj
 0001:0008bfa0       ??_EPxPhysics@physx@@UEAAPEAXI@Z 000000018008cfa0 f i NpPhysics.obj
 0001:0008bfe0       ??_EPxPhysicsInsertionCallback@physx@@MEAAPEAXI@Z 000000018008cfe0 f i NpPhysics.obj
 0001:0008bfe0       ??_GPxPhysicsInsertionCallback@physx@@MEAAPEAXI@Z 000000018008cfe0 f i NpPhysics.obj
 0001:0008c020       ?buildObjectFromData@NpPhysicsInsertionCallback@physx@@UEAAPEAVPxBase@2@W4Enum@PxConcreteType@2@PEAX@Z 000000018008d020 f i NpPhysics.obj
 0001:0008c0d0       ?create@?$HashBase@PEBVPxBase@physx@@PEBV12@U?$Hash@PEBVPxBase@physx@@@shdfnd@2@UGetKey@?$HashSetBase@PEBVPxBase@physx@@U?$Hash@PEBVPxBase@physx@@@shdfnd@2@VNonTrackingAllocator@42@$0A@@internal@42@VNonTrackingAllocator@42@$0A@@internal@shdfnd@physx@@QEAAPEAPEBVPxBase@4@AEBQEBV54@AEA_N@Z 000000018008d0d0 f i NpPhysics.obj
 0001:0008c2e0       ?create@?$HashBase@V?$Pair@QEAVPxDeletionListener@physx@@PEAUNpDelListenerEntry@NpPhysics@2@@shdfnd@physx@@PEAVPxDeletionListener@3@U?$Hash@PEAVPxDeletionListener@physx@@@23@UGetKey@?$HashMapBase@PEAVPxDeletionListener@physx@@PEAUNpDelListenerEntry@NpPhysics@2@U?$Hash@PEAVPxDeletionListener@physx@@@shdfnd@2@VNonTrackingAllocator@62@@internal@23@VNonTrackingAllocator@23@$00@internal@shdfnd@physx@@QEAAPEAV?$Pair@QEAVPxDeletionListener@physx@@PEAUNpDelListenerEntry@NpPhysics@2@@34@AEBQEAVPxDeletionListener@4@AEA_N@Z 000000018008d2e0 f i NpPhysics.obj
 0001:0008c4e0       ?erase@?$HashBase@V?$Pair@QEAVPxDeletionListener@physx@@PEAUNpDelListenerEntry@NpPhysics@2@@shdfnd@physx@@PEAVPxDeletionListener@3@U?$Hash@PEAVPxDeletionListener@physx@@@23@UGetKey@?$HashMapBase@PEAVPxDeletionListener@physx@@PEAUNpDelListenerEntry@NpPhysics@2@U?$Hash@PEAVPxDeletionListener@physx@@@shdfnd@2@VNonTrackingAllocator@62@@internal@23@VNonTrackingAllocator@23@$00@internal@shdfnd@physx@@QEAA_NAEBQEAVPxDeletionListener@4@@Z 000000018008d4e0 f i NpPhysics.obj
 0001:0008c6e0       ?getNpPhysicsGpu@NpPhysics@physx@@UEAAAEAVNpPhysicsGpu@2@XZ 000000018008d6e0 f i NpPhysics.obj
 0001:0008c6f0       ?getPhysicsInsertionCallback@NpPhysics@physx@@UEAAAEAVPxPhysicsInsertionCallback@2@XZ 000000018008d6f0 f i NpPhysics.obj
 0001:0008c700       ?growAndPushBack@?$Array@IVNamedAllocator@shdfnd@physx@@@shdfnd@physx@@IEAAAEAIAEBI@Z 000000018008d700 f i NpPhysics.obj
 0001:0008c820       ?growAndPushBack@?$Array@PEAVNpScene@physx@@VNamedAllocator@shdfnd@2@@shdfnd@physx@@IEAAAEAPEAVNpScene@3@AEBQEAV43@@Z 000000018008d820 f i NpPhysics.obj
 0001:0008c950       ?isValid@PxSceneDesc@physx@@QEBA_NXZ 000000018008d950 f i NpPhysics.obj
 0001:0008cbd0       ?onGuMeshFactoryBufferRelease@MeshDeletionListener@NpPhysics@physx@@UEAAXPEBVPxBase@3@G@Z 000000018008dbd0 f i NpPhysics.obj
 0001:0008cbf0       ?reserveInternal@?$HashBase@PEBVPxBase@physx@@PEBV12@U?$Hash@PEBVPxBase@physx@@@shdfnd@2@UGetKey@?$HashSetBase@PEBVPxBase@physx@@U?$Hash@PEBVPxBase@physx@@@shdfnd@2@VNonTrackingAllocator@42@$0A@@internal@42@VNonTrackingAllocator@42@$0A@@internal@shdfnd@physx@@AEAAXI@Z 000000018008dbf0 f i NpPhysics.obj
 0001:0008d0a0       ?reserveInternal@?$HashBase@V?$Pair@QEAVPxDeletionListener@physx@@PEAUNpDelListenerEntry@NpPhysics@2@@shdfnd@physx@@PEAVPxDeletionListener@3@U?$Hash@PEAVPxDeletionListener@physx@@@23@UGetKey@?$HashMapBase@PEAVPxDeletionListener@physx@@PEAUNpDelListenerEntry@NpPhysics@2@U?$Hash@PEAVPxDeletionListener@physx@@@shdfnd@2@VNonTrackingAllocator@62@@internal@23@VNonTrackingAllocator@23@$00@internal@shdfnd@physx@@AEAAXI@Z 000000018008e0a0 f i NpPhysics.obj
 0001:0008d300       ??0PvdSceneQueryCollector@Vd@physx@@QEAA@AEAVScene@Scb@2@_N@Z 000000018008e300 f   NpPvdSceneQueryCollector.obj
 0001:0008d620       ?release@PvdSceneQueryCollector@Vd@physx@@QEAAXXZ 000000018008e620 f   NpPvdSceneQueryCollector.obj
 0001:0008d6d0       ?raycast@PvdSceneQueryCollector@Vd@physx@@QEAAXAEBVPxVec3@3@0MPEBUPxRaycastHit@3@IAEBUPxQueryFilterData@3@_N@Z 000000018008e6d0 f   NpPvdSceneQueryCollector.obj
 0001:0008d800       ?sweep@PvdSceneQueryCollector@Vd@physx@@QEAAXAEBVPxGeometry@3@AEBVPxTransform@3@AEBVPxVec3@3@MPEBUPxSweepHit@3@IAEBUPxQueryFilterData@3@_N@Z 000000018008e800 f   NpPvdSceneQueryCollector.obj
 0001:0008de30       ?overlapMultiple@PvdSceneQueryCollector@Vd@physx@@QEAAXAEBVPxGeometry@3@AEBVPxTransform@3@PEBUPxOverlapHit@3@IAEBUPxQueryFilterData@3@@Z 000000018008ee30 f   NpPvdSceneQueryCollector.obj
 0001:0008e170       ?collectAllBatchedHits@PvdSceneQueryCollector@Vd@physx@@QEAAXPEBU?$PxBatchQueryResult@UPxRaycastHit@physx@@@3@IIPEBU?$PxBatchQueryResult@UPxOverlapHit@physx@@@3@IIPEBU?$PxBatchQueryResult@UPxSweepHit@physx@@@3@II@Z 000000018008f170 f   NpPvdSceneQueryCollector.obj
 0001:0008f060       ?growAndPushBack@?$Array@UPvdOverlap@Vd@physx@@VNamedAllocator@shdfnd@3@@shdfnd@physx@@IEAAAEAUPvdOverlap@Vd@3@AEBU453@@Z 0000000180090060 f i NpPvdSceneQueryCollector.obj
 0001:0008f4c0       ?growAndPushBack@?$Array@UPvdRaycast@Vd@physx@@VNamedAllocator@shdfnd@3@@shdfnd@physx@@IEAAAEAUPvdRaycast@Vd@3@AEBU453@@Z 00000001800904c0 f i NpPvdSceneQueryCollector.obj
 0001:0008f8d0       ?growAndPushBack@?$Array@UPvdSqHit@Vd@physx@@VNamedAllocator@shdfnd@3@@shdfnd@physx@@IEAAAEAUPvdSqHit@Vd@3@AEBU453@@Z 00000001800908d0 f i NpPvdSceneQueryCollector.obj
 0001:0008fcf0       ?growAndPushBack@?$Array@UPvdSweep@Vd@physx@@VNamedAllocator@shdfnd@3@@shdfnd@physx@@IEAAAEAUPvdSweep@Vd@3@AEBU453@@Z 0000000180090cf0 f i NpPvdSceneQueryCollector.obj
 0001:000900f0       ?growAndPushBack@?$Array@UPxFilterData@physx@@VNamedAllocator@shdfnd@2@@shdfnd@physx@@IEAAAEAUPxFilterData@3@AEBU43@@Z 00000001800910f0 f i NpPvdSceneQueryCollector.obj
 0001:00090210       ?growAndPushBack@?$Array@VPxGeometryHolder@physx@@VNamedAllocator@shdfnd@2@@shdfnd@physx@@IEAAAEAVPxGeometryHolder@3@AEBV43@@Z 0000000180091210 f i NpPvdSceneQueryCollector.obj
 0001:00090370       ?growAndPushBack@?$Array@VPxTransform@physx@@VNamedAllocator@shdfnd@2@@shdfnd@physx@@IEAAAEAVPxTransform@3@AEBV43@@Z 0000000180091370 f i NpPvdSceneQueryCollector.obj
 0001:00090640       ??0NpReadCheck@physx@@QEAA@PEBVNpScene@1@PEBD@Z 0000000180091640 f   NpReadCheck.obj
 0001:00090730       ??1NpReadCheck@physx@@QEAA@XZ 0000000180091730 f   NpReadCheck.obj
 0001:00090840       ?NpRigidDynamicGetShapes@physx@@YAIAEAVBody@Scb@1@AEAPEBQEAX@Z 0000000180091840 f   NpRigidDynamic.obj
 0001:00090880       ?requires@NpRigidDynamic@physx@@UEAAXAEAVPxProcessPxBaseCallback@2@@Z 0000000180091880 f   NpRigidDynamic.obj
 0001:000908f0       ?createObject@NpRigidDynamic@physx@@SAPEAV12@AEAPEAEAEAVPxDeserializationContext@2@@Z 00000001800918f0 f   NpRigidDynamic.obj
 0001:000909e0       ??1NpRigidDynamic@physx@@UEAA@XZ 00000001800919e0 f   NpRigidDynamic.obj
 0001:00090a40       ?release@NpRigidDynamic@physx@@UEAAXXZ 0000000180091a40 f   NpRigidDynamic.obj
 0001:00090b50       ?setGlobalPose@NpRigidDynamic@physx@@UEAAXAEBVPxTransform@2@_N@Z 0000000180091b50 f   NpRigidDynamic.obj
 0001:000911c0       ?setKinematicTarget@NpRigidDynamic@physx@@UEAAXAEBVPxTransform@2@@Z 00000001800921c0 f   NpRigidDynamic.obj
 0001:000917f0       ?getKinematicTarget@NpRigidDynamic@physx@@UEBA_NAEAVPxTransform@2@@Z 00000001800927f0 f   NpRigidDynamic.obj
 0001:00091cb0       ?setCMassLocalPose@NpRigidDynamic@physx@@UEAAXAEBVPxTransform@2@@Z 0000000180092cb0 f   NpRigidDynamic.obj
 0001:00092570       ?setLinearDamping@NpRigidDynamic@physx@@UEAAXM@Z 0000000180093570 f   NpRigidDynamic.obj
 0001:000926d0       ?getLinearDamping@NpRigidDynamic@physx@@UEBAMXZ 00000001800936d0 f   NpRigidDynamic.obj
 0001:00092740       ?setAngularDamping@NpRigidDynamic@physx@@UEAAXM@Z 0000000180093740 f   NpRigidDynamic.obj
 0001:000928a0       ?getAngularDamping@NpRigidDynamic@physx@@UEBAMXZ 00000001800938a0 f   NpRigidDynamic.obj
 0001:00092910       ?setLinearVelocity@NpRigidDynamic@physx@@UEAAXAEBVPxVec3@2@_N@Z 0000000180093910 f   NpRigidDynamic.obj
 0001:00092b60       ?setAngularVelocity@NpRigidDynamic@physx@@UEAAXAEBVPxVec3@2@_N@Z 0000000180093b60 f   NpRigidDynamic.obj
 0001:00092db0       ?setMaxAngularVelocity@NpRigidDynamic@physx@@UEAAXM@Z 0000000180093db0 f   NpRigidDynamic.obj
 0001:00092f10       ?getMaxAngularVelocity@NpRigidDynamic@physx@@UEBAMXZ 0000000180093f10 f   NpRigidDynamic.obj
 0001:00092f80       ?addForce@NpRigidDynamic@physx@@UEAAXAEBVPxVec3@2@W4Enum@PxForceMode@2@_N@Z 0000000180093f80 f   NpRigidDynamic.obj
 0001:00093210       ?clearForce@NpRigidDynamic@physx@@UEAAXW4Enum@PxForceMode@2@@Z 0000000180094210 f   NpRigidDynamic.obj
 0001:00093390       ?addTorque@NpRigidDynamic@physx@@UEAAXAEBVPxVec3@2@W4Enum@PxForceMode@2@_N@Z 0000000180094390 f   NpRigidDynamic.obj
 0001:00093620       ?clearTorque@NpRigidDynamic@physx@@UEAAXW4Enum@PxForceMode@2@@Z 0000000180094620 f   NpRigidDynamic.obj
 0001:000937a0       ?isSleeping@NpRigidDynamic@physx@@UEBA_NXZ 00000001800947a0 f   NpRigidDynamic.obj
 0001:00093850       ?getSleepThreshold@NpRigidDynamic@physx@@UEBAMXZ 0000000180094850 f   NpRigidDynamic.obj
 0001:000938c0       ?setSleepThreshold@NpRigidDynamic@physx@@UEAAXM@Z 00000001800948c0 f   NpRigidDynamic.obj
 0001:00093a20       ?getStabilizationThreshold@NpRigidDynamic@physx@@UEBAMXZ 0000000180094a20 f   NpRigidDynamic.obj
 0001:00093a90       ?setStabilizationThreshold@NpRigidDynamic@physx@@UEAAXM@Z 0000000180094a90 f   NpRigidDynamic.obj
 0001:00093bf0       ?setWakeCounter@NpRigidDynamic@physx@@UEAAXM@Z 0000000180094bf0 f   NpRigidDynamic.obj
 0001:00093e30       ?getWakeCounter@NpRigidDynamic@physx@@UEBAMXZ 0000000180094e30 f   NpRigidDynamic.obj
 0001:00093e80       ?wakeUp@NpRigidDynamic@physx@@UEAAXXZ 0000000180094e80 f   NpRigidDynamic.obj
 0001:00094000       ?putToSleep@NpRigidDynamic@physx@@UEAAXXZ 0000000180095000 f   NpRigidDynamic.obj
 0001:00094170       ?setSolverIterationCounts@NpRigidDynamic@physx@@UEAAXII@Z 0000000180095170 f   NpRigidDynamic.obj
 0001:000942f0       ?getSolverIterationCounts@NpRigidDynamic@physx@@UEBAXAEAI0@Z 00000001800952f0 f   NpRigidDynamic.obj
 0001:00094370       ?setContactReportThreshold@NpRigidDynamic@physx@@UEAAXM@Z 0000000180095370 f   NpRigidDynamic.obj
 0001:000944c0       ?getContactReportThreshold@NpRigidDynamic@physx@@UEBAMXZ 00000001800954c0 f   NpRigidDynamic.obj
 0001:00094530       ?getRigidDynamicLockFlags@NpRigidDynamic@physx@@UEBA?AV?$PxFlags@W4Enum@PxRigidDynamicLockFlag@physx@@G@2@XZ 0000000180095530 f   NpRigidDynamic.obj
 0001:00094570       ?setRigidDynamicLockFlags@NpRigidDynamic@physx@@UEAAXV?$PxFlags@W4Enum@PxRigidDynamicLockFlag@physx@@G@2@@Z 0000000180095570 f   NpRigidDynamic.obj
 0001:000945a0       ?setRigidDynamicLockFlag@NpRigidDynamic@physx@@UEAAXW4Enum@PxRigidDynamicLockFlag@2@_N@Z 00000001800955a0 f   NpRigidDynamic.obj
 0001:00094600       ??0NpRigidDynamic@physx@@QEAA@AEBVPxTransform@1@@Z 0000000180095600 f   NpRigidDynamic.obj
 0001:00094760       ?switchToNoSim@NpRigidDynamic@physx@@UEAAXXZ 0000000180095760 f   NpRigidDynamic.obj
 0001:00094870       ?switchFromNoSim@NpRigidDynamic@physx@@UEAAXXZ 0000000180095870 f   NpRigidDynamic.obj
 0001:000948a0       ?wakeUpInternalNoKinematicTest@NpRigidDynamic@physx@@QEAAXAEAVBody@Scb@2@_N1@Z 00000001800958a0 f   NpRigidDynamic.obj
 0001:00094920       ?visualize@NpRigidDynamic@physx@@QEAAXAEAVRenderOutput@Cm@2@PEAVNpScene@2@@Z 0000000180095920 f   NpRigidDynamic.obj
 0001:00095c90       ??0?$NpActorTemplate@VPxRigidDynamic@physx@@@physx@@QEAA@GV?$PxFlags@W4Enum@PxBaseFlag@physx@@G@1@PEBDPEAX@Z 0000000180096c90 f i NpRigidDynamic.obj
 0001:00095d00       ??0?$NpRigidActorTemplate@VPxRigidDynamic@physx@@@physx@@QEAA@GV?$PxFlags@W4Enum@PxBaseFlag@physx@@G@1@@Z 0000000180096d00 f i NpRigidDynamic.obj
 0001:00095d70       ??0?$NpRigidBodyTemplate@VPxRigidDynamic@physx@@@physx@@QEAA@GV?$PxFlags@W4Enum@PxBaseFlag@physx@@G@1@W4Enum@PxActorType@1@AEBVPxTransform@1@@Z 0000000180096d70 f i NpRigidDynamic.obj
 0001:00095f20       ??1?$NpActorTemplate@VPxRigidDynamic@physx@@@physx@@UEAA@XZ 0000000180096f20 f i NpRigidDynamic.obj
 0001:00095f60       ??1?$NpRigidActorTemplate@VPxRigidDynamic@physx@@@physx@@UEAA@XZ 0000000180096f60 f i NpRigidDynamic.obj
 0001:00095fc0       ??1?$NpRigidBodyTemplate@VPxRigidDynamic@physx@@@physx@@UEAA@XZ 0000000180096fc0 f i NpRigidDynamic.obj
 0001:00096030       ??1PxRigidDynamic@physx@@MEAA@XZ 0000000180097030 f i NpRigidDynamic.obj
 0001:00096040       ??_G?$NpActorTemplate@VPxRigidDynamic@physx@@@physx@@UEAAPEAXI@Z 0000000180097040 f i NpRigidDynamic.obj
 0001:00096040       ??_E?$NpActorTemplate@VPxRigidDynamic@physx@@@physx@@UEAAPEAXI@Z 0000000180097040 f i NpRigidDynamic.obj
 0001:000960e0       ??_E?$NpRigidActorTemplate@VPxRigidDynamic@physx@@@physx@@UEAAPEAXI@Z 00000001800970e0 f i NpRigidDynamic.obj
 0001:000960e0       ??_G?$NpRigidActorTemplate@VPxRigidDynamic@physx@@@physx@@UEAAPEAXI@Z 00000001800970e0 f i NpRigidDynamic.obj
 0001:000961a0       ??_G?$NpRigidBodyTemplate@VPxRigidDynamic@physx@@@physx@@UEAAPEAXI@Z 00000001800971a0 f i NpRigidDynamic.obj
 0001:000961a0       ??_E?$NpRigidBodyTemplate@VPxRigidDynamic@physx@@@physx@@UEAAPEAXI@Z 00000001800971a0 f i NpRigidDynamic.obj
 0001:00096270       ??_ENpRigidDynamic@physx@@UEAAPEAXI@Z 0000000180097270 f i NpRigidDynamic.obj
 0001:00096270       ??_GNpRigidDynamic@physx@@UEAAPEAXI@Z 0000000180097270 f i NpRigidDynamic.obj
 0001:00096340       ??_EPxRigidDynamic@physx@@MEAAPEAXI@Z 0000000180097340 f i NpRigidDynamic.obj
 0001:00096340       ??_GPxRigidDynamic@physx@@MEAAPEAXI@Z 0000000180097340 f i NpRigidDynamic.obj
 0001:00096380       ?addSpatialForce@?$NpRigidBodyTemplate@VPxRigidDynamic@physx@@@physx@@IEAAXPEBVPxVec3@2@0W4Enum@PxForceMode@2@@Z 0000000180097380 f i NpRigidDynamic.obj
 0001:00096670       ?attachShape@?$NpRigidActorTemplate@VPxRigidDynamic@physx@@@physx@@UEAAXAEAVPxShape@2@@Z 0000000180097670 f i NpRigidDynamic.obj
 0001:00096800       ?attachShape@?$NpRigidBodyTemplate@VPxRigidDynamic@physx@@@physx@@UEAAXAEAVPxShape@2@@Z 0000000180097800 f i NpRigidDynamic.obj
 0001:00096b50       ?clearSpatialForce@?$NpRigidBodyTemplate@VPxRigidDynamic@physx@@@physx@@IEAAXW4Enum@PxForceMode@2@_N1@Z 0000000180097b50 f i NpRigidDynamic.obj
 0001:00096da0       ?createShape@?$NpRigidBodyTemplate@VPxRigidDynamic@physx@@@physx@@UEAAPEAVPxShape@2@AEBVPxGeometry@2@PEBQEAVPxMaterial@2@GV?$PxFlags@W4Enum@PxShapeFlag@physx@@E@2@@Z 0000000180097da0 f i NpRigidDynamic.obj
 0001:00096f80       ?detachShape@?$NpRigidActorTemplate@VPxRigidDynamic@physx@@@physx@@UEAAXAEAVPxShape@2@_N@Z 0000000180097f80 f i NpRigidDynamic.obj
 0001:00097090       ?exportExtraData@?$NpActorTemplate@VPxRigidDynamic@physx@@@physx@@UEAAXAEAVPxSerializationContext@2@@Z 0000000180098090 f i NpRigidDynamic.obj
 0001:000970a0       ?exportExtraData@?$NpRigidActorTemplate@VPxRigidDynamic@physx@@@physx@@UEAAXAEAVPxSerializationContext@2@@Z 00000001800980a0 f i NpRigidDynamic.obj
 0001:000970e0       ?getActorFlags@?$NpActorTemplate@VPxRigidDynamic@physx@@@physx@@UEBA?AV?$PxFlags@W4Enum@PxActorFlag@physx@@E@2@XZ 00000001800980e0 f i NpRigidDynamic.obj
 0001:00097180       ?getAggregate@?$NpActorTemplate@VPxRigidDynamic@physx@@@physx@@UEBAPEAVPxAggregate@2@XZ 0000000180098180 f i NpRigidDynamic.obj
 0001:00097190       ?getAngularVelocity@?$NpRigidBodyTemplate@VPxRigidDynamic@physx@@@physx@@UEBA?AVPxVec3@2@XZ 0000000180098190 f i NpRigidDynamic.obj
 0001:00097210       ?getCMassLocalPose@?$NpRigidBodyTemplate@VPxRigidDynamic@physx@@@physx@@UEBA?AVPxTransform@2@XZ 0000000180098210 f i NpRigidDynamic.obj
 0001:000972c0       ?getClientBehaviorFlags@?$NpActorTemplate@VPxRigidDynamic@physx@@@physx@@UEBA?AV?$PxFlags@W4Enum@PxActorClientBehaviorFlag@physx@@E@2@XZ 00000001800982c0 f i NpRigidDynamic.obj
 0001:00097360       ?getConcreteTypeName@PxRigidDynamic@physx@@UEBAPEBDXZ 0000000180098360 f i NpRigidDynamic.obj
 0001:00097370       ?getConstraints@?$NpRigidActorTemplate@VPxRigidDynamic@physx@@@physx@@UEBAIPEAPEAVPxConstraint@2@II@Z 0000000180098370 f i NpRigidDynamic.obj
 0001:00097460       ?getDominanceGroup@?$NpActorTemplate@VPxRigidDynamic@physx@@@physx@@UEBAEXZ 0000000180098460 f i NpRigidDynamic.obj
 0001:00097510       ?getGlobalPose@NpRigidDynamic@physx@@UEBA?AVPxTransform@2@XZ 0000000180098510 f i NpRigidDynamic.obj
 0001:00097920       ?getInvMass@?$NpRigidBodyTemplate@VPxRigidDynamic@physx@@@physx@@UEBAMXZ 0000000180098920 f i NpRigidDynamic.obj
 0001:000979a0       ?getLinearVelocity@?$NpRigidBodyTemplate@VPxRigidDynamic@physx@@@physx@@UEBA?AVPxVec3@2@XZ 00000001800989a0 f i NpRigidDynamic.obj
 0001:00097a20       ?getMass@?$NpRigidBodyTemplate@VPxRigidDynamic@physx@@@physx@@UEBAMXZ 0000000180098a20 f i NpRigidDynamic.obj
 0001:00097ac0       ?getMassSpaceInertiaTensor@?$NpRigidBodyTemplate@VPxRigidDynamic@physx@@@physx@@UEBA?AVPxVec3@2@XZ 0000000180098ac0 f i NpRigidDynamic.obj
 0001:00097bb0       ?getMassSpaceInvInertiaTensor@?$NpRigidBodyTemplate@VPxRigidDynamic@physx@@@physx@@UEBA?AVPxVec3@2@XZ 0000000180098bb0 f i NpRigidDynamic.obj
 0001:00097c40       ?getMaxContactImpulse@?$NpRigidBodyTemplate@VPxRigidDynamic@physx@@@physx@@UEBAMXZ 0000000180098c40 f i NpRigidDynamic.obj
 0001:00097cc0       ?getMaxDepenetrationVelocity@?$NpRigidBodyTemplate@VPxRigidDynamic@physx@@@physx@@UEBAMXZ 0000000180098cc0 f i NpRigidDynamic.obj
 0001:00097d50       ?getMinCCDAdvanceCoefficient@?$NpRigidBodyTemplate@VPxRigidDynamic@physx@@@physx@@UEBAMXZ 0000000180098d50 f i NpRigidDynamic.obj
 0001:00097dd0       ?getName@?$NpActorTemplate@VPxRigidDynamic@physx@@@physx@@UEBAPEBDXZ 0000000180098dd0 f i NpRigidDynamic.obj
 0001:00097e20       ?getNbConstraints@?$NpRigidActorTemplate@VPxRigidDynamic@physx@@@physx@@UEBAIXZ 0000000180098e20 f i NpRigidDynamic.obj
 0001:00097e80       ?getNbShapes@?$NpRigidActorTemplate@VPxRigidDynamic@physx@@@physx@@UEBAIXZ 0000000180098e80 f i NpRigidDynamic.obj
 0001:00097ed0       ?getOwnerClient@?$NpActorTemplate@VPxRigidDynamic@physx@@@physx@@UEBAEXZ 0000000180098ed0 f i NpRigidDynamic.obj
 0001:00097f10       ?getRigidBodyFlags@?$NpRigidBodyTemplate@VPxRigidDynamic@physx@@@physx@@UEBA?AV?$PxFlags@W4Enum@PxRigidBodyFlag@physx@@E@2@XZ 0000000180098f10 f i NpRigidDynamic.obj
 0001:00097f90       ?getScene@?$NpActorTemplate@VPxRigidDynamic@physx@@@physx@@UEBAPEAVPxScene@2@XZ 0000000180098f90 f i NpRigidDynamic.obj
 0001:00097fa0       ?getShapes@?$NpRigidActorTemplate@VPxRigidDynamic@physx@@@physx@@UEBAIPEAPEAVPxShape@2@II@Z 0000000180098fa0 f i NpRigidDynamic.obj
 0001:00098030       ?getType@NpRigidDynamic@physx@@UEBA?AW4Enum@PxActorType@2@XZ 0000000180099030 f i NpRigidDynamic.obj
 0001:00098040       ?getWorldBounds@?$NpRigidActorTemplate@VPxRigidDynamic@physx@@@physx@@UEBA?AVPxBounds3@2@M@Z 0000000180099040 f i NpRigidDynamic.obj
 0001:00098230       ?importExtraData@?$NpRigidActorTemplate@VPxRigidDynamic@physx@@@physx@@QEAAXAEAVPxDeserializationContext@2@@Z 0000000180099230 f i NpRigidDynamic.obj
 0001:00098270       ?isKindOf@PxRigidDynamic@physx@@MEBA_NPEBD@Z 0000000180099270 f i NpRigidDynamic.obj
 0001:00098330       ?release@?$NpActorTemplate@VPxRigidDynamic@physx@@@physx@@UEAAXXZ 0000000180099330 f i NpRigidDynamic.obj
 0001:00098340       ?release@?$NpRigidActorTemplate@VPxRigidDynamic@physx@@@physx@@UEAAXXZ 0000000180099340 f i NpRigidDynamic.obj
 0001:00098400       ?requires@?$NpRigidActorTemplate@VPxRigidDynamic@physx@@@physx@@UEAAXAEAVPxProcessPxBaseCallback@2@@Z 0000000180099400 f i NpRigidDynamic.obj
 0001:00098490       ?resolveReferences@?$NpActorTemplate@VPxRigidDynamic@physx@@@physx@@UEAAXAEAVPxDeserializationContext@2@@Z 0000000180099490 f i NpRigidDynamic.obj
 0001:000984a0       ?resolveReferences@?$NpRigidActorTemplate@VPxRigidDynamic@physx@@@physx@@UEAAXAEAVPxDeserializationContext@2@@Z 00000001800994a0 f i NpRigidDynamic.obj
 0001:00098550       ?setActorFlag@?$NpActorTemplate@VPxRigidDynamic@physx@@@physx@@UEAAXW4Enum@PxActorFlag@2@_N@Z 0000000180099550 f i NpRigidDynamic.obj
 0001:00098660       ?setActorFlag@?$NpRigidActorTemplate@VPxRigidDynamic@physx@@@physx@@UEAAXW4Enum@PxActorFlag@2@_N@Z 0000000180099660 f i NpRigidDynamic.obj
 0001:000989a0       ?setActorFlags@?$NpActorTemplate@VPxRigidDynamic@physx@@@physx@@UEAAXV?$PxFlags@W4Enum@PxActorFlag@physx@@E@2@@Z 00000001800999a0 f i NpRigidDynamic.obj
 0001:00098a20       ?setActorFlags@?$NpRigidActorTemplate@VPxRigidDynamic@physx@@@physx@@UEAAXV?$PxFlags@W4Enum@PxActorFlag@physx@@E@2@@Z 0000000180099a20 f i NpRigidDynamic.obj
 0001:00098cd0       ?setCMassLocalPoseInternal@?$NpRigidBodyTemplate@VPxRigidDynamic@physx@@@physx@@IEAAXAEBVPxTransform@2@@Z 0000000180099cd0 f i NpRigidDynamic.obj
 0001:00099190       ?setClientBehaviorFlags@?$NpActorTemplate@VPxRigidDynamic@physx@@@physx@@UEAAXV?$PxFlags@W4Enum@PxActorClientBehaviorFlag@physx@@E@2@@Z 000000018009a190 f i NpRigidDynamic.obj
 0001:00099210       ?setClientBehaviorFlags@?$NpRigidActorTemplate@VPxRigidDynamic@physx@@@physx@@UEAAXV?$PxFlags@W4Enum@PxActorClientBehaviorFlag@physx@@E@2@@Z 000000018009a210 f i NpRigidDynamic.obj
 0001:000992d0       ?setDominanceGroup@?$NpActorTemplate@VPxRigidDynamic@physx@@@physx@@UEAAXE@Z 000000018009a2d0 f i NpRigidDynamic.obj
 0001:000993f0       ?setKinematicTarget@Body@Scb@physx@@QEAAXAEBVPxTransform@3@@Z 000000018009a3f0 f i NpRigidDynamic.obj
 0001:000995a0       ?setLockFlags@Body@Scb@physx@@QEAAXV?$PxFlags@W4Enum@PxRigidDynamicLockFlag@physx@@G@3@@Z 000000018009a5a0 f i NpRigidDynamic.obj
 0001:00099670       ?setMass@?$NpRigidBodyTemplate@VPxRigidDynamic@physx@@@physx@@UEAAXM@Z 000000018009a670 f i NpRigidDynamic.obj
 0001:00099890       ?setMassSpaceInertiaTensor@?$NpRigidBodyTemplate@VPxRigidDynamic@physx@@@physx@@UEAAXAEBVPxVec3@2@@Z 000000018009a890 f i NpRigidDynamic.obj
 0001:00099c60       ?setMaxContactImpulse@?$NpRigidBodyTemplate@VPxRigidDynamic@physx@@@physx@@UEAAXM@Z 000000018009ac60 f i NpRigidDynamic.obj
 0001:00099dc0       ?setMaxDepenetrationVelocity@?$NpRigidBodyTemplate@VPxRigidDynamic@physx@@@physx@@UEAAXM@Z 000000018009adc0 f i NpRigidDynamic.obj
 0001:00099f10       ?setMinCCDAdvanceCoefficient@?$NpRigidBodyTemplate@VPxRigidDynamic@physx@@@physx@@UEAAXM@Z 000000018009af10 f i NpRigidDynamic.obj
 0001:0009a000       ?setName@?$NpActorTemplate@VPxRigidDynamic@physx@@@physx@@UEAAXPEBD@Z 000000018009b000 f i NpRigidDynamic.obj
 0001:0009a0a0       ?setOwnerClient@?$NpActorTemplate@VPxRigidDynamic@physx@@@physx@@UEAAXE@Z 000000018009b0a0 f i NpRigidDynamic.obj
 0001:0009a1e0       ?setRigidBodyFlag@?$NpRigidBodyTemplate@VPxRigidDynamic@physx@@@physx@@UEAAXW4Enum@PxRigidBodyFlag@2@_N@Z 000000018009b1e0 f i NpRigidDynamic.obj
 0001:0009a810       ?setRigidBodyFlags@?$NpRigidBodyTemplate@VPxRigidDynamic@physx@@@physx@@UEAAXV?$PxFlags@W4Enum@PxRigidBodyFlag@physx@@E@2@@Z 000000018009b810 f i NpRigidDynamic.obj
 0001:0009ae40       ?switchFromNoSim@?$NpRigidActorTemplate@VPxRigidDynamic@physx@@@physx@@UEAAXXZ 000000018009be40 f i NpRigidDynamic.obj
 0001:0009ae50       ?switchToNoSim@?$NpRigidActorTemplate@VPxRigidDynamic@physx@@@physx@@UEAAXXZ 000000018009be50 f i NpRigidDynamic.obj
 0001:0009ae60       ?updateShaderComs@?$NpRigidActorTemplate@VPxRigidDynamic@physx@@@physx@@QEAAXXZ 000000018009be60 f i NpRigidDynamic.obj
 0001:0009af00       ?visualize@?$NpRigidActorTemplate@VPxRigidDynamic@physx@@@physx@@QEAAXAEAVRenderOutput@Cm@2@PEAVNpScene@2@@Z 000000018009bf00 f i NpRigidDynamic.obj
 0001:0009af10       ?visualize@?$NpRigidBodyTemplate@VPxRigidDynamic@physx@@@physx@@QEAAXAEAVRenderOutput@Cm@2@PEAVNpScene@2@@Z 000000018009bf10 f i NpRigidDynamic.obj
 0001:0009b3c0       ?NpRigidStaticGetShapes@physx@@YAIAEAVRigidStatic@Scb@1@AEAPEBQEAX@Z 000000018009c3c0 f   NpRigidStatic.obj
 0001:0009b410       ?requires@NpRigidStatic@physx@@UEAAXAEAVPxProcessPxBaseCallback@2@@Z 000000018009c410 f   NpRigidStatic.obj
 0001:0009b480       ?createObject@NpRigidStatic@physx@@SAPEAV12@AEAPEAEAEAVPxDeserializationContext@2@@Z 000000018009c480 f   NpRigidStatic.obj
 0001:0009b550       ??1NpRigidStatic@physx@@UEAA@XZ 000000018009c550 f   NpRigidStatic.obj
 0001:0009b5b0       ?release@NpRigidStatic@physx@@UEAAXXZ 000000018009c5b0 f   NpRigidStatic.obj
 0001:0009b6c0       ?createShape@NpRigidStatic@physx@@UEAAPEAVPxShape@2@AEBVPxGeometry@2@PEBQEAVPxMaterial@2@GV?$PxFlags@W4Enum@PxShapeFlag@physx@@E@2@@Z 000000018009c6c0 f   NpRigidStatic.obj
 0001:0009b7d0       ?setGlobalPose@NpRigidStatic@physx@@UEAAXAEBVPxTransform@2@_N@Z 000000018009c7d0 f   NpRigidStatic.obj
 0001:0009bc80       ?getGlobalPose@NpRigidStatic@physx@@UEBA?AVPxTransform@2@XZ 000000018009cc80 f   NpRigidStatic.obj
 0001:0009bd10       ??0NpRigidStatic@physx@@QEAA@AEBVPxTransform@1@@Z 000000018009cd10 f   NpRigidStatic.obj
 0001:0009bde0       ?switchToNoSim@NpRigidStatic@physx@@UEAAXXZ 000000018009cde0 f   NpRigidStatic.obj
 0001:0009be10       ?switchFromNoSim@NpRigidStatic@physx@@UEAAXXZ 000000018009ce10 f   NpRigidStatic.obj
 0001:0009be40       ?checkConstraintValidity@NpRigidStatic@physx@@QEBA_NXZ 000000018009ce40 f   NpRigidStatic.obj
 0001:0009bec0       ?visualize@NpRigidStatic@physx@@QEAAXAEAVRenderOutput@Cm@2@PEAVNpScene@2@@Z 000000018009cec0 f   NpRigidStatic.obj
 0001:0009c2f0       ??0?$NpActorTemplate@VPxRigidStatic@physx@@@physx@@QEAA@GV?$PxFlags@W4Enum@PxBaseFlag@physx@@G@1@PEBDPEAX@Z 000000018009d2f0 f i NpRigidStatic.obj
 0001:0009c360       ??0?$NpRigidActorTemplate@VPxRigidStatic@physx@@@physx@@QEAA@GV?$PxFlags@W4Enum@PxBaseFlag@physx@@G@1@@Z 000000018009d360 f i NpRigidStatic.obj
 0001:0009c3d0       ??1?$NpActorTemplate@VPxRigidStatic@physx@@@physx@@UEAA@XZ 000000018009d3d0 f i NpRigidStatic.obj
 0001:0009c410       ??1?$NpRigidActorTemplate@VPxRigidStatic@physx@@@physx@@UEAA@XZ 000000018009d410 f i NpRigidStatic.obj
 0001:0009c470       ??1PxRigidStatic@physx@@MEAA@XZ 000000018009d470 f i NpRigidStatic.obj
 0001:0009c480       ??_E?$NpActorTemplate@VPxRigidStatic@physx@@@physx@@UEAAPEAXI@Z 000000018009d480 f i NpRigidStatic.obj
 0001:0009c480       ??_G?$NpActorTemplate@VPxRigidStatic@physx@@@physx@@UEAAPEAXI@Z 000000018009d480 f i NpRigidStatic.obj
 0001:0009c520       ??_E?$NpRigidActorTemplate@VPxRigidStatic@physx@@@physx@@UEAAPEAXI@Z 000000018009d520 f i NpRigidStatic.obj
 0001:0009c520       ??_G?$NpRigidActorTemplate@VPxRigidStatic@physx@@@physx@@UEAAPEAXI@Z 000000018009d520 f i NpRigidStatic.obj
 0001:0009c5e0       ??_ENpRigidStatic@physx@@UEAAPEAXI@Z 000000018009d5e0 f i NpRigidStatic.obj
 0001:0009c5e0       ??_GNpRigidStatic@physx@@UEAAPEAXI@Z 000000018009d5e0 f i NpRigidStatic.obj
 0001:0009c6b0       ??_EPxRigidStatic@physx@@MEAAPEAXI@Z 000000018009d6b0 f i NpRigidStatic.obj
 0001:0009c6b0       ??_GPxRigidStatic@physx@@MEAAPEAXI@Z 000000018009d6b0 f i NpRigidStatic.obj
 0001:0009c6f0       ?attachShape@?$NpRigidActorTemplate@VPxRigidStatic@physx@@@physx@@UEAAXAEAVPxShape@2@@Z 000000018009d6f0 f i NpRigidStatic.obj
 0001:0009c880       ?detachShape@?$NpRigidActorTemplate@VPxRigidStatic@physx@@@physx@@UEAAXAEAVPxShape@2@_N@Z 000000018009d880 f i NpRigidStatic.obj
 0001:0009c990       ?exportExtraData@?$NpActorTemplate@VPxRigidStatic@physx@@@physx@@UEAAXAEAVPxSerializationContext@2@@Z 000000018009d990 f i NpRigidStatic.obj
 0001:0009c9a0       ?exportExtraData@?$NpRigidActorTemplate@VPxRigidStatic@physx@@@physx@@UEAAXAEAVPxSerializationContext@2@@Z 000000018009d9a0 f i NpRigidStatic.obj
 0001:0009c9e0       ?getActorFlags@?$NpActorTemplate@VPxRigidStatic@physx@@@physx@@UEBA?AV?$PxFlags@W4Enum@PxActorFlag@physx@@E@2@XZ 000000018009d9e0 f i NpRigidStatic.obj
 0001:0009ca80       ?getAggregate@?$NpActorTemplate@VPxRigidStatic@physx@@@physx@@UEBAPEAVPxAggregate@2@XZ 000000018009da80 f i NpRigidStatic.obj
 0001:0009ca90       ?getClientBehaviorFlags@?$NpActorTemplate@VPxRigidStatic@physx@@@physx@@UEBA?AV?$PxFlags@W4Enum@PxActorClientBehaviorFlag@physx@@E@2@XZ 000000018009da90 f i NpRigidStatic.obj
 0001:0009cb30       ?getConcreteTypeName@PxRigidStatic@physx@@UEBAPEBDXZ 000000018009db30 f i NpRigidStatic.obj
 0001:0009cb40       ?getConstraints@?$NpRigidActorTemplate@VPxRigidStatic@physx@@@physx@@UEBAIPEAPEAVPxConstraint@2@II@Z 000000018009db40 f i NpRigidStatic.obj
 0001:0009cc30       ?getDominanceGroup@?$NpActorTemplate@VPxRigidStatic@physx@@@physx@@UEBAEXZ 000000018009dc30 f i NpRigidStatic.obj
 0001:0009cce0       ?getName@?$NpActorTemplate@VPxRigidStatic@physx@@@physx@@UEBAPEBDXZ 000000018009dce0 f i NpRigidStatic.obj
 0001:0009cd30       ?getNbConstraints@?$NpRigidActorTemplate@VPxRigidStatic@physx@@@physx@@UEBAIXZ 000000018009dd30 f i NpRigidStatic.obj
 0001:0009cd90       ?getNbShapes@?$NpRigidActorTemplate@VPxRigidStatic@physx@@@physx@@UEBAIXZ 000000018009dd90 f i NpRigidStatic.obj
 0001:0009cde0       ?getOwnerClient@?$NpActorTemplate@VPxRigidStatic@physx@@@physx@@UEBAEXZ 000000018009dde0 f i NpRigidStatic.obj
 0001:0009ce20       ?getScene@?$NpActorTemplate@VPxRigidStatic@physx@@@physx@@UEBAPEAVPxScene@2@XZ 000000018009de20 f i NpRigidStatic.obj
 0001:0009ce30       ?getShapes@?$NpRigidActorTemplate@VPxRigidStatic@physx@@@physx@@UEBAIPEAPEAVPxShape@2@II@Z 000000018009de30 f i NpRigidStatic.obj
 0001:0009cec0       ?getType@NpRigidStatic@physx@@UEBA?AW4Enum@PxActorType@2@XZ 000000018009dec0 f i NpRigidStatic.obj
 0001:0009ced0       ?getWorldBounds@?$NpRigidActorTemplate@VPxRigidStatic@physx@@@physx@@UEBA?AVPxBounds3@2@M@Z 000000018009ded0 f i NpRigidStatic.obj
 0001:0009d0c0       ?importExtraData@?$NpRigidActorTemplate@VPxRigidStatic@physx@@@physx@@QEAAXAEAVPxDeserializationContext@2@@Z 000000018009e0c0 f i NpRigidStatic.obj
 0001:0009d100       ?isKindOf@PxRigidStatic@physx@@MEBA_NPEBD@Z 000000018009e100 f i NpRigidStatic.obj
 0001:0009d160       ?release@?$NpActorTemplate@VPxRigidStatic@physx@@@physx@@UEAAXXZ 000000018009e160 f i NpRigidStatic.obj
 0001:0009d170       ?release@?$NpRigidActorTemplate@VPxRigidStatic@physx@@@physx@@UEAAXXZ 000000018009e170 f i NpRigidStatic.obj
 0001:0009d230       ?requires@?$NpRigidActorTemplate@VPxRigidStatic@physx@@@physx@@UEAAXAEAVPxProcessPxBaseCallback@2@@Z 000000018009e230 f i NpRigidStatic.obj
 0001:0009d2c0       ?resolveReferences@?$NpActorTemplate@VPxRigidStatic@physx@@@physx@@UEAAXAEAVPxDeserializationContext@2@@Z 000000018009e2c0 f i NpRigidStatic.obj
 0001:0009d2d0       ?resolveReferences@?$NpRigidActorTemplate@VPxRigidStatic@physx@@@physx@@UEAAXAEAVPxDeserializationContext@2@@Z 000000018009e2d0 f i NpRigidStatic.obj
 0001:0009d380       ?setActorFlag@?$NpActorTemplate@VPxRigidStatic@physx@@@physx@@UEAAXW4Enum@PxActorFlag@2@_N@Z 000000018009e380 f i NpRigidStatic.obj
 0001:0009d490       ?setActorFlag@?$NpRigidActorTemplate@VPxRigidStatic@physx@@@physx@@UEAAXW4Enum@PxActorFlag@2@_N@Z 000000018009e490 f i NpRigidStatic.obj
 0001:0009d7d0       ?setActorFlags@?$NpActorTemplate@VPxRigidStatic@physx@@@physx@@UEAAXV?$PxFlags@W4Enum@PxActorFlag@physx@@E@2@@Z 000000018009e7d0 f i NpRigidStatic.obj
 0001:0009d850       ?setActorFlags@?$NpRigidActorTemplate@VPxRigidStatic@physx@@@physx@@UEAAXV?$PxFlags@W4Enum@PxActorFlag@physx@@E@2@@Z 000000018009e850 f i NpRigidStatic.obj
 0001:0009db00       ?setClientBehaviorFlags@?$NpActorTemplate@VPxRigidStatic@physx@@@physx@@UEAAXV?$PxFlags@W4Enum@PxActorClientBehaviorFlag@physx@@E@2@@Z 000000018009eb00 f i NpRigidStatic.obj
 0001:0009db80       ?setClientBehaviorFlags@?$NpRigidActorTemplate@VPxRigidStatic@physx@@@physx@@UEAAXV?$PxFlags@W4Enum@PxActorClientBehaviorFlag@physx@@E@2@@Z 000000018009eb80 f i NpRigidStatic.obj
 0001:0009dc40       ?setDominanceGroup@?$NpActorTemplate@VPxRigidStatic@physx@@@physx@@UEAAXE@Z 000000018009ec40 f i NpRigidStatic.obj
 0001:0009dd60       ?setName@?$NpActorTemplate@VPxRigidStatic@physx@@@physx@@UEAAXPEBD@Z 000000018009ed60 f i NpRigidStatic.obj
 0001:0009de00       ?setOwnerClient@?$NpActorTemplate@VPxRigidStatic@physx@@@physx@@UEAAXE@Z 000000018009ee00 f i NpRigidStatic.obj
 0001:0009df40       ?switchFromNoSim@?$NpRigidActorTemplate@VPxRigidStatic@physx@@@physx@@UEAAXXZ 000000018009ef40 f i NpRigidStatic.obj
 0001:0009df50       ?switchToNoSim@?$NpRigidActorTemplate@VPxRigidStatic@physx@@@physx@@UEAAXXZ 000000018009ef50 f i NpRigidStatic.obj
 0001:0009df60       ?updateShaderComs@?$NpRigidActorTemplate@VPxRigidStatic@physx@@@physx@@QEAAXXZ 000000018009ef60 f i NpRigidStatic.obj
 0001:0009e000       ?visualize@?$NpRigidActorTemplate@VPxRigidStatic@physx@@@physx@@QEAAXAEAVRenderOutput@Cm@2@PEAVNpScene@2@@Z 000000018009f000 f i NpRigidStatic.obj
 0001:0009e010       ??0NpSceneQueries@physx@@QEAA@AEBVPxSceneDesc@1@@Z 000000018009f010 f   NpScene.obj
 0001:0009e0e0       ??1NpSceneQueries@physx@@UEAA@XZ 000000018009f0e0 f   NpScene.obj
 0001:0009e140       ?setData@NpContactCallbackTask@physx@@QEAAXPEAVNpScene@2@PEBUPxContactPairHeader@2@I@Z 000000018009f140 f   NpScene.obj
 0001:0009e160       ?run@NpContactCallbackTask@physx@@UEAAXXZ 000000018009f160 f   NpScene.obj
 0001:0009e2f0       ?release@NpScene@physx@@UEAAXXZ 000000018009f2f0 f   NpScene.obj
 0001:0009e3c0       ?setFlag@NpScene@physx@@UEAAXW4Enum@PxSceneFlag@2@_N@Z 000000018009f3c0 f   NpScene.obj
 0001:0009e4e0       ?getFlags@NpScene@physx@@UEBA?AV?$PxFlags@W4Enum@PxSceneFlag@physx@@I@2@XZ 000000018009f4e0 f   NpScene.obj
 0001:0009e540       ?setGravity@NpScene@physx@@UEAAXAEBVPxVec3@2@@Z 000000018009f540 f   NpScene.obj
 0001:0009e600       ?getGravity@NpScene@physx@@UEBA?AVPxVec3@2@XZ 000000018009f600 f   NpScene.obj
 0001:0009e690       ?setBounceThresholdVelocity@NpScene@physx@@UEAAXM@Z 000000018009f690 f   NpScene.obj
 0001:0009e720       ?getBounceThresholdVelocity@NpScene@physx@@UEBAMXZ 000000018009f720 f   NpScene.obj
 0001:0009e780       ?getFrictionOffsetThreshold@NpScene@physx@@UEBAMXZ 000000018009f780 f   NpScene.obj
 0001:0009e790       ?setLimits@NpScene@physx@@UEAAXAEBVPxSceneLimits@2@@Z 000000018009f790 f   NpScene.obj
 0001:0009e840       ?getLimits@NpScene@physx@@UEBA?AVPxSceneLimits@2@XZ 000000018009f840 f   NpScene.obj
 0001:0009e8a0       ?addActor@NpScene@physx@@UEAAXAEAVPxActor@2@@Z 000000018009f8a0 f   NpScene.obj
 0001:0009eac0       ?removeActor@NpScene@physx@@UEAAXAEAVPxActor@2@_N@Z 000000018009fac0 f   NpScene.obj
 0001:0009ec00       ?getNbConstraints@NpScene@physx@@UEBAIXZ 000000018009fc00 f   NpScene.obj
 0001:0009ec40       ?getConstraints@NpScene@physx@@UEBAIPEAPEAVPxConstraint@2@II@Z 000000018009fc40 f   NpScene.obj
 0001:0009ece0       ?addArticulation@NpScene@physx@@UEAAXAEAVPxArticulation@2@@Z 000000018009fce0 f   NpScene.obj
 0001:0009eed0       ?removeArticulation@NpScene@physx@@UEAAXAEAVPxArticulation@2@_N@Z 000000018009fed0 f   NpScene.obj
 0001:0009f010       ?getNbArticulations@NpScene@physx@@UEBAIXZ 00000001800a0010 f   NpScene.obj
 0001:0009f050       ?getArticulations@NpScene@physx@@UEBAIPEAPEAVPxArticulation@2@II@Z 00000001800a0050 f   NpScene.obj
 0001:0009f0f0       ?addAggregate@NpScene@physx@@UEAAXAEAVPxAggregate@2@@Z 00000001800a00f0 f   NpScene.obj
 0001:0009f360       ?removeAggregate@NpScene@physx@@UEAAXAEAVPxAggregate@2@_N@Z 00000001800a0360 f   NpScene.obj
 0001:0009f620       ?getNbAggregates@NpScene@physx@@UEBAIXZ 00000001800a0620 f   NpScene.obj
 0001:0009f660       ?getAggregates@NpScene@physx@@UEBAIPEAPEAVPxAggregate@2@II@Z 00000001800a0660 f   NpScene.obj
 0001:0009f700       ?addCollection@NpScene@physx@@UEAAXAEBVPxCollection@2@@Z 00000001800a0700 f   NpScene.obj
 0001:0009f9d0       ?setDominanceGroupPair@NpScene@physx@@UEAAXEEAEBUPxDominanceGroupPair@2@@Z 00000001800a09d0 f   NpScene.obj
 0001:0009fc10       ?getDominanceGroupPair@NpScene@physx@@UEBA?AUPxDominanceGroupPair@2@EE@Z 00000001800a0c10 f   NpScene.obj
 0001:0009fd90       ?getNbActors@NpScene@physx@@UEBAIV?$PxFlags@W4Enum@PxActorTypeFlag@physx@@G@2@@Z 00000001800a0d90 f   NpScene.obj
 0001:0009ff00       ?getActors@NpScene@physx@@UEBAIV?$PxFlags@W4Enum@PxActorTypeFlag@physx@@G@2@PEAPEAVPxActor@2@II@Z 00000001800a0f00 f   NpScene.obj
 0001:000a0100       ?getActiveTransforms@NpScene@physx@@UEAAPEBUPxActiveTransform@2@AEAIE@Z 00000001800a1100 f   NpScene.obj
 0001:000a01a0       ?getActiveActors@NpScene@physx@@UEAAPEAPEAVPxActor@2@AEAIE@Z 00000001800a11a0 f   NpScene.obj
 0001:000a0240       ?getSimulationStatistics@NpScene@physx@@UEBAXAEAVPxSimulationStatistics@2@@Z 00000001800a1240 f   NpScene.obj
 0001:000a02d0       ?createClient@NpScene@physx@@UEAAEXZ 00000001800a12d0 f   NpScene.obj
 0001:000a03d0       ?setClientBehaviorFlags@NpScene@physx@@UEAAXEV?$PxFlags@W4Enum@PxClientBehaviorFlag@physx@@E@2@@Z 00000001800a13d0 f   NpScene.obj
 0001:000a04b0       ?getClientBehaviorFlags@NpScene@physx@@UEBA?AV?$PxFlags@W4Enum@PxClientBehaviorFlag@physx@@E@2@E@Z 00000001800a14b0 f   NpScene.obj
 0001:000a0570       ?setFrictionType@NpScene@physx@@UEAAXW4Enum@PxFrictionType@2@@Z 00000001800a1570 f   NpScene.obj
 0001:000a0600       ?getFrictionType@NpScene@physx@@UEBA?AW4Enum@PxFrictionType@2@XZ 00000001800a1600 f   NpScene.obj
 0001:000a0640       ?setClothInterCollisionDistance@NpScene@physx@@UEAAXM@Z 00000001800a1640 f   NpScene.obj
 0001:000a0700       ?getClothInterCollisionDistance@NpScene@physx@@UEBAMXZ 00000001800a1700 f   NpScene.obj
 0001:000a0750       ?setClothInterCollisionStiffness@NpScene@physx@@UEAAXM@Z 00000001800a1750 f   NpScene.obj
 0001:000a0810       ?getClothInterCollisionStiffness@NpScene@physx@@UEBAMXZ 00000001800a1810 f   NpScene.obj
 0001:000a0860       ?setClothInterCollisionNbIterations@NpScene@physx@@UEAAXI@Z 00000001800a1860 f   NpScene.obj
 0001:000a08f0       ?getClothInterCollisionNbIterations@NpScene@physx@@UEBAIXZ 00000001800a18f0 f   NpScene.obj
 0001:000a0930       ?setSimulationEventCallback@NpScene@physx@@UEAAXPEAVPxSimulationEventCallback@2@E@Z 00000001800a1930 f   NpScene.obj
 0001:000a09d0       ?getSimulationEventCallback@NpScene@physx@@UEBAPEAVPxSimulationEventCallback@2@E@Z 00000001800a19d0 f   NpScene.obj
 0001:000a0a30       ?setContactModifyCallback@NpScene@physx@@UEAAXPEAVPxContactModifyCallback@2@@Z 00000001800a1a30 f   NpScene.obj
 0001:000a0ac0       ?getContactModifyCallback@NpScene@physx@@UEBAPEAVPxContactModifyCallback@2@XZ 00000001800a1ac0 f   NpScene.obj
 0001:000a0b10       ?setCCDContactModifyCallback@NpScene@physx@@UEAAXPEAVPxCCDContactModifyCallback@2@@Z 00000001800a1b10 f   NpScene.obj
 0001:000a0ba0       ?getCCDContactModifyCallback@NpScene@physx@@UEBAPEAVPxCCDContactModifyCallback@2@XZ 00000001800a1ba0 f   NpScene.obj
 0001:000a0bf0       ?setBroadPhaseCallback@NpScene@physx@@UEAAXPEAVPxBroadPhaseCallback@2@E@Z 00000001800a1bf0 f   NpScene.obj
 0001:000a0c90       ?getBroadPhaseCallback@NpScene@physx@@UEBAPEAVPxBroadPhaseCallback@2@E@Z 00000001800a1c90 f   NpScene.obj
 0001:000a0cf0       ?setCCDMaxPasses@NpScene@physx@@UEAAXI@Z 00000001800a1cf0 f   NpScene.obj
 0001:000a0d80       ?getCCDMaxPasses@NpScene@physx@@UEBAIXZ 00000001800a1d80 f   NpScene.obj
 0001:000a0dc0       ?setFilterShaderData@NpScene@physx@@UEAAXPEBXI@Z 00000001800a1dc0 f   NpScene.obj
 0001:000a0ea0       ?getFilterShaderData@NpScene@physx@@UEBAPEBXXZ 00000001800a1ea0 f   NpScene.obj
 0001:000a0ee0       ?getFilterShaderDataSize@NpScene@physx@@UEBAIXZ 00000001800a1ee0 f   NpScene.obj
 0001:000a0f20       ?getFilterShader@NpScene@physx@@UEBAP6A?AV?$PxFlags@W4Enum@PxFilterFlag@physx@@G@2@IUPxFilterData@2@I0AEAV?$PxFlags@W4Enum@PxPairFlag@physx@@G@2@PEBXI@ZXZ 00000001800a1f20 f   NpScene.obj
 0001:000a0f60       ?getFilterCallback@NpScene@physx@@UEBAPEAVPxSimulationFilterCallback@2@XZ 00000001800a1f60 f   NpScene.obj
 0001:000a0fa0       ?resetFiltering@NpScene@physx@@UEAAXAEAVPxActor@2@@Z 00000001800a1fa0 f   NpScene.obj
 0001:000a1130       ?resetFiltering@NpScene@physx@@UEAAXAEAVPxRigidActor@2@PEBQEAVPxShape@2@I@Z 00000001800a2130 f   NpScene.obj
 0001:000a12f0       ?getPhysics@NpScene@physx@@UEAAAEAVPxPhysics@2@XZ 00000001800a22f0 f   NpScene.obj
 0001:000a1300       ?simulate@NpScene@physx@@UEAAXMPEAVPxBaseTask@2@PEAXI_N@Z 00000001800a2300 f   NpScene.obj
 0001:000a1340       ?advance@NpScene@physx@@UEAAXPEAVPxBaseTask@2@@Z 00000001800a2340 f   NpScene.obj
 0001:000a14e0       ?collide@NpScene@physx@@UEAAXMPEAVPxBaseTask@2@PEAXI_N@Z 00000001800a24e0 f   NpScene.obj
 0001:000a1520       ?checkResults@NpScene@physx@@UEAA_N_N@Z 00000001800a2520 f   NpScene.obj
 0001:000a1530       ?checkCollision@NpScene@physx@@UEAA_N_N@Z 00000001800a2530 f   NpScene.obj
 0001:000a1540       ?fetchCollision@NpScene@physx@@UEAA_N_N@Z 00000001800a2540 f   NpScene.obj
 0001:000a15d0       ?fetchResults@NpScene@physx@@UEAA_N_NPEAI@Z 00000001800a25d0 f   NpScene.obj
 0001:000a1850       ?fetchResultsStart@NpScene@physx@@UEAA_NAEAPEBUPxContactPairHeader@2@AEAI_N@Z 00000001800a2850 f   NpScene.obj
 0001:000a1a20       ?processCallbacks@NpScene@physx@@UEAAXPEAVPxBaseTask@2@@Z 00000001800a2a20 f   NpScene.obj
 0001:000a1d30       ?fetchResultsFinish@NpScene@physx@@UEAAXPEAI@Z 00000001800a2d30 f   NpScene.obj
 0001:000a1ef0       ?flushSimulation@NpScene@physx@@UEAAX_N@Z 00000001800a2ef0 f   NpScene.obj
 0001:000a2100       ?flushQueryUpdates@NpScene@physx@@UEAAXXZ 00000001800a3100 f   NpScene.obj
 0001:000a2240       ?getRenderBuffer@NpScene@physx@@UEAAAEBVPxRenderBuffer@2@XZ 00000001800a3240 f   NpScene.obj
 0001:000a22a0       ?createBatchQuery@NpScene@physx@@UEAAPEAVPxBatchQuery@2@AEBVPxBatchQueryDesc@2@@Z 00000001800a32a0 f   NpScene.obj
 0001:000a2450       ?releaseBatchQuery@NpScene@physx@@QEAAXPEAVPxBatchQuery@2@@Z 00000001800a3450 f   NpScene.obj
 0001:000a2550       ?createVolumeCache@NpScene@physx@@UEAAPEAVPxVolumeCache@2@II@Z 00000001800a3550 f   NpScene.obj
 0001:000a2620       ?releaseVolumeCache@NpScene@physx@@QEAAXPEAVNpVolumeCache@2@@Z 00000001800a3620 f   NpScene.obj
 0001:000a2730       ?setDynamicTreeRebuildRateHint@NpScene@physx@@UEAAXI@Z 00000001800a3730 f   NpScene.obj
 0001:000a2790       ?getDynamicTreeRebuildRateHint@NpScene@physx@@UEBAIXZ 00000001800a3790 f   NpScene.obj
 0001:000a27d0       ?forceDynamicTreeRebuild@NpScene@physx@@UEAAX_N0@Z 00000001800a37d0 f   NpScene.obj
 0001:000a28f0       ?setSolverBatchSize@NpScene@physx@@UEAAXI@Z 00000001800a38f0 f   NpScene.obj
 0001:000a2980       ?getSolverBatchSize@NpScene@physx@@UEBAIXZ 00000001800a3980 f   NpScene.obj
 0001:000a29f0       ?setVisualizationParameter@NpScene@physx@@UEAA_NW4Enum@PxVisualizationParameter@2@M@Z 00000001800a39f0 f   NpScene.obj
 0001:000a2b20       ?getVisualizationParameter@NpScene@physx@@UEBAMW4Enum@PxVisualizationParameter@2@@Z 00000001800a3b20 f   NpScene.obj
 0001:000a2ba0       ?setVisualizationCullingBox@NpScene@physx@@UEAAXAEBVPxBounds3@2@@Z 00000001800a3ba0 f   NpScene.obj
 0001:000a2d40       ?getVisualizationCullingBox@NpScene@physx@@UEBA?AVPxBounds3@2@XZ 00000001800a3d40 f   NpScene.obj
 0001:000a2dc0       ?setNbContactDataBlocks@NpScene@physx@@UEAAXI@Z 00000001800a3dc0 f   NpScene.obj
 0001:000a2e20       ?getNbContactDataBlocksUsed@NpScene@physx@@UEBAIXZ 00000001800a3e20 f   NpScene.obj
 0001:000a2e80       ?getMaxNbContactDataBlocksUsed@NpScene@physx@@UEBAIXZ 00000001800a3e80 f   NpScene.obj
 0001:000a2ee0       ?getContactReportStreamBufferSize@NpScene@physx@@UEBAIXZ 00000001800a3ee0 f   NpScene.obj
 0001:000a2ef0       ?getTimestamp@NpScene@physx@@UEBAIXZ 00000001800a3ef0 f   NpScene.obj
 0001:000a2f00       ?getSceneQueryStaticTimestamp@NpScene@physx@@UEBAIXZ 00000001800a3f00 f   NpScene.obj
 0001:000a2f10       ?getCpuDispatcher@NpScene@physx@@UEBAPEAVPxCpuDispatcher@2@XZ 00000001800a3f10 f   NpScene.obj
 0001:000a2f40       ?getGpuDispatcher@NpScene@physx@@UEBAPEAVPxGpuDispatcher@2@XZ 00000001800a3f40 f   NpScene.obj
 0001:000a2f70       ?getStaticStructure@NpScene@physx@@UEBA?AW4Enum@PxPruningStructureType@2@XZ 00000001800a3f70 f   NpScene.obj
 0001:000a2f80       ?getDynamicStructure@NpScene@physx@@UEBA?AW4Enum@PxPruningStructureType@2@XZ 00000001800a3f80 f   NpScene.obj
 0001:000a2f90       ?getBroadPhaseType@NpScene@physx@@UEBA?AW4Enum@PxBroadPhaseType@2@XZ 00000001800a3f90 f   NpScene.obj
 0001:000a2fd0       ?getBroadPhaseCaps@NpScene@physx@@UEBA_NAEAUPxBroadPhaseCaps@2@@Z 00000001800a3fd0 f   NpScene.obj
 0001:000a3030       ?getNbBroadPhaseRegions@NpScene@physx@@UEBAIXZ 00000001800a4030 f   NpScene.obj
 0001:000a3070       ?getBroadPhaseRegions@NpScene@physx@@UEBAIPEAUPxBroadPhaseRegionInfo@2@II@Z 00000001800a4070 f   NpScene.obj
 0001:000a30e0       ?addBroadPhaseRegion@NpScene@physx@@UEAAIAEBUPxBroadPhaseRegion@2@_N@Z 00000001800a40e0 f   NpScene.obj
 0001:000a3320       ?removeBroadPhaseRegion@NpScene@physx@@UEAA_NI@Z 00000001800a4320 f   NpScene.obj
 0001:000a3380       ?addActors@NpScene@physx@@UEAAXPEBQEAVPxActor@2@I@Z 00000001800a4380 f   NpScene.obj
 0001:000a3390       ?addActors@NpScene@physx@@UEAAXAEBVPxPruningStructure@2@@Z 00000001800a4390 f   NpScene.obj
 0001:000a33f0       ?removeActors@NpScene@physx@@UEAAXPEBQEAVPxActor@2@I_N@Z 00000001800a43f0 f   NpScene.obj
 0001:000a3b60       ?lockRead@NpScene@physx@@UEAAXPEBDI@Z 00000001800a4b60 f   NpScene.obj
 0001:000a3be0       ?unlockRead@NpScene@physx@@UEAAXXZ 00000001800a4be0 f   NpScene.obj
 0001:000a3c90       ?lockWrite@NpScene@physx@@UEAAXPEBDI@Z 00000001800a4c90 f   NpScene.obj
 0001:000a3d70       ?unlockWrite@NpScene@physx@@UEAAXXZ 00000001800a4d70 f   NpScene.obj
 0001:000a3e20       ?getWakeCounterResetValue@NpScene@physx@@UEBAMXZ 00000001800a4e20 f   NpScene.obj
 0001:000a3e70       ?shiftOrigin@NpScene@physx@@UEAAXAEBVPxVec3@2@@Z 00000001800a4e70 f   NpScene.obj
 0001:000a44d0       ?getScenePvdClient@NpScene@physx@@UEAAPEAVPxPvdSceneClient@2@XZ 00000001800a54d0 f   NpScene.obj
 0001:000a44e0       ??0NpScene@physx@@QEAA@AEBVPxSceneDesc@1@@Z 00000001800a54e0 f   NpScene.obj
 0001:000a4c40       ??1NpScene@physx@@UEAA@XZ  00000001800a5c40 f   NpScene.obj
 0001:000a5420       ?addActorInternal@NpScene@physx@@QEAAXAEAVPxActor@2@@Z 00000001800a6420 f   NpScene.obj
 0001:000a57f0       ?removeActorInternal@NpScene@physx@@QEAAXAEAVPxActor@2@_N1@Z 00000001800a67f0 f   NpScene.obj
 0001:000a5c50       ?addActorsInternal@NpScene@physx@@QEAAXPEIBQEAVPxActor@2@IPEBVPruningStructure@Sq@2@@Z 00000001800a6c50 f   NpScene.obj
 0001:000a65a0       ?addArticulationInternal@NpScene@physx@@QEAAXAEAVPxArticulation@2@@Z 00000001800a75a0 f   NpScene.obj
 0001:000a6b20       ?removeArticulationInternal@NpScene@physx@@QEAAXAEAVPxArticulation@2@_N1@Z 00000001800a7b20 f   NpScene.obj
 0001:000a6dc0       ?addMaterial@NpScene@physx@@QEAAXAEBVNpMaterial@2@@Z 00000001800a7dc0 f   NpScene.obj
 0001:000a6de0       ?updateMaterial@NpScene@physx@@QEAAXAEBVNpMaterial@2@@Z 00000001800a7de0 f   NpScene.obj
 0001:000a6e00       ?removeMaterial@NpScene@physx@@QEAAXAEBVNpMaterial@2@@Z 00000001800a7e00 f   NpScene.obj
 0001:000a6e20       ?executeScene@NpScene@physx@@QEAAXPEAVPxBaseTask@2@@Z 00000001800a7e20 f   NpScene.obj
 0001:000a6e40       ?executeCollide@NpScene@physx@@QEAAXPEAVPxBaseTask@2@@Z 00000001800a7e40 f   NpScene.obj
 0001:000a6e60       ?executeAdvance@NpScene@physx@@QEAAXPEAVPxBaseTask@2@@Z 00000001800a7e60 f   NpScene.obj
 0001:000a6e80       ?loadFromDesc@NpScene@physx@@QEAA_NAEBVPxSceneDesc@2@@Z 00000001800a7e80 f   NpScene.obj
 0001:000a6ef0       ?removeFromRigidActorList@NpScene@physx@@QEAAXAEBI@Z 00000001800a7ef0 f   NpScene.obj
 0001:000a6f70       ?addArticulationLink@NpScene@physx@@QEAAXAEAVNpArticulationLink@2@@Z 00000001800a7f70 f   NpScene.obj
 0001:000a7000       ?addArticulationLinkBody@NpScene@physx@@QEAAXAEAVNpArticulationLink@2@@Z 00000001800a8000 f   NpScene.obj
 0001:000a7050       ?addArticulationLinkConstraint@NpScene@physx@@QEAAXAEAVNpArticulationLink@2@@Z 00000001800a8050 f   NpScene.obj
 0001:000a70a0       ?removeArticulationLink@NpScene@physx@@QEAAXAEAVNpArticulationLink@2@_N@Z 00000001800a80a0 f   NpScene.obj
 0001:000a7130       ?startWrite@NpScene@physx@@QEAA?AW4Enum@StartWriteResult@12@_N@Z 00000001800a8130 f   NpScene.obj
 0001:000a7260       ?stopWrite@NpScene@physx@@QEAAX_N@Z 00000001800a8260 f   NpScene.obj
 0001:000a72f0       ?startRead@NpScene@physx@@QEBA_NXZ 00000001800a82f0 f   NpScene.obj
 0001:000a73d0       ?stopRead@NpScene@physx@@QEBAXXZ 00000001800a83d0 f   NpScene.obj
 0001:000a7450       ?checkPositionSanity@NpScene@physx@@QEBAXAEBVPxRigidActor@2@AEBVPxTransform@2@PEBD@Z 00000001800a8450 f   NpScene.obj
 0001:000a74f0       ?addCloth@NpScene@physx@@QEAAXAEAVNpCloth@2@@Z 00000001800a84f0 f   NpScene.obj
 0001:000a75d0       ?removeCloth@NpScene@physx@@QEAAXAEAVNpCloth@2@@Z 00000001800a85d0 f   NpScene.obj
 0001:000a76a0       ?updatePhysXIndicator@NpScene@physx@@QEAAXXZ 00000001800a86a0 f   NpScene.obj
 0001:000a77a0       ?checkResultsInternal@NpScene@physx@@AEAA_N_N@Z 00000001800a87a0 f   NpScene.obj
 0001:000a7860       ?checkCollisionInternal@NpScene@physx@@AEAA_N_N@Z 00000001800a8860 f   NpScene.obj
 0001:000a7920       ?simulateOrCollide@NpScene@physx@@AEAAXMPEAVPxBaseTask@2@PEAXI_NPEBDW4Enum@SimulationStage@Sc@2@@Z 00000001800a8920 f   NpScene.obj
 0001:000a7e70       ?addRigidStatic@NpScene@physx@@AEAAXAEAVNpRigidStatic@2@_N@Z 00000001800a8e70 f   NpScene.obj
 0001:000a7f90       ?removeRigidStatic@NpScene@physx@@AEAAXAEAVNpRigidStatic@2@_N1@Z 00000001800a8f90 f   NpScene.obj
 0001:000a80d0       ?addRigidDynamic@NpScene@physx@@AEAAXAEAVNpRigidDynamic@2@_N@Z 00000001800a90d0 f   NpScene.obj
 0001:000a81f0       ?removeRigidDynamic@NpScene@physx@@AEAAXAEAVNpRigidDynamic@2@_N1@Z 00000001800a91f0 f   NpScene.obj
 0001:000a8330       ?addParticleSystem@NpScene@physx@@AEAAXAEAVNpParticleSystem@2@@Z 00000001800a9330 f   NpScene.obj
 0001:000a8440       ?removeParticleSystem@NpScene@physx@@AEAAXAEAVNpParticleSystem@2@@Z 00000001800a9440 f   NpScene.obj
 0001:000a8550       ?addParticleFluid@NpScene@physx@@AEAAXAEAVNpParticleFluid@2@@Z 00000001800a9550 f   NpScene.obj
 0001:000a8630       ?removeParticleFluid@NpScene@physx@@AEAAXAEAVNpParticleFluid@2@@Z 00000001800a9630 f   NpScene.obj
 0001:000a8700       ?visualize@NpScene@physx@@AEAAXXZ 00000001800a9700 f   NpScene.obj
 0001:000a8b20       ?updateDirtyShaders@NpScene@physx@@AEAAXXZ 00000001800a9b20 f   NpScene.obj
 0001:000a8c00       ?fireOutOfBoundsCallbacks@NpScene@physx@@AEAAXXZ 00000001800a9c00 f   NpScene.obj
 0001:000a8e40       ?fetchResultsPreContactCallbacks@NpScene@physx@@AEAAXXZ 00000001800a9e40 f   NpScene.obj
 0001:000a8f20       ?fetchResultsPostContactCallbacks@NpScene@physx@@AEAAXXZ 00000001800a9f20 f   NpScene.obj
 0001:000a91f0       ?updateScbStateAndSetupSq@NpScene@physx@@AEAAXAEBVPxRigidActor@2@AEAVActor@Scb@2@AEAVNpShapeManager@2@_NPEBVPxBounds3@2@3@Z 00000001800aa1f0 f   NpScene.obj
 0001:000ac000       ??$allocArrayBuffer@PEAVShape@Scb@physx@@@Scene@Scb@physx@@AEAAPEAPEAVShape@12@AEAV?$Array@PEAVShape@Scb@physx@@VNamedAllocator@shdfnd@3@@shdfnd@2@IAEAI@Z 00000001800ad000 f i NpScene.obj
 0001:000ac060       ??1?$Array@IVNamedAllocator@shdfnd@physx@@@shdfnd@physx@@QEAA@XZ 00000001800ad060 f i NpScene.obj
 0001:000ac0a0       ??1?$PoolBase@U?$Block@E$0BAA@@Scene@Sc@physx@@VNamedAllocator@shdfnd@4@@shdfnd@physx@@QEAA@XZ 00000001800ad0a0 f i NpScene.obj
 0001:000ac340       ??1?$PoolBase@U?$Block@E$0BIA@@Scene@Sc@physx@@VNamedAllocator@shdfnd@4@@shdfnd@physx@@QEAA@XZ 00000001800ad340 f i NpScene.obj
 0001:000ac5e0       ??1?$PoolBase@U?$Block@E$0IA@@Scene@Sc@physx@@VNamedAllocator@shdfnd@4@@shdfnd@physx@@QEAA@XZ 00000001800ad5e0 f i NpScene.obj
 0001:000ac880       ??1?$PoolBase@U?$Block@PEAX$07@Scene@Sc@physx@@VNamedAllocator@shdfnd@4@@shdfnd@physx@@QEAA@XZ 00000001800ad880 f i NpScene.obj
 0001:000acb20       ??1?$PoolBase@U?$Block@PEAX$0BA@@Scene@Sc@physx@@VNamedAllocator@shdfnd@4@@shdfnd@physx@@QEAA@XZ 00000001800adb20 f i NpScene.obj
 0001:000acdc0       ??1?$PoolBase@U?$Block@PEAX$0CA@@Scene@Sc@physx@@VNamedAllocator@shdfnd@4@@shdfnd@physx@@QEAA@XZ 00000001800addc0 f i NpScene.obj
 0001:000ad060       ??1FanoutTask@Cm@physx@@UEAA@XZ 00000001800ae060 f i NpScene.obj
 0001:000ad150       ??1FlushPool@Cm@physx@@QEAA@XZ 00000001800ae150 f i NpScene.obj
 0001:000ad220       ??1PvdSceneQueryCollector@Vd@physx@@QEAA@XZ 00000001800ae220 f i NpScene.obj
 0001:000ad430       ??1PxRenderBuffer@physx@@UEAA@XZ 00000001800ae430 f i NpScene.obj
 0001:000ad440       ??1PxScene@physx@@MEAA@XZ  00000001800ae440 f i NpScene.obj
 0001:000ad450       ??1RenderBuffer@Cm@physx@@UEAA@XZ 00000001800ae450 f i NpScene.obj
 0001:000ad570       ??1Scene@Sc@physx@@QEAA@XZ 00000001800ae570 f i NpScene.obj
 0001:000ae2c0       ??1Scene@Scb@physx@@QEAA@XZ 00000001800af2c0 f i NpScene.obj
 0001:000ae5e0       ??1SqRefFinder@Sc@physx@@UEAA@XZ 00000001800af5e0 f i NpScene.obj
 0001:000ae5f0       ??_E?$DelegateTask@VNpScene@physx@@$H?executeAdvance@12@QEAAXPEAVPxBaseTask@2@@ZA@@Cm@physx@@UEAAPEAXI@Z 00000001800af5f0 f i NpScene.obj
 0001:000ae5f0       ??_G?$DelegateTask@VNpScene@physx@@$H?executeAdvance@12@QEAAXPEAVPxBaseTask@2@@ZA@@Cm@physx@@UEAAPEAXI@Z 00000001800af5f0 f i NpScene.obj
 0001:000ae660       ??_G?$DelegateTask@VNpScene@physx@@$H?executeCollide@12@QEAAXPEAVPxBaseTask@2@@ZA@@Cm@physx@@UEAAPEAXI@Z 00000001800af660 f i NpScene.obj
 0001:000ae660       ??_E?$DelegateTask@VNpScene@physx@@$H?executeCollide@12@QEAAXPEAVPxBaseTask@2@@ZA@@Cm@physx@@UEAAPEAXI@Z 00000001800af660 f i NpScene.obj
 0001:000ae6d0       ??_E?$DelegateTask@VNpScene@physx@@$H?executeScene@12@QEAAXPEAVPxBaseTask@2@@ZA@@Cm@physx@@UEAAPEAXI@Z 00000001800af6d0 f i NpScene.obj
 0001:000ae6d0       ??_G?$DelegateTask@VNpScene@physx@@$H?executeScene@12@QEAAXPEAVPxBaseTask@2@@ZA@@Cm@physx@@UEAAPEAXI@Z 00000001800af6d0 f i NpScene.obj
 0001:000ae740       ??_ENpContactCallbackTask@physx@@UEAAPEAXI@Z 00000001800af740 f i NpScene.obj
 0001:000ae740       ??_GNpContactCallbackTask@physx@@UEAAPEAXI@Z 00000001800af740 f i NpScene.obj
 0001:000ae780       ??_GNpScene@physx@@UEAAPEAXI@Z 00000001800af780 f i NpScene.obj
 0001:000ae780       ??_ENpScene@physx@@UEAAPEAXI@Z 00000001800af780 f i NpScene.obj
 0001:000ae800       ??_GNpSceneQueries@physx@@UEAAPEAXI@Z 00000001800af800 f i NpScene.obj
 0001:000ae800       ??_ENpSceneQueries@physx@@UEAAPEAXI@Z 00000001800af800 f i NpScene.obj
 0001:000ae890       ??_GPxLightCpuTask@physx@@UEAAPEAXI@Z 00000001800af890 f i NpScene.obj
 0001:000ae890       ??_EPxLightCpuTask@physx@@UEAAPEAXI@Z 00000001800af890 f i NpScene.obj
 0001:000ae8d0       ??_GPxRenderBuffer@physx@@UEAAPEAXI@Z 00000001800af8d0 f i NpScene.obj
 0001:000ae8d0       ??_EPxRenderBuffer@physx@@UEAAPEAXI@Z 00000001800af8d0 f i NpScene.obj
 0001:000ae910       ??_EPxScene@physx@@MEAAPEAXI@Z 00000001800af910 f i NpScene.obj
 0001:000ae910       ??_GPxScene@physx@@MEAAPEAXI@Z 00000001800af910 f i NpScene.obj
 0001:000ae950       ??_ERenderBuffer@Cm@physx@@UEAAPEAXI@Z 00000001800af950 f i NpScene.obj
 0001:000ae950       ??_GRenderBuffer@Cm@physx@@UEAAPEAXI@Z 00000001800af950 f i NpScene.obj
 0001:000ae9d0       ??_GSceneCompletion@NpScene@physx@@UEAAPEAXI@Z 00000001800af9d0 f i NpScene.obj
 0001:000ae9d0       ??_ESceneCompletion@NpScene@physx@@UEAAPEAXI@Z 00000001800af9d0 f i NpScene.obj
 0001:000aea10       ??_GSqRefFinder@@UEAAPEAXI@Z 00000001800afa10 f i NpScene.obj
 0001:000aea10       ??_ESqRefFinder@@UEAAPEAXI@Z 00000001800afa10 f i NpScene.obj
 0001:000aea50       ??_ESqRefFinder@Sc@physx@@UEAAPEAXI@Z 00000001800afa50 f i NpScene.obj
 0001:000aea50       ??_GSqRefFinder@Sc@physx@@UEAAPEAXI@Z 00000001800afa50 f i NpScene.obj
 0001:000aea90       ??_ETask@Cm@physx@@UEAAPEAXI@Z 00000001800afa90 f i NpScene.obj
 0001:000aea90       ??_GTask@Cm@physx@@UEAAPEAXI@Z 00000001800afa90 f i NpScene.obj
 0001:000aead0       ?addReference@PxLightCpuTask@physx@@UEAAXXZ 00000001800afad0 f i NpScene.obj
 0001:000aeaf0       ?allocate@?$Array@VPxBounds3@physx@@V?$InlineAllocator@$0MA@VNamedAllocator@shdfnd@physx@@@shdfnd@2@@shdfnd@physx@@IEAAPEAVPxBounds3@3@I@Z 00000001800afaf0 f i NpScene.obj
 0001:000aeb90       ?append@RenderBuffer@Cm@physx@@UEAAXAEBVPxRenderBuffer@3@@Z 00000001800afb90 f i NpScene.obj
 0001:000aef20       ?clear@RenderBuffer@Cm@physx@@UEAAXXZ 00000001800aff20 f i NpScene.obj
 0001:000aef40       ?copy@?$Array@UPxDebugPoint@physx@@VNamedAllocator@shdfnd@2@@shdfnd@physx@@KAXPEAUPxDebugPoint@3@0PEBU43@@Z 00000001800aff40 f i NpScene.obj
 0001:000af080       ?copy@?$Array@UPxDebugText@physx@@VNamedAllocator@shdfnd@2@@shdfnd@physx@@KAXPEAUPxDebugText@3@0PEBU43@@Z 00000001800b0080 f i NpScene.obj
 0001:000af250       ?copy@?$Array@UPxDebugTriangle@physx@@VNamedAllocator@shdfnd@2@@shdfnd@physx@@KAXPEAUPxDebugTriangle@3@0PEBU43@@Z 00000001800b0250 f i NpScene.obj
 0001:000af4d0       ?create@?$HashBase@PEAVNpVolumeCache@physx@@PEAV12@U?$Hash@PEAVNpVolumeCache@physx@@@shdfnd@2@UGetKey@?$HashSetBase@PEAVNpVolumeCache@physx@@U?$Hash@PEAVNpVolumeCache@physx@@@shdfnd@2@VNonTrackingAllocator@42@$0A@@internal@42@VNonTrackingAllocator@42@$0A@@internal@shdfnd@physx@@QEAAPEAPEAVNpVolumeCache@4@AEBQEAV54@AEA_N@Z 00000001800b04d0 f i NpScene.obj
 0001:000af6e0       ?create@?$HashBase@PEAVPxAggregate@physx@@PEAV12@U?$Hash@PEAVPxAggregate@physx@@@shdfnd@2@UGetKey@?$HashSetBase@PEAVPxAggregate@physx@@U?$Hash@PEAVPxAggregate@physx@@@shdfnd@2@VNonTrackingAllocator@42@$00@internal@42@VNonTrackingAllocator@42@$00@internal@shdfnd@physx@@QEAAPEAPEAVPxAggregate@4@AEBQEAV54@AEA_N@Z 00000001800b06e0 f i NpScene.obj
 0001:000af8e0       ?create@?$HashBase@PEAVPxArticulation@physx@@PEAV12@U?$Hash@PEAVPxArticulation@physx@@@shdfnd@2@UGetKey@?$HashSetBase@PEAVPxArticulation@physx@@U?$Hash@PEAVPxArticulation@physx@@@shdfnd@2@VNonTrackingAllocator@42@$00@internal@42@VNonTrackingAllocator@42@$00@internal@shdfnd@physx@@QEAAPEAPEAVPxArticulation@4@AEBQEAV54@AEA_N@Z 00000001800b08e0 f i NpScene.obj
 0001:000afae0       ?create@?$HashBase@PEAVPxCloth@physx@@PEAV12@U?$Hash@PEAVPxCloth@physx@@@shdfnd@2@UGetKey@?$HashSetBase@PEAVPxCloth@physx@@U?$Hash@PEAVPxCloth@physx@@@shdfnd@2@VNonTrackingAllocator@42@$00@internal@42@VNonTrackingAllocator@42@$00@internal@shdfnd@physx@@QEAAPEAPEAVPxCloth@4@AEBQEAV54@AEA_N@Z 00000001800b0ae0 f i NpScene.obj
 0001:000afce0       ?create@?$HashBase@PEAVPxParticleBase@physx@@PEAV12@U?$Hash@PEAVPxParticleBase@physx@@@shdfnd@2@UGetKey@?$HashSetBase@PEAVPxParticleBase@physx@@U?$Hash@PEAVPxParticleBase@physx@@@shdfnd@2@VNonTrackingAllocator@42@$00@internal@42@VNonTrackingAllocator@42@$00@internal@shdfnd@physx@@QEAAPEAPEAVPxParticleBase@4@AEBQEAV54@AEA_N@Z 00000001800b0ce0 f i NpScene.obj
 0001:000afee0       ?erase@?$HashBase@PEAVPxCloth@physx@@PEAV12@U?$Hash@PEAVPxCloth@physx@@@shdfnd@2@UGetKey@?$HashSetBase@PEAVPxCloth@physx@@U?$Hash@PEAVPxCloth@physx@@@shdfnd@2@VNonTrackingAllocator@42@$00@internal@42@VNonTrackingAllocator@42@$00@internal@shdfnd@physx@@QEAA_NAEBQEAVPxCloth@4@@Z 00000001800b0ee0 f i NpScene.obj
 0001:000b00c0       ?find@SqRefFinder@@UEAAIPEBVPxRigidBody@physx@@PEBVPxShape@3@@Z 00000001800b10c0 f i NpScene.obj
 0001:000b00f0       ?flush@NpScene@physx@@UEAAX_N@Z 00000001800b10f0 f i NpScene.obj
 0001:000b0100       ?getLines@RenderBuffer@Cm@physx@@UEBAPEBUPxDebugLine@3@XZ 00000001800b1100 f i NpScene.obj
 0001:000b0110       ?getName@?$DelegateTask@VNpScene@physx@@$H?executeAdvance@12@QEAAXPEAVPxBaseTask@2@@ZA@@Cm@physx@@UEBAPEBDXZ 00000001800b1110 f i NpScene.obj
 0001:000b0120       ?getName@?$DelegateTask@VNpScene@physx@@$H?executeCollide@12@QEAAXPEAVPxBaseTask@2@@ZA@@Cm@physx@@UEBAPEBDXZ 00000001800b1120 f i NpScene.obj
 0001:000b0130       ?getName@?$DelegateTask@VNpScene@physx@@$H?executeScene@12@QEAAXPEAVPxBaseTask@2@@ZA@@Cm@physx@@UEBAPEBDXZ 00000001800b1130 f i NpScene.obj
 0001:000b0140       ?getName@NpContactCallbackTask@physx@@UEBAPEBDXZ 00000001800b1140 f i NpScene.obj
 0001:000b0150       ?getName@SceneCompletion@NpScene@physx@@UEBAPEBDXZ 00000001800b1150 f i NpScene.obj
 0001:000b0160       ?getNbLines@RenderBuffer@Cm@physx@@UEBAIXZ 00000001800b1160 f i NpScene.obj
 0001:000b0170       ?getNbPoints@RenderBuffer@Cm@physx@@UEBAIXZ 00000001800b1170 f i NpScene.obj
 0001:000b0180       ?getNbTexts@RenderBuffer@Cm@physx@@UEBAIXZ 00000001800b1180 f i NpScene.obj
 0001:000b0190       ?getNbTriangles@RenderBuffer@Cm@physx@@UEBAIXZ 00000001800b1190 f i NpScene.obj
 0001:000b01a0       ?getPoints@RenderBuffer@Cm@physx@@UEBAPEBUPxDebugPoint@3@XZ 00000001800b11a0 f i NpScene.obj
 0001:000b01b0       ?getReference@PxLightCpuTask@physx@@UEBAHXZ 00000001800b11b0 f i NpScene.obj
 0001:000b01c0       ?getTaskManager@NpScene@physx@@UEAAPEAVPxTaskManager@2@XZ 00000001800b11c0 f i NpScene.obj
 0001:000b01d0       ?getTaskManager@NpScene@physx@@UEBAPEAVPxTaskManager@2@XZ 00000001800b11d0 f i NpScene.obj
 0001:000b01e0       ?getTexts@RenderBuffer@Cm@physx@@UEBAPEBUPxDebugText@3@XZ 00000001800b11e0 f i NpScene.obj
 0001:000b01f0       ?getTriangles@RenderBuffer@Cm@physx@@UEBAPEBUPxDebugTriangle@3@XZ 00000001800b11f0 f i NpScene.obj
 0001:000b0200       ?growAndPushBack@?$Array@PEAVNpBatchQuery@physx@@VNamedAllocator@shdfnd@2@@shdfnd@physx@@IEAAAEAPEAVNpBatchQuery@3@AEBQEAV43@@Z 00000001800b1200 f i NpScene.obj
 0001:000b0330       ?growAndPushBack@?$Array@PEAVNpVolumeCache@physx@@VNamedAllocator@shdfnd@2@@shdfnd@physx@@IEAAAEAPEAVNpVolumeCache@3@AEBQEAV43@@Z 00000001800b1330 f i NpScene.obj
 0001:000b0460       ?growAndPushBack@?$Array@PEAVPxActor@physx@@VNamedAllocator@shdfnd@2@@shdfnd@physx@@IEAAAEAPEAVPxActor@3@AEBQEAV43@@Z 00000001800b1460 f i NpScene.obj
 0001:000b0590       ?growAndPushBack@?$Array@PEAVPxRigidActor@physx@@VNamedAllocator@shdfnd@2@@shdfnd@physx@@IEAAAEAPEAVPxRigidActor@3@AEBQEAV43@@Z 00000001800b1590 f i NpScene.obj
 0001:000b06c0       ?growAndPushBack@?$Array@UPxDebugLine@physx@@VNamedAllocator@shdfnd@2@@shdfnd@physx@@IEAAAEAUPxDebugLine@3@AEBU43@@Z 00000001800b16c0 f i NpScene.obj
 0001:000b0800       ?growAndPushBack@?$Array@UPxDebugPoint@physx@@VNamedAllocator@shdfnd@2@@shdfnd@physx@@IEAAAEAUPxDebugPoint@3@AEBU43@@Z 00000001800b1800 f i NpScene.obj
 0001:000b0920       ?growAndPushBack@?$Array@UPxDebugText@physx@@VNamedAllocator@shdfnd@2@@shdfnd@physx@@IEAAAEAUPxDebugText@3@AEBU43@@Z 00000001800b1920 f i NpScene.obj
 0001:000b0a50       ?growAndPushBack@?$Array@UPxDebugTriangle@physx@@VNamedAllocator@shdfnd@2@@shdfnd@physx@@IEAAAEAUPxDebugTriangle@3@AEBU43@@Z 00000001800b1a50 f i NpScene.obj
 0001:000b0bc0       ?isAddedShape@RigidObject@Scb@physx@@QEAA_NAEAVShape@23@@Z 00000001800b1bc0 f i NpScene.obj
 0001:000b0c80       ?recreate@?$Array@GVNamedAllocator@shdfnd@physx@@@shdfnd@physx@@IEAAXI@Z 00000001800b1c80 f i NpScene.obj
 0001:000b0d90       ?recreate@?$Array@PEAVNpVolumeCache@physx@@VNamedAllocator@shdfnd@2@@shdfnd@physx@@IEAAXI@Z 00000001800b1d90 f i NpScene.obj
 0001:000b0ea0       ?recreate@?$Array@PEAVPxRigidActor@physx@@VNamedAllocator@shdfnd@2@@shdfnd@physx@@IEAAXI@Z 00000001800b1ea0 f i NpScene.obj
 0001:000b0fb0       ?recreate@?$Array@PEAVShape@Scb@physx@@VNamedAllocator@shdfnd@3@@shdfnd@physx@@IEAAXI@Z 00000001800b1fb0 f i NpScene.obj
 0001:000b10c0       ?recreate@?$Array@UPxDebugPoint@physx@@VNamedAllocator@shdfnd@2@@shdfnd@physx@@IEAAXI@Z 00000001800b20c0 f i NpScene.obj
 0001:000b1180       ?recreate@?$Array@UPxDebugText@physx@@VNamedAllocator@shdfnd@2@@shdfnd@physx@@IEAAXI@Z 00000001800b2180 f i NpScene.obj
 0001:000b1240       ?recreate@?$Array@UPxDebugTriangle@physx@@VNamedAllocator@shdfnd@2@@shdfnd@physx@@IEAAXI@Z 00000001800b2240 f i NpScene.obj
 0001:000b1310       ?recreate@?$Array@VPxBounds3@physx@@V?$InlineAllocator@$0MA@VNamedAllocator@shdfnd@physx@@@shdfnd@2@@shdfnd@physx@@IEAAXI@Z 00000001800b2310 f i NpScene.obj
 0001:000b1520       ?release@PxLightCpuTask@physx@@UEAAXXZ 00000001800b2520 f i NpScene.obj
 0001:000b1540       ?release@SceneCompletion@NpScene@physx@@UEAAXXZ 00000001800b2540 f i NpScene.obj
 0001:000b1580       ?removeReference@PxLightCpuTask@physx@@UEAAXXZ 00000001800b2580 f i NpScene.obj
 0001:000b15a0       ?reserveInternal@?$HashBase@PEAVNpVolumeCache@physx@@PEAV12@U?$Hash@PEAVNpVolumeCache@physx@@@shdfnd@2@UGetKey@?$HashSetBase@PEAVNpVolumeCache@physx@@U?$Hash@PEAVNpVolumeCache@physx@@@shdfnd@2@VNonTrackingAllocator@42@$0A@@internal@42@VNonTrackingAllocator@42@$0A@@internal@shdfnd@physx@@AEAAXI@Z 00000001800b25a0 f i NpScene.obj
 0001:000b1a50       ?reserveInternal@?$HashBase@PEAVPxAggregate@physx@@PEAV12@U?$Hash@PEAVPxAggregate@physx@@@shdfnd@2@UGetKey@?$HashSetBase@PEAVPxAggregate@physx@@U?$Hash@PEAVPxAggregate@physx@@@shdfnd@2@VNonTrackingAllocator@42@$00@internal@42@VNonTrackingAllocator@42@$00@internal@shdfnd@physx@@AEAAXI@Z 00000001800b2a50 f i NpScene.obj
 0001:000b1ca0       ?reserveInternal@?$HashBase@PEAVPxArticulation@physx@@PEAV12@U?$Hash@PEAVPxArticulation@physx@@@shdfnd@2@UGetKey@?$HashSetBase@PEAVPxArticulation@physx@@U?$Hash@PEAVPxArticulation@physx@@@shdfnd@2@VNonTrackingAllocator@42@$00@internal@42@VNonTrackingAllocator@42@$00@internal@shdfnd@physx@@AEAAXI@Z 00000001800b2ca0 f i NpScene.obj
 0001:000b1ef0       ?reserveInternal@?$HashBase@PEAVPxCloth@physx@@PEAV12@U?$Hash@PEAVPxCloth@physx@@@shdfnd@2@UGetKey@?$HashSetBase@PEAVPxCloth@physx@@U?$Hash@PEAVPxCloth@physx@@@shdfnd@2@VNonTrackingAllocator@42@$00@internal@42@VNonTrackingAllocator@42@$00@internal@shdfnd@physx@@AEAAXI@Z 00000001800b2ef0 f i NpScene.obj
 0001:000b2140       ?reserveInternal@?$HashBase@PEAVPxParticleBase@physx@@PEAV12@U?$Hash@PEAVPxParticleBase@physx@@@shdfnd@2@UGetKey@?$HashSetBase@PEAVPxParticleBase@physx@@U?$Hash@PEAVPxParticleBase@physx@@@shdfnd@2@VNonTrackingAllocator@42@$00@internal@42@VNonTrackingAllocator@42@$00@internal@shdfnd@physx@@AEAAXI@Z 00000001800b3140 f i NpScene.obj
 0001:000b2390       ?resetFiltering@?$NpRigidActorTemplate@VPxArticulationLink@physx@@@physx@@QEAA_NAEAVRigidObject@Scb@2@PEBQEAVPxShape@2@I@Z 00000001800b3390 f i NpScene.obj
 0001:000b2790       ?resetFiltering@?$NpRigidActorTemplate@VPxRigidDynamic@physx@@@physx@@QEAA_NAEAVRigidObject@Scb@2@PEBQEAVPxShape@2@I@Z 00000001800b3790 f i NpScene.obj
 0001:000b2b90       ?resetFiltering@?$NpRigidActorTemplate@VPxRigidStatic@physx@@@physx@@QEAA_NAEAVRigidObject@Scb@2@PEBQEAVPxShape@2@I@Z 00000001800b3b90 f i NpScene.obj
 0001:000b2f90       ?resetFiltering@ParticleSystem@Scb@physx@@QEAAXXZ 00000001800b3f90 f i NpScene.obj
 0001:000b3030       ?resetFiltering@RigidObject@Scb@physx@@QEAAXPEBQEAVShape@23@I@Z 00000001800b4030 f i NpScene.obj
 0001:000b3380       ?resize@?$Array@GVNamedAllocator@shdfnd@physx@@@shdfnd@physx@@QEAAXIAEBG@Z 00000001800b4380 f i NpScene.obj
 0001:000b34a0       ?resize@?$Array@PEAVShape@Scb@physx@@VNamedAllocator@shdfnd@3@@shdfnd@physx@@QEAAXIAEBQEAVShape@Scb@3@@Z 00000001800b44a0 f i NpScene.obj
 0001:000b35b0       ?resizeUninitialized@?$Array@VPxBounds3@physx@@V?$InlineAllocator@$0MA@VNamedAllocator@shdfnd@physx@@@shdfnd@2@@shdfnd@physx@@QEAAXI@Z 00000001800b45b0 f i NpScene.obj
 0001:000b3610       ?run@Task@Cm@physx@@UEAAXXZ 00000001800b4610 f i NpScene.obj
 0001:000b3660       ?runInternal@?$DelegateTask@VNpScene@physx@@$H?executeAdvance@12@QEAAXPEAVPxBaseTask@2@@ZA@@Cm@physx@@UEAAXXZ 00000001800b4660 f i NpScene.obj
 0001:000b3670       ?runInternal@?$DelegateTask@VNpScene@physx@@$H?executeCollide@12@QEAAXPEAVPxBaseTask@2@@ZA@@Cm@physx@@UEAAXXZ 00000001800b4670 f i NpScene.obj
 0001:000b3680       ?runInternal@?$DelegateTask@VNpScene@physx@@$H?executeScene@12@QEAAXPEAVPxBaseTask@2@@ZA@@Cm@physx@@UEAAXXZ 00000001800b4680 f i NpScene.obj
 0001:000b3690       ?runInternal@SceneCompletion@NpScene@physx@@UEAAXXZ 00000001800b4690 f i NpScene.obj
 0001:000b36a0       ?setContinuation@PxLightCpuTask@physx@@QEAAXPEAVPxBaseTask@2@@Z 00000001800b46a0 f i NpScene.obj
 0001:000b36f0       ?shift@RenderBuffer@Cm@physx@@QEAAXAEBVPxVec3@3@@Z 00000001800b46f0 f i NpScene.obj
 0001:000b3960       ?raycast@NpSceneQueries@physx@@UEBA_NAEBVPxVec3@2@0MAEAU?$PxHitCallback@UPxRaycastHit@physx@@@2@V?$PxFlags@W4Enum@PxHitFlag@physx@@G@2@AEBUPxQueryFilterData@2@PEAVPxQueryFilterCallback@2@PEBUPxQueryCache@2@@Z 00000001800b4960 f   NpSceneQueries.obj
 0001:000b3b10       ?sweep@NpSceneQueries@physx@@UEBA_NAEBVPxGeometry@2@AEBVPxTransform@2@AEBVPxVec3@2@MAEAU?$PxHitCallback@UPxSweepHit@physx@@@2@V?$PxFlags@W4Enum@PxHitFlag@physx@@G@2@AEBUPxQueryFilterData@2@PEAVPxQueryFilterCallback@2@PEBUPxQueryCache@2@M@Z 00000001800b4b10 f   NpSceneQueries.obj
 0001:000b3e00       ?overlap@NpSceneQueries@physx@@UEBA_NAEBVPxGeometry@2@AEBVPxTransform@2@AEAU?$PxHitCallback@UPxOverlapHit@physx@@@2@AEBUPxQueryFilterData@2@PEAVPxQueryFilterCallback@2@@Z 00000001800b4e00 f   NpSceneQueries.obj
 0001:000b42b0       ??$multiQuery@UPxOverlapHit@physx@@@NpSceneQueries@physx@@QEBA_NAEBUMultiQueryInput@1@AEAU?$PxHitCallback@UPxOverlapHit@physx@@@1@V?$PxFlags@W4Enum@PxHitFlag@physx@@G@1@PEBUPxQueryCache@1@AEBUPxQueryFilterData@1@PEAVPxQueryFilterCallback@1@PEAUBatchQueryFilterData@1@@Z 00000001800b52b0 f i NpSceneQueries.obj
 0001:000b4810       ??$multiQuery@UPxRaycastHit@physx@@@NpSceneQueries@physx@@QEBA_NAEBUMultiQueryInput@1@AEAU?$PxHitCallback@UPxRaycastHit@physx@@@1@V?$PxFlags@W4Enum@PxHitFlag@physx@@G@1@PEBUPxQueryCache@1@AEBUPxQueryFilterData@1@PEAVPxQueryFilterCallback@1@PEAUBatchQueryFilterData@1@@Z 00000001800b5810 f i NpSceneQueries.obj
 0001:000b4f10       ??$multiQuery@UPxSweepHit@physx@@@NpSceneQueries@physx@@QEBA_NAEBUMultiQueryInput@1@AEAU?$PxHitCallback@UPxSweepHit@physx@@@1@V?$PxFlags@W4Enum@PxHitFlag@physx@@G@1@PEBUPxQueryCache@1@AEBUPxQueryFilterData@1@PEAVPxQueryFilterCallback@1@PEAUBatchQueryFilterData@1@@Z 00000001800b5f10 f i NpSceneQueries.obj
 0001:000b5740       ??0PxOverlapHit@physx@@QEAA@XZ 00000001800b6740 f i NpSceneQueries.obj
 0001:000b5760       ??0PxRaycastHit@physx@@QEAA@XZ 00000001800b6760 f i NpSceneQueries.obj
 0001:000b57a0       ??0PxSweepHit@physx@@QEAA@XZ 00000001800b67a0 f i NpSceneQueries.obj
 0001:000b57e0       ??1?$CapturePvdOnReturn@UPxOverlapHit@physx@@@@UEAA@XZ 00000001800b67e0 f i NpSceneQueries.obj
 0001:000b59f0       ??1?$CapturePvdOnReturn@UPxRaycastHit@physx@@@@UEAA@XZ 00000001800b69f0 f i NpSceneQueries.obj
 0001:000b5cd0       ??1?$CapturePvdOnReturn@UPxSweepHit@physx@@@@UEAA@XZ 00000001800b6cd0 f i NpSceneQueries.obj
 0001:000b5fb0       ??1PrunerCallback@Sq@physx@@UEAA@XZ 00000001800b6fb0 f i NpSceneQueries.obj
 0001:000b5fc0       ??_G?$CapturePvdOnReturn@UPxOverlapHit@physx@@@@UEAAPEAXI@Z 00000001800b6fc0 f i NpSceneQueries.obj
 0001:000b5fc0       ??_E?$CapturePvdOnReturn@UPxOverlapHit@physx@@@@UEAAPEAXI@Z 00000001800b6fc0 f i NpSceneQueries.obj
 0001:000b6010       ??_E?$CapturePvdOnReturn@UPxRaycastHit@physx@@@@UEAAPEAXI@Z 00000001800b7010 f i NpSceneQueries.obj
 0001:000b6010       ??_G?$CapturePvdOnReturn@UPxRaycastHit@physx@@@@UEAAPEAXI@Z 00000001800b7010 f i NpSceneQueries.obj
 0001:000b6060       ??_G?$CapturePvdOnReturn@UPxSweepHit@physx@@@@UEAAPEAXI@Z 00000001800b7060 f i NpSceneQueries.obj
 0001:000b6060       ??_E?$CapturePvdOnReturn@UPxSweepHit@physx@@@@UEAAPEAXI@Z 00000001800b7060 f i NpSceneQueries.obj
 0001:000b60b0       ??_G?$MultiQueryCallback@UPxOverlapHit@physx@@@@UEAAPEAXI@Z 00000001800b70b0 f i NpSceneQueries.obj
 0001:000b60b0       ??_E?$MultiQueryCallback@UPxOverlapHit@physx@@@@UEAAPEAXI@Z 00000001800b70b0 f i NpSceneQueries.obj
 0001:000b60f0       ??_G?$MultiQueryCallback@UPxRaycastHit@physx@@@@UEAAPEAXI@Z 00000001800b70f0 f i NpSceneQueries.obj
 0001:000b60f0       ??_E?$MultiQueryCallback@UPxRaycastHit@physx@@@@UEAAPEAXI@Z 00000001800b70f0 f i NpSceneQueries.obj
 0001:000b6130       ??_G?$MultiQueryCallback@UPxSweepHit@physx@@@@UEAAPEAXI@Z 00000001800b7130 f i NpSceneQueries.obj
 0001:000b6130       ??_E?$MultiQueryCallback@UPxSweepHit@physx@@@@UEAAPEAXI@Z 00000001800b7130 f i NpSceneQueries.obj
 0001:000b6170       ??_GPrunerCallback@Sq@physx@@UEAAPEAXI@Z 00000001800b7170 f i NpSceneQueries.obj
 0001:000b6170       ??_EPrunerCallback@Sq@physx@@UEAAPEAXI@Z 00000001800b7170 f i NpSceneQueries.obj
 0001:000b61b0       ?growAndPushBack@?$Array@UPxOverlapHit@physx@@VNamedAllocator@shdfnd@2@@shdfnd@physx@@IEAAAEAUPxOverlapHit@3@AEBU43@@Z 00000001800b71b0 f i NpSceneQueries.obj
 0001:000b62e0       ?growAndPushBack@?$Array@UPxRaycastHit@physx@@VNamedAllocator@shdfnd@2@@shdfnd@physx@@IEAAAEAUPxRaycastHit@3@AEBU43@@Z 00000001800b72e0 f i NpSceneQueries.obj
 0001:000b6700       ?growAndPushBack@?$Array@UPxSweepHit@physx@@VNamedAllocator@shdfnd@2@@shdfnd@physx@@IEAAAEAUPxSweepHit@3@AEBU43@@Z 00000001800b7700 f i NpSceneQueries.obj
 0001:000b6b00       ?invoke@?$MultiQueryCallback@UPxOverlapHit@physx@@@@UEAA_NAEAMAEBUPrunerPayload@Sq@physx@@@Z 00000001800b7b00 f i NpSceneQueries.obj
 0001:000b71e0       ?invoke@?$MultiQueryCallback@UPxRaycastHit@physx@@@@UEAA_NAEAMAEBUPrunerPayload@Sq@physx@@@Z 00000001800b81e0 f i NpSceneQueries.obj
 0001:000b7e00       ?invoke@?$MultiQueryCallback@UPxSweepHit@physx@@@@UEAA_NAEAMAEBUPrunerPayload@Sq@physx@@@Z 00000001800b8e00 f i NpSceneQueries.obj
 0001:000b9060       ?processTouches@?$CapturePvdOnReturn@UPxOverlapHit@physx@@@@UEAA_NPEBUPxOverlapHit@physx@@I@Z 00000001800ba060 f i NpSceneQueries.obj
 0001:000b9120       ?processTouches@?$CapturePvdOnReturn@UPxRaycastHit@physx@@@@UEAA_NPEBUPxRaycastHit@physx@@I@Z 00000001800ba120 f i NpSceneQueries.obj
 0001:000b9230       ?processTouches@?$CapturePvdOnReturn@UPxSweepHit@physx@@@@UEAA_NPEBUPxSweepHit@physx@@I@Z 00000001800ba230 f i NpSceneQueries.obj
 0001:000b9340       PxRegisterPhysicsSerializers 00000001800ba340 f   NpSerializerAdapter.obj
 0001:000b99b0       PxUnregisterPhysicsSerializers 00000001800ba9b0 f   NpSerializerAdapter.obj
 0001:000ba0e0       ??1PxProcessPxBaseCallback@physx@@UEAA@XZ 00000001800bb0e0 f i NpSerializerAdapter.obj
 0001:000ba0f0       ??1PxSerializer@physx@@UEAA@XZ 00000001800bb0f0 f i NpSerializerAdapter.obj
 0001:000ba100       ??_E?$PxSerializerDefaultAdapter@VBV4TriangleMesh@Gu@physx@@@physx@@UEAAPEAXI@Z 00000001800bb100 f i NpSerializerAdapter.obj
 0001:000ba100       ??_G?$PxSerializerDefaultAdapter@VBV4TriangleMesh@Gu@physx@@@physx@@UEAAPEAXI@Z 00000001800bb100 f i NpSerializerAdapter.obj
 0001:000ba140       ??_G?$PxSerializerDefaultAdapter@VConvexMesh@Gu@physx@@@physx@@UEAAPEAXI@Z 00000001800bb140 f i NpSerializerAdapter.obj
 0001:000ba140       ??_E?$PxSerializerDefaultAdapter@VConvexMesh@Gu@physx@@@physx@@UEAAPEAXI@Z 00000001800bb140 f i NpSerializerAdapter.obj
 0001:000ba180       ??_G?$PxSerializerDefaultAdapter@VHeightField@Gu@physx@@@physx@@UEAAPEAXI@Z 00000001800bb180 f i NpSerializerAdapter.obj
 0001:000ba180       ??_E?$PxSerializerDefaultAdapter@VHeightField@Gu@physx@@@physx@@UEAAPEAXI@Z 00000001800bb180 f i NpSerializerAdapter.obj
 0001:000ba1c0       ??_G?$PxSerializerDefaultAdapter@VNpAggregate@physx@@@physx@@UEAAPEAXI@Z 00000001800bb1c0 f i NpSerializerAdapter.obj
 0001:000ba1c0       ??_E?$PxSerializerDefaultAdapter@VNpAggregate@physx@@@physx@@UEAAPEAXI@Z 00000001800bb1c0 f i NpSerializerAdapter.obj
 0001:000ba200       ??_G?$PxSerializerDefaultAdapter@VNpArticulation@physx@@@physx@@UEAAPEAXI@Z 00000001800bb200 f i NpSerializerAdapter.obj
 0001:000ba200       ??_E?$PxSerializerDefaultAdapter@VNpArticulation@physx@@@physx@@UEAAPEAXI@Z 00000001800bb200 f i NpSerializerAdapter.obj
 0001:000ba240       ??_E?$PxSerializerDefaultAdapter@VNpArticulationJoint@physx@@@physx@@UEAAPEAXI@Z 00000001800bb240 f i NpSerializerAdapter.obj
 0001:000ba240       ??_G?$PxSerializerDefaultAdapter@VNpArticulationJoint@physx@@@physx@@UEAAPEAXI@Z 00000001800bb240 f i NpSerializerAdapter.obj
 0001:000ba280       ??_E?$PxSerializerDefaultAdapter@VNpArticulationLink@physx@@@physx@@UEAAPEAXI@Z 00000001800bb280 f i NpSerializerAdapter.obj
 0001:000ba280       ??_G?$PxSerializerDefaultAdapter@VNpArticulationLink@physx@@@physx@@UEAAPEAXI@Z 00000001800bb280 f i NpSerializerAdapter.obj
 0001:000ba2c0       ??_E?$PxSerializerDefaultAdapter@VNpCloth@physx@@@physx@@UEAAPEAXI@Z 00000001800bb2c0 f i NpSerializerAdapter.obj
 0001:000ba2c0       ??_G?$PxSerializerDefaultAdapter@VNpCloth@physx@@@physx@@UEAAPEAXI@Z 00000001800bb2c0 f i NpSerializerAdapter.obj
 0001:000ba300       ??_G?$PxSerializerDefaultAdapter@VNpClothFabric@physx@@@physx@@UEAAPEAXI@Z 00000001800bb300 f i NpSerializerAdapter.obj
 0001:000ba300       ??_E?$PxSerializerDefaultAdapter@VNpClothFabric@physx@@@physx@@UEAAPEAXI@Z 00000001800bb300 f i NpSerializerAdapter.obj
 0001:000ba340       ??_E?$PxSerializerDefaultAdapter@VNpConstraint@physx@@@physx@@UEAAPEAXI@Z 00000001800bb340 f i NpSerializerAdapter.obj
 0001:000ba340       ??_G?$PxSerializerDefaultAdapter@VNpConstraint@physx@@@physx@@UEAAPEAXI@Z 00000001800bb340 f i NpSerializerAdapter.obj
 0001:000ba380       ??_G?$PxSerializerDefaultAdapter@VNpMaterial@physx@@@physx@@UEAAPEAXI@Z 00000001800bb380 f i NpSerializerAdapter.obj
 0001:000ba380       ??_E?$PxSerializerDefaultAdapter@VNpMaterial@physx@@@physx@@UEAAPEAXI@Z 00000001800bb380 f i NpSerializerAdapter.obj
 0001:000ba3c0       ??_G?$PxSerializerDefaultAdapter@VNpParticleFluid@physx@@@physx@@UEAAPEAXI@Z 00000001800bb3c0 f i NpSerializerAdapter.obj
 0001:000ba3c0       ??_E?$PxSerializerDefaultAdapter@VNpParticleFluid@physx@@@physx@@UEAAPEAXI@Z 00000001800bb3c0 f i NpSerializerAdapter.obj
 0001:000ba400       ??_E?$PxSerializerDefaultAdapter@VNpParticleSystem@physx@@@physx@@UEAAPEAXI@Z 00000001800bb400 f i NpSerializerAdapter.obj
 0001:000ba400       ??_G?$PxSerializerDefaultAdapter@VNpParticleSystem@physx@@@physx@@UEAAPEAXI@Z 00000001800bb400 f i NpSerializerAdapter.obj
 0001:000ba440       ??_E?$PxSerializerDefaultAdapter@VNpRigidDynamic@physx@@@physx@@UEAAPEAXI@Z 00000001800bb440 f i NpSerializerAdapter.obj
 0001:000ba440       ??_G?$PxSerializerDefaultAdapter@VNpRigidDynamic@physx@@@physx@@UEAAPEAXI@Z 00000001800bb440 f i NpSerializerAdapter.obj
 0001:000ba480       ??_G?$PxSerializerDefaultAdapter@VNpRigidStatic@physx@@@physx@@UEAAPEAXI@Z 00000001800bb480 f i NpSerializerAdapter.obj
 0001:000ba480       ??_E?$PxSerializerDefaultAdapter@VNpRigidStatic@physx@@@physx@@UEAAPEAXI@Z 00000001800bb480 f i NpSerializerAdapter.obj
 0001:000ba4c0       ??_G?$PxSerializerDefaultAdapter@VNpShape@physx@@@physx@@UEAAPEAXI@Z 00000001800bb4c0 f i NpSerializerAdapter.obj
 0001:000ba4c0       ??_E?$PxSerializerDefaultAdapter@VNpShape@physx@@@physx@@UEAAPEAXI@Z 00000001800bb4c0 f i NpSerializerAdapter.obj
 0001:000ba500       ??_E?$PxSerializerDefaultAdapter@VPruningStructure@Sq@physx@@@physx@@UEAAPEAXI@Z 00000001800bb500 f i NpSerializerAdapter.obj
 0001:000ba500       ??_G?$PxSerializerDefaultAdapter@VPruningStructure@Sq@physx@@@physx@@UEAAPEAXI@Z 00000001800bb500 f i NpSerializerAdapter.obj
 0001:000ba540       ??_G?$PxSerializerDefaultAdapter@VRTreeTriangleMesh@Gu@physx@@@physx@@UEAAPEAXI@Z 00000001800bb540 f i NpSerializerAdapter.obj
 0001:000ba540       ??_E?$PxSerializerDefaultAdapter@VRTreeTriangleMesh@Gu@physx@@@physx@@UEAAPEAXI@Z 00000001800bb540 f i NpSerializerAdapter.obj
 0001:000ba580       ??_EPxProcessPxBaseCallback@physx@@UEAAPEAXI@Z 00000001800bb580 f i NpSerializerAdapter.obj
 0001:000ba580       ??_GPxProcessPxBaseCallback@physx@@UEAAPEAXI@Z 00000001800bb580 f i NpSerializerAdapter.obj
 0001:000ba5c0       ??_GPxSerializer@physx@@UEAAPEAXI@Z 00000001800bb5c0 f i NpSerializerAdapter.obj
 0001:000ba5c0       ??_EPxSerializer@physx@@UEAAPEAXI@Z 00000001800bb5c0 f i NpSerializerAdapter.obj
 0001:000ba600       ??_ERequiresCallback@?1??registerReferences@?$PxSerializerDefaultAdapter@VBV4TriangleMesh@Gu@physx@@@physx@@UEBAXAEAVPxBase@3@AEAVPxSerializationContext@3@@Z@UEAAPEAXI@Z 00000001800bb600 f i NpSerializerAdapter.obj
 0001:000ba600       ??_GRequiresCallback@?1??registerReferences@?$PxSerializerDefaultAdapter@VBV4TriangleMesh@Gu@physx@@@physx@@UEBAXAEAVPxBase@3@AEAVPxSerializationContext@3@@Z@UEAAPEAXI@Z 00000001800bb600 f i NpSerializerAdapter.obj
 0001:000ba640       ??_ERequiresCallback@?1??registerReferences@?$PxSerializerDefaultAdapter@VConvexMesh@Gu@physx@@@physx@@UEBAXAEAVPxBase@3@AEAVPxSerializationContext@3@@Z@UEAAPEAXI@Z 00000001800bb640 f i NpSerializerAdapter.obj
 0001:000ba640       ??_GRequiresCallback@?1??registerReferences@?$PxSerializerDefaultAdapter@VConvexMesh@Gu@physx@@@physx@@UEBAXAEAVPxBase@3@AEAVPxSerializationContext@3@@Z@UEAAPEAXI@Z 00000001800bb640 f i NpSerializerAdapter.obj
 0001:000ba680       ??_ERequiresCallback@?1??registerReferences@?$PxSerializerDefaultAdapter@VHeightField@Gu@physx@@@physx@@UEBAXAEAVPxBase@3@AEAVPxSerializationContext@3@@Z@UEAAPEAXI@Z 00000001800bb680 f i NpSerializerAdapter.obj
 0001:000ba680       ??_GRequiresCallback@?1??registerReferences@?$PxSerializerDefaultAdapter@VHeightField@Gu@physx@@@physx@@UEBAXAEAVPxBase@3@AEAVPxSerializationContext@3@@Z@UEAAPEAXI@Z 00000001800bb680 f i NpSerializerAdapter.obj
 0001:000ba6c0       ??_GRequiresCallback@?1??registerReferences@?$PxSerializerDefaultAdapter@VNpAggregate@physx@@@physx@@UEBAXAEAVPxBase@3@AEAVPxSerializationContext@3@@Z@UEAAPEAXI@Z 00000001800bb6c0 f i NpSerializerAdapter.obj
 0001:000ba6c0       ??_ERequiresCallback@?1??registerReferences@?$PxSerializerDefaultAdapter@VNpAggregate@physx@@@physx@@UEBAXAEAVPxBase@3@AEAVPxSerializationContext@3@@Z@UEAAPEAXI@Z 00000001800bb6c0 f i NpSerializerAdapter.obj
 0001:000ba700       ??_ERequiresCallback@?1??registerReferences@?$PxSerializerDefaultAdapter@VNpArticulation@physx@@@physx@@UEBAXAEAVPxBase@3@AEAVPxSerializationContext@3@@Z@UEAAPEAXI@Z 00000001800bb700 f i NpSerializerAdapter.obj
 0001:000ba700       ??_GRequiresCallback@?1??registerReferences@?$PxSerializerDefaultAdapter@VNpArticulation@physx@@@physx@@UEBAXAEAVPxBase@3@AEAVPxSerializationContext@3@@Z@UEAAPEAXI@Z 00000001800bb700 f i NpSerializerAdapter.obj
 0001:000ba740       ??_ERequiresCallback@?1??registerReferences@?$PxSerializerDefaultAdapter@VNpArticulationJoint@physx@@@physx@@UEBAXAEAVPxBase@3@AEAVPxSerializationContext@3@@Z@UEAAPEAXI@Z 00000001800bb740 f i NpSerializerAdapter.obj
 0001:000ba740       ??_GRequiresCallback@?1??registerReferences@?$PxSerializerDefaultAdapter@VNpArticulationJoint@physx@@@physx@@UEBAXAEAVPxBase@3@AEAVPxSerializationContext@3@@Z@UEAAPEAXI@Z 00000001800bb740 f i NpSerializerAdapter.obj
 0001:000ba780       ??_GRequiresCallback@?1??registerReferences@?$PxSerializerDefaultAdapter@VNpArticulationLink@physx@@@physx@@UEBAXAEAVPxBase@3@AEAVPxSerializationContext@3@@Z@UEAAPEAXI@Z 00000001800bb780 f i NpSerializerAdapter.obj
 0001:000ba780       ??_ERequiresCallback@?1??registerReferences@?$PxSerializerDefaultAdapter@VNpArticulationLink@physx@@@physx@@UEBAXAEAVPxBase@3@AEAVPxSerializationContext@3@@Z@UEAAPEAXI@Z 00000001800bb780 f i NpSerializerAdapter.obj
 0001:000ba7c0       ??_ERequiresCallback@?1??registerReferences@?$PxSerializerDefaultAdapter@VNpCloth@physx@@@physx@@UEBAXAEAVPxBase@3@AEAVPxSerializationContext@3@@Z@UEAAPEAXI@Z 00000001800bb7c0 f i NpSerializerAdapter.obj
 0001:000ba7c0       ??_GRequiresCallback@?1??registerReferences@?$PxSerializerDefaultAdapter@VNpCloth@physx@@@physx@@UEBAXAEAVPxBase@3@AEAVPxSerializationContext@3@@Z@UEAAPEAXI@Z 00000001800bb7c0 f i NpSerializerAdapter.obj
 0001:000ba800       ??_GRequiresCallback@?1??registerReferences@?$PxSerializerDefaultAdapter@VNpClothFabric@physx@@@physx@@UEBAXAEAVPxBase@3@AEAVPxSerializationContext@3@@Z@UEAAPEAXI@Z 00000001800bb800 f i NpSerializerAdapter.obj
 0001:000ba800       ??_ERequiresCallback@?1??registerReferences@?$PxSerializerDefaultAdapter@VNpClothFabric@physx@@@physx@@UEBAXAEAVPxBase@3@AEAVPxSerializationContext@3@@Z@UEAAPEAXI@Z 00000001800bb800 f i NpSerializerAdapter.obj
 0001:000ba840       ??_GRequiresCallback@?1??registerReferences@?$PxSerializerDefaultAdapter@VNpConstraint@physx@@@physx@@UEBAXAEAVPxBase@3@AEAVPxSerializationContext@3@@Z@UEAAPEAXI@Z 00000001800bb840 f i NpSerializerAdapter.obj
 0001:000ba840       ??_ERequiresCallback@?1??registerReferences@?$PxSerializerDefaultAdapter@VNpConstraint@physx@@@physx@@UEBAXAEAVPxBase@3@AEAVPxSerializationContext@3@@Z@UEAAPEAXI@Z 00000001800bb840 f i NpSerializerAdapter.obj
 0001:000ba880       ??_ERequiresCallback@?1??registerReferences@?$PxSerializerDefaultAdapter@VNpMaterial@physx@@@physx@@UEBAXAEAVPxBase@3@AEAVPxSerializationContext@3@@Z@UEAAPEAXI@Z 00000001800bb880 f i NpSerializerAdapter.obj
 0001:000ba880       ??_GRequiresCallback@?1??registerReferences@?$PxSerializerDefaultAdapter@VNpMaterial@physx@@@physx@@UEBAXAEAVPxBase@3@AEAVPxSerializationContext@3@@Z@UEAAPEAXI@Z 00000001800bb880 f i NpSerializerAdapter.obj
 0001:000ba8c0       ??_GRequiresCallback@?1??registerReferences@?$PxSerializerDefaultAdapter@VNpParticleFluid@physx@@@physx@@UEBAXAEAVPxBase@3@AEAVPxSerializationContext@3@@Z@UEAAPEAXI@Z 00000001800bb8c0 f i NpSerializerAdapter.obj
 0001:000ba8c0       ??_ERequiresCallback@?1??registerReferences@?$PxSerializerDefaultAdapter@VNpParticleFluid@physx@@@physx@@UEBAXAEAVPxBase@3@AEAVPxSerializationContext@3@@Z@UEAAPEAXI@Z 00000001800bb8c0 f i NpSerializerAdapter.obj
 0001:000ba900       ??_ERequiresCallback@?1??registerReferences@?$PxSerializerDefaultAdapter@VNpParticleSystem@physx@@@physx@@UEBAXAEAVPxBase@3@AEAVPxSerializationContext@3@@Z@UEAAPEAXI@Z 00000001800bb900 f i NpSerializerAdapter.obj
 0001:000ba900       ??_GRequiresCallback@?1??registerReferences@?$PxSerializerDefaultAdapter@VNpParticleSystem@physx@@@physx@@UEBAXAEAVPxBase@3@AEAVPxSerializationContext@3@@Z@UEAAPEAXI@Z 00000001800bb900 f i NpSerializerAdapter.obj
 0001:000ba940       ??_ERequiresCallback@?1??registerReferences@?$PxSerializerDefaultAdapter@VNpRigidDynamic@physx@@@physx@@UEBAXAEAVPxBase@3@AEAVPxSerializationContext@3@@Z@UEAAPEAXI@Z 00000001800bb940 f i NpSerializerAdapter.obj
 0001:000ba940       ??_GRequiresCallback@?1??registerReferences@?$PxSerializerDefaultAdapter@VNpRigidDynamic@physx@@@physx@@UEBAXAEAVPxBase@3@AEAVPxSerializationContext@3@@Z@UEAAPEAXI@Z 00000001800bb940 f i NpSerializerAdapter.obj
 0001:000ba980       ??_ERequiresCallback@?1??registerReferences@?$PxSerializerDefaultAdapter@VNpRigidStatic@physx@@@physx@@UEBAXAEAVPxBase@3@AEAVPxSerializationContext@3@@Z@UEAAPEAXI@Z 00000001800bb980 f i NpSerializerAdapter.obj
 0001:000ba980       ??_GRequiresCallback@?1??registerReferences@?$PxSerializerDefaultAdapter@VNpRigidStatic@physx@@@physx@@UEBAXAEAVPxBase@3@AEAVPxSerializationContext@3@@Z@UEAAPEAXI@Z 00000001800bb980 f i NpSerializerAdapter.obj
 0001:000ba9c0       ??_GRequiresCallback@?1??registerReferences@?$PxSerializerDefaultAdapter@VNpShape@physx@@@physx@@UEBAXAEAVPxBase@3@AEAVPxSerializationContext@3@@Z@UEAAPEAXI@Z 00000001800bb9c0 f i NpSerializerAdapter.obj
 0001:000ba9c0       ??_ERequiresCallback@?1??registerReferences@?$PxSerializerDefaultAdapter@VNpShape@physx@@@physx@@UEBAXAEAVPxBase@3@AEAVPxSerializationContext@3@@Z@UEAAPEAXI@Z 00000001800bb9c0 f i NpSerializerAdapter.obj
 0001:000baa00       ??_ERequiresCallback@?1??registerReferences@?$PxSerializerDefaultAdapter@VPruningStructure@Sq@physx@@@physx@@UEBAXAEAVPxBase@3@AEAVPxSerializationContext@3@@Z@UEAAPEAXI@Z 00000001800bba00 f i NpSerializerAdapter.obj
 0001:000baa00       ??_GRequiresCallback@?1??registerReferences@?$PxSerializerDefaultAdapter@VPruningStructure@Sq@physx@@@physx@@UEBAXAEAVPxBase@3@AEAVPxSerializationContext@3@@Z@UEAAPEAXI@Z 00000001800bba00 f i NpSerializerAdapter.obj
 0001:000baa40       ??_GRequiresCallback@?1??registerReferences@?$PxSerializerDefaultAdapter@VRTreeTriangleMesh@Gu@physx@@@physx@@UEBAXAEAVPxBase@3@AEAVPxSerializationContext@3@@Z@UEAAPEAXI@Z 00000001800bba40 f i NpSerializerAdapter.obj
 0001:000baa40       ??_ERequiresCallback@?1??registerReferences@?$PxSerializerDefaultAdapter@VRTreeTriangleMesh@Gu@physx@@@physx@@UEBAXAEAVPxBase@3@AEAVPxSerializationContext@3@@Z@UEAAPEAXI@Z 00000001800bba40 f i NpSerializerAdapter.obj
 0001:000baa80       ?createObject@?$PxSerializerDefaultAdapter@VBV4TriangleMesh@Gu@physx@@@physx@@UEBAPEAVPxBase@2@AEAPEAEAEAVPxDeserializationContext@2@@Z 00000001800bba80 f i NpSerializerAdapter.obj
 0001:000baa90       ?createObject@?$PxSerializerDefaultAdapter@VConvexMesh@Gu@physx@@@physx@@UEBAPEAVPxBase@2@AEAPEAEAEAVPxDeserializationContext@2@@Z 00000001800bba90 f i NpSerializerAdapter.obj
 0001:000baaa0       ?createObject@?$PxSerializerDefaultAdapter@VHeightField@Gu@physx@@@physx@@UEBAPEAVPxBase@2@AEAPEAEAEAVPxDeserializationContext@2@@Z 00000001800bbaa0 f i NpSerializerAdapter.obj
 0001:000baab0       ?createObject@?$PxSerializerDefaultAdapter@VNpAggregate@physx@@@physx@@UEBAPEAVPxBase@2@AEAPEAEAEAVPxDeserializationContext@2@@Z 00000001800bbab0 f i NpSerializerAdapter.obj
 0001:000baac0       ?createObject@?$PxSerializerDefaultAdapter@VNpArticulation@physx@@@physx@@UEBAPEAVPxBase@2@AEAPEAEAEAVPxDeserializationContext@2@@Z 00000001800bbac0 f i NpSerializerAdapter.obj
 0001:000baad0       ?createObject@?$PxSerializerDefaultAdapter@VNpArticulationJoint@physx@@@physx@@UEBAPEAVPxBase@2@AEAPEAEAEAVPxDeserializationContext@2@@Z 00000001800bbad0 f i NpSerializerAdapter.obj
 0001:000baae0       ?createObject@?$PxSerializerDefaultAdapter@VNpArticulationLink@physx@@@physx@@UEBAPEAVPxBase@2@AEAPEAEAEAVPxDeserializationContext@2@@Z 00000001800bbae0 f i NpSerializerAdapter.obj
 0001:000baaf0       ?createObject@?$PxSerializerDefaultAdapter@VNpCloth@physx@@@physx@@UEBAPEAVPxBase@2@AEAPEAEAEAVPxDeserializationContext@2@@Z 00000001800bbaf0 f i NpSerializerAdapter.obj
 0001:000bab00       ?createObject@?$PxSerializerDefaultAdapter@VNpClothFabric@physx@@@physx@@UEBAPEAVPxBase@2@AEAPEAEAEAVPxDeserializationContext@2@@Z 00000001800bbb00 f i NpSerializerAdapter.obj
 0001:000bab10       ?createObject@?$PxSerializerDefaultAdapter@VNpConstraint@physx@@@physx@@UEBAPEAVPxBase@2@AEAPEAEAEAVPxDeserializationContext@2@@Z 00000001800bbb10 f i NpSerializerAdapter.obj
 0001:000bab20       ?createObject@?$PxSerializerDefaultAdapter@VNpMaterial@physx@@@physx@@UEBAPEAVPxBase@2@AEAPEAEAEAVPxDeserializationContext@2@@Z 00000001800bbb20 f i NpSerializerAdapter.obj
 0001:000bab30       ?createObject@?$PxSerializerDefaultAdapter@VNpParticleFluid@physx@@@physx@@UEBAPEAVPxBase@2@AEAPEAEAEAVPxDeserializationContext@2@@Z 00000001800bbb30 f i NpSerializerAdapter.obj
 0001:000bab40       ?createObject@?$PxSerializerDefaultAdapter@VNpParticleSystem@physx@@@physx@@UEBAPEAVPxBase@2@AEAPEAEAEAVPxDeserializationContext@2@@Z 00000001800bbb40 f i NpSerializerAdapter.obj
 0001:000bab50       ?createObject@?$PxSerializerDefaultAdapter@VNpRigidDynamic@physx@@@physx@@UEBAPEAVPxBase@2@AEAPEAEAEAVPxDeserializationContext@2@@Z 00000001800bbb50 f i NpSerializerAdapter.obj
 0001:000bab60       ?createObject@?$PxSerializerDefaultAdapter@VNpRigidStatic@physx@@@physx@@UEBAPEAVPxBase@2@AEAPEAEAEAVPxDeserializationContext@2@@Z 00000001800bbb60 f i NpSerializerAdapter.obj
 0001:000bab70       ?createObject@?$PxSerializerDefaultAdapter@VNpShape@physx@@@physx@@UEBAPEAVPxBase@2@AEAPEAEAEAVPxDeserializationContext@2@@Z 00000001800bbb70 f i NpSerializerAdapter.obj
 0001:000bab80       ?createObject@?$PxSerializerDefaultAdapter@VPruningStructure@Sq@physx@@@physx@@UEBAPEAVPxBase@2@AEAPEAEAEAVPxDeserializationContext@2@@Z 00000001800bbb80 f i NpSerializerAdapter.obj
 0001:000bab90       ?createObject@?$PxSerializerDefaultAdapter@VRTreeTriangleMesh@Gu@physx@@@physx@@UEBAPEAVPxBase@2@AEAPEAEAEAVPxDeserializationContext@2@@Z 00000001800bbb90 f i NpSerializerAdapter.obj
 0001:000baba0       ?exportData@?$PxSerializerDefaultAdapter@VBV4TriangleMesh@Gu@physx@@@physx@@UEBAXAEAVPxBase@2@AEAVPxSerializationContext@2@@Z 00000001800bbba0 f i NpSerializerAdapter.obj
 0001:000babc0       ?exportData@?$PxSerializerDefaultAdapter@VConvexMesh@Gu@physx@@@physx@@UEBAXAEAVPxBase@2@AEAVPxSerializationContext@2@@Z 00000001800bbbc0 f i NpSerializerAdapter.obj
 0001:000babe0       ?exportData@?$PxSerializerDefaultAdapter@VHeightField@Gu@physx@@@physx@@UEBAXAEAVPxBase@2@AEAVPxSerializationContext@2@@Z 00000001800bbbe0 f i NpSerializerAdapter.obj
 0001:000bac00       ?exportData@?$PxSerializerDefaultAdapter@VNpAggregate@physx@@@physx@@UEBAXAEAVPxBase@2@AEAVPxSerializationContext@2@@Z 00000001800bbc00 f i NpSerializerAdapter.obj
 0001:000bac20       ?exportData@?$PxSerializerDefaultAdapter@VNpArticulation@physx@@@physx@@UEBAXAEAVPxBase@2@AEAVPxSerializationContext@2@@Z 00000001800bbc20 f i NpSerializerAdapter.obj
 0001:000bac40       ?exportData@?$PxSerializerDefaultAdapter@VNpArticulationJoint@physx@@@physx@@UEBAXAEAVPxBase@2@AEAVPxSerializationContext@2@@Z 00000001800bbc40 f i NpSerializerAdapter.obj
 0001:000bac60       ?exportData@?$PxSerializerDefaultAdapter@VNpArticulationLink@physx@@@physx@@UEBAXAEAVPxBase@2@AEAVPxSerializationContext@2@@Z 00000001800bbc60 f i NpSerializerAdapter.obj
 0001:000bac80       ?exportData@?$PxSerializerDefaultAdapter@VNpCloth@physx@@@physx@@UEBAXAEAVPxBase@2@AEAVPxSerializationContext@2@@Z 00000001800bbc80 f i NpSerializerAdapter.obj
 0001:000baca0       ?exportData@?$PxSerializerDefaultAdapter@VNpClothFabric@physx@@@physx@@UEBAXAEAVPxBase@2@AEAVPxSerializationContext@2@@Z 00000001800bbca0 f i NpSerializerAdapter.obj
 0001:000bacc0       ?exportData@?$PxSerializerDefaultAdapter@VNpConstraint@physx@@@physx@@UEBAXAEAVPxBase@2@AEAVPxSerializationContext@2@@Z 00000001800bbcc0 f i NpSerializerAdapter.obj
 0001:000bace0       ?exportData@?$PxSerializerDefaultAdapter@VNpMaterial@physx@@@physx@@UEBAXAEAVPxBase@2@AEAVPxSerializationContext@2@@Z 00000001800bbce0 f i NpSerializerAdapter.obj
 0001:000bad00       ?exportData@?$PxSerializerDefaultAdapter@VNpParticleFluid@physx@@@physx@@UEBAXAEAVPxBase@2@AEAVPxSerializationContext@2@@Z 00000001800bbd00 f i NpSerializerAdapter.obj
 0001:000bad20       ?exportData@?$PxSerializerDefaultAdapter@VNpParticleSystem@physx@@@physx@@UEBAXAEAVPxBase@2@AEAVPxSerializationContext@2@@Z 00000001800bbd20 f i NpSerializerAdapter.obj
 0001:000bad40       ?exportData@?$PxSerializerDefaultAdapter@VNpRigidDynamic@physx@@@physx@@UEBAXAEAVPxBase@2@AEAVPxSerializationContext@2@@Z 00000001800bbd40 f i NpSerializerAdapter.obj
 0001:000bae00       ?exportData@?$PxSerializerDefaultAdapter@VNpRigidStatic@physx@@@physx@@UEBAXAEAVPxBase@2@AEAVPxSerializationContext@2@@Z 00000001800bbe00 f i NpSerializerAdapter.obj
 0001:000bae20       ?exportData@?$PxSerializerDefaultAdapter@VNpShape@physx@@@physx@@UEBAXAEAVPxBase@2@AEAVPxSerializationContext@2@@Z 00000001800bbe20 f i NpSerializerAdapter.obj
 0001:000bae40       ?exportData@?$PxSerializerDefaultAdapter@VPruningStructure@Sq@physx@@@physx@@UEBAXAEAVPxBase@2@AEAVPxSerializationContext@2@@Z 00000001800bbe40 f i NpSerializerAdapter.obj
 0001:000bae60       ?exportData@?$PxSerializerDefaultAdapter@VRTreeTriangleMesh@Gu@physx@@@physx@@UEBAXAEAVPxBase@2@AEAVPxSerializationContext@2@@Z 00000001800bbe60 f i NpSerializerAdapter.obj
 0001:000bae80       ?exportExtraData@?$PxSerializerDefaultAdapter@VBV4TriangleMesh@Gu@physx@@@physx@@UEBAXAEAVPxBase@2@AEAVPxSerializationContext@2@@Z 00000001800bbe80 f i NpSerializerAdapter.obj
 0001:000baea0       ?exportExtraData@?$PxSerializerDefaultAdapter@VConvexMesh@Gu@physx@@@physx@@UEBAXAEAVPxBase@2@AEAVPxSerializationContext@2@@Z 00000001800bbea0 f i NpSerializerAdapter.obj
 0001:000baeb0       ?exportExtraData@?$PxSerializerDefaultAdapter@VHeightField@Gu@physx@@@physx@@UEBAXAEAVPxBase@2@AEAVPxSerializationContext@2@@Z 00000001800bbeb0 f i NpSerializerAdapter.obj
 0001:000baed0       ?exportExtraData@?$PxSerializerDefaultAdapter@VNpAggregate@physx@@@physx@@UEBAXAEAVPxBase@2@AEAVPxSerializationContext@2@@Z 00000001800bbed0 f i NpSerializerAdapter.obj
 0001:000baee0       ?exportExtraData@?$PxSerializerDefaultAdapter@VNpArticulation@physx@@@physx@@UEBAXAEAVPxBase@2@AEAVPxSerializationContext@2@@Z 00000001800bbee0 f i NpSerializerAdapter.obj
 0001:000baf00       ?exportExtraData@?$PxSerializerDefaultAdapter@VNpArticulationJoint@physx@@@physx@@UEBAXAEAVPxBase@2@AEAVPxSerializationContext@2@@Z 00000001800bbf00 f i NpSerializerAdapter.obj
 0001:000baf10       ?exportExtraData@?$PxSerializerDefaultAdapter@VNpArticulationLink@physx@@@physx@@UEBAXAEAVPxBase@2@AEAVPxSerializationContext@2@@Z 00000001800bbf10 f i NpSerializerAdapter.obj
 0001:000baf30       ?exportExtraData@?$PxSerializerDefaultAdapter@VNpCloth@physx@@@physx@@UEBAXAEAVPxBase@2@AEAVPxSerializationContext@2@@Z 00000001800bbf30 f i NpSerializerAdapter.obj
 0001:000baf50       ?exportExtraData@?$PxSerializerDefaultAdapter@VNpClothFabric@physx@@@physx@@UEBAXAEAVPxBase@2@AEAVPxSerializationContext@2@@Z 00000001800bbf50 f i NpSerializerAdapter.obj
 0001:000baf70       ?exportExtraData@?$PxSerializerDefaultAdapter@VNpConstraint@physx@@@physx@@UEBAXAEAVPxBase@2@AEAVPxSerializationContext@2@@Z 00000001800bbf70 f i NpSerializerAdapter.obj
 0001:000baf80       ?exportExtraData@?$PxSerializerDefaultAdapter@VNpMaterial@physx@@@physx@@UEBAXAEAVPxBase@2@AEAVPxSerializationContext@2@@Z 00000001800bbf80 f i NpSerializerAdapter.obj
 0001:000baf90       ?exportExtraData@?$PxSerializerDefaultAdapter@VNpParticleFluid@physx@@@physx@@UEBAXAEAVPxBase@2@AEAVPxSerializationContext@2@@Z 00000001800bbf90 f i NpSerializerAdapter.obj
 0001:000bafb0       ?exportExtraData@?$PxSerializerDefaultAdapter@VNpParticleSystem@physx@@@physx@@UEBAXAEAVPxBase@2@AEAVPxSerializationContext@2@@Z 00000001800bbfb0 f i NpSerializerAdapter.obj
 0001:000bafd0       ?exportExtraData@?$PxSerializerDefaultAdapter@VNpRigidDynamic@physx@@@physx@@UEBAXAEAVPxBase@2@AEAVPxSerializationContext@2@@Z 00000001800bbfd0 f i NpSerializerAdapter.obj
 0001:000baff0       ?exportExtraData@?$PxSerializerDefaultAdapter@VNpRigidStatic@physx@@@physx@@UEBAXAEAVPxBase@2@AEAVPxSerializationContext@2@@Z 00000001800bbff0 f i NpSerializerAdapter.obj
 0001:000bb010       ?exportExtraData@?$PxSerializerDefaultAdapter@VNpShape@physx@@@physx@@UEBAXAEAVPxBase@2@AEAVPxSerializationContext@2@@Z 00000001800bc010 f i NpSerializerAdapter.obj
 0001:000bb030       ?exportExtraData@?$PxSerializerDefaultAdapter@VPruningStructure@Sq@physx@@@physx@@UEBAXAEAVPxBase@2@AEAVPxSerializationContext@2@@Z 00000001800bc030 f i NpSerializerAdapter.obj
 0001:000bb040       ?exportExtraData@?$PxSerializerDefaultAdapter@VRTreeTriangleMesh@Gu@physx@@@physx@@UEBAXAEAVPxBase@2@AEAVPxSerializationContext@2@@Z 00000001800bc040 f i NpSerializerAdapter.obj
 0001:000bb060       ?getClassSize@?$PxSerializerDefaultAdapter@VBV4TriangleMesh@Gu@physx@@@physx@@UEBA_KXZ 00000001800bc060 f i NpSerializerAdapter.obj
 0001:000bb070       ?getClassSize@?$PxSerializerDefaultAdapter@VConvexMesh@Gu@physx@@@physx@@UEBA_KXZ 00000001800bc070 f i NpSerializerAdapter.obj
 0001:000bb080       ?getClassSize@?$PxSerializerDefaultAdapter@VHeightField@Gu@physx@@@physx@@UEBA_KXZ 00000001800bc080 f i NpSerializerAdapter.obj
 0001:000bb090       ?getClassSize@?$PxSerializerDefaultAdapter@VNpAggregate@physx@@@physx@@UEBA_KXZ 00000001800bc090 f i NpSerializerAdapter.obj
 0001:000bb0a0       ?getClassSize@?$PxSerializerDefaultAdapter@VNpArticulation@physx@@@physx@@UEBA_KXZ 00000001800bc0a0 f i NpSerializerAdapter.obj
 0001:000bb0b0       ?getClassSize@?$PxSerializerDefaultAdapter@VNpArticulationJoint@physx@@@physx@@UEBA_KXZ 00000001800bc0b0 f i NpSerializerAdapter.obj
 0001:000bb0c0       ?getClassSize@?$PxSerializerDefaultAdapter@VNpArticulationLink@physx@@@physx@@UEBA_KXZ 00000001800bc0c0 f i NpSerializerAdapter.obj
 0001:000bb0d0       ?getClassSize@?$PxSerializerDefaultAdapter@VNpCloth@physx@@@physx@@UEBA_KXZ 00000001800bc0d0 f i NpSerializerAdapter.obj
 0001:000bb0e0       ?getClassSize@?$PxSerializerDefaultAdapter@VNpClothFabric@physx@@@physx@@UEBA_KXZ 00000001800bc0e0 f i NpSerializerAdapter.obj
 0001:000bb0f0       ?getClassSize@?$PxSerializerDefaultAdapter@VNpConstraint@physx@@@physx@@UEBA_KXZ 00000001800bc0f0 f i NpSerializerAdapter.obj
 0001:000bb100       ?getClassSize@?$PxSerializerDefaultAdapter@VNpMaterial@physx@@@physx@@UEBA_KXZ 00000001800bc100 f i NpSerializerAdapter.obj
 0001:000bb110       ?getClassSize@?$PxSerializerDefaultAdapter@VNpParticleFluid@physx@@@physx@@UEBA_KXZ 00000001800bc110 f i NpSerializerAdapter.obj
 0001:000bb120       ?getClassSize@?$PxSerializerDefaultAdapter@VNpParticleSystem@physx@@@physx@@UEBA_KXZ 00000001800bc120 f i NpSerializerAdapter.obj
 0001:000bb130       ?getClassSize@?$PxSerializerDefaultAdapter@VNpRigidDynamic@physx@@@physx@@UEBA_KXZ 00000001800bc130 f i NpSerializerAdapter.obj
 0001:000bb140       ?getClassSize@?$PxSerializerDefaultAdapter@VNpRigidStatic@physx@@@physx@@UEBA_KXZ 00000001800bc140 f i NpSerializerAdapter.obj
 0001:000bb150       ?getClassSize@?$PxSerializerDefaultAdapter@VNpShape@physx@@@physx@@UEBA_KXZ 00000001800bc150 f i NpSerializerAdapter.obj
 0001:000bb160       ?getClassSize@?$PxSerializerDefaultAdapter@VPruningStructure@Sq@physx@@@physx@@UEBA_KXZ 00000001800bc160 f i NpSerializerAdapter.obj
 0001:000bb170       ?getClassSize@?$PxSerializerDefaultAdapter@VRTreeTriangleMesh@Gu@physx@@@physx@@UEBA_KXZ 00000001800bc170 f i NpSerializerAdapter.obj
 0001:000bb180       ?getConcreteTypeName@?$PxSerializerDefaultAdapter@VBV4TriangleMesh@Gu@physx@@@physx@@UEBAPEBDXZ 00000001800bc180 f i NpSerializerAdapter.obj
 0001:000bb190       ?getConcreteTypeName@?$PxSerializerDefaultAdapter@VConvexMesh@Gu@physx@@@physx@@UEBAPEBDXZ 00000001800bc190 f i NpSerializerAdapter.obj
 0001:000bb1a0       ?getConcreteTypeName@?$PxSerializerDefaultAdapter@VHeightField@Gu@physx@@@physx@@UEBAPEBDXZ 00000001800bc1a0 f i NpSerializerAdapter.obj
 0001:000bb1b0       ?getConcreteTypeName@?$PxSerializerDefaultAdapter@VNpAggregate@physx@@@physx@@UEBAPEBDXZ 00000001800bc1b0 f i NpSerializerAdapter.obj
 0001:000bb1c0       ?getConcreteTypeName@?$PxSerializerDefaultAdapter@VNpArticulation@physx@@@physx@@UEBAPEBDXZ 00000001800bc1c0 f i NpSerializerAdapter.obj
 0001:000bb1d0       ?getConcreteTypeName@?$PxSerializerDefaultAdapter@VNpArticulationJoint@physx@@@physx@@UEBAPEBDXZ 00000001800bc1d0 f i NpSerializerAdapter.obj
 0001:000bb1e0       ?getConcreteTypeName@?$PxSerializerDefaultAdapter@VNpArticulationLink@physx@@@physx@@UEBAPEBDXZ 00000001800bc1e0 f i NpSerializerAdapter.obj
 0001:000bb1f0       ?getConcreteTypeName@?$PxSerializerDefaultAdapter@VNpCloth@physx@@@physx@@UEBAPEBDXZ 00000001800bc1f0 f i NpSerializerAdapter.obj
 0001:000bb200       ?getConcreteTypeName@?$PxSerializerDefaultAdapter@VNpClothFabric@physx@@@physx@@UEBAPEBDXZ 00000001800bc200 f i NpSerializerAdapter.obj
 0001:000bb210       ?getConcreteTypeName@?$PxSerializerDefaultAdapter@VNpConstraint@physx@@@physx@@UEBAPEBDXZ 00000001800bc210 f i NpSerializerAdapter.obj
 0001:000bb220       ?getConcreteTypeName@?$PxSerializerDefaultAdapter@VNpMaterial@physx@@@physx@@UEBAPEBDXZ 00000001800bc220 f i NpSerializerAdapter.obj
 0001:000bb230       ?getConcreteTypeName@?$PxSerializerDefaultAdapter@VNpParticleFluid@physx@@@physx@@UEBAPEBDXZ 00000001800bc230 f i NpSerializerAdapter.obj
 0001:000bb240       ?getConcreteTypeName@?$PxSerializerDefaultAdapter@VNpParticleSystem@physx@@@physx@@UEBAPEBDXZ 00000001800bc240 f i NpSerializerAdapter.obj
 0001:000bb250       ?getConcreteTypeName@?$PxSerializerDefaultAdapter@VNpRigidDynamic@physx@@@physx@@UEBAPEBDXZ 00000001800bc250 f i NpSerializerAdapter.obj
 0001:000bb260       ?getConcreteTypeName@?$PxSerializerDefaultAdapter@VNpRigidStatic@physx@@@physx@@UEBAPEBDXZ 00000001800bc260 f i NpSerializerAdapter.obj
 0001:000bb270       ?getConcreteTypeName@?$PxSerializerDefaultAdapter@VNpShape@physx@@@physx@@UEBAPEBDXZ 00000001800bc270 f i NpSerializerAdapter.obj
 0001:000bb280       ?getConcreteTypeName@?$PxSerializerDefaultAdapter@VPruningStructure@Sq@physx@@@physx@@UEBAPEBDXZ 00000001800bc280 f i NpSerializerAdapter.obj
 0001:000bb290       ?getConcreteTypeName@?$PxSerializerDefaultAdapter@VRTreeTriangleMesh@Gu@physx@@@physx@@UEBAPEBDXZ 00000001800bc290 f i NpSerializerAdapter.obj
 0001:000bb2a0       ?isSubordinate@?$PxSerializerDefaultAdapter@VBV4TriangleMesh@Gu@physx@@@physx@@UEBA_NXZ 00000001800bc2a0 f i NpSerializerAdapter.obj
 0001:000bb2b0       ?isSubordinate@?$PxSerializerDefaultAdapter@VConvexMesh@Gu@physx@@@physx@@UEBA_NXZ 00000001800bc2b0 f i NpSerializerAdapter.obj
 0001:000bb2c0       ?isSubordinate@?$PxSerializerDefaultAdapter@VHeightField@Gu@physx@@@physx@@UEBA_NXZ 00000001800bc2c0 f i NpSerializerAdapter.obj
 0001:000bb2d0       ?isSubordinate@?$PxSerializerDefaultAdapter@VNpAggregate@physx@@@physx@@UEBA_NXZ 00000001800bc2d0 f i NpSerializerAdapter.obj
 0001:000bb2e0       ?isSubordinate@?$PxSerializerDefaultAdapter@VNpArticulation@physx@@@physx@@UEBA_NXZ 00000001800bc2e0 f i NpSerializerAdapter.obj
 0001:000bb2f0       ?isSubordinate@?$PxSerializerDefaultAdapter@VNpArticulationJoint@physx@@@physx@@UEBA_NXZ 00000001800bc2f0 f i NpSerializerAdapter.obj
 0001:000bb300       ?isSubordinate@?$PxSerializerDefaultAdapter@VNpArticulationLink@physx@@@physx@@UEBA_NXZ 00000001800bc300 f i NpSerializerAdapter.obj
 0001:000bb310       ?isSubordinate@?$PxSerializerDefaultAdapter@VNpCloth@physx@@@physx@@UEBA_NXZ 00000001800bc310 f i NpSerializerAdapter.obj
 0001:000bb320       ?isSubordinate@?$PxSerializerDefaultAdapter@VNpClothFabric@physx@@@physx@@UEBA_NXZ 00000001800bc320 f i NpSerializerAdapter.obj
 0001:000bb330       ?isSubordinate@?$PxSerializerDefaultAdapter@VNpConstraint@physx@@@physx@@UEBA_NXZ 00000001800bc330 f i NpSerializerAdapter.obj
 0001:000bb340       ?isSubordinate@?$PxSerializerDefaultAdapter@VNpMaterial@physx@@@physx@@UEBA_NXZ 00000001800bc340 f i NpSerializerAdapter.obj
 0001:000bb350       ?isSubordinate@?$PxSerializerDefaultAdapter@VNpParticleFluid@physx@@@physx@@UEBA_NXZ 00000001800bc350 f i NpSerializerAdapter.obj
 0001:000bb360       ?isSubordinate@?$PxSerializerDefaultAdapter@VNpParticleSystem@physx@@@physx@@UEBA_NXZ 00000001800bc360 f i NpSerializerAdapter.obj
 0001:000bb370       ?isSubordinate@?$PxSerializerDefaultAdapter@VNpRigidDynamic@physx@@@physx@@UEBA_NXZ 00000001800bc370 f i NpSerializerAdapter.obj
 0001:000bb380       ?isSubordinate@?$PxSerializerDefaultAdapter@VNpRigidStatic@physx@@@physx@@UEBA_NXZ 00000001800bc380 f i NpSerializerAdapter.obj
 0001:000bb390       ?isSubordinate@?$PxSerializerDefaultAdapter@VNpShape@physx@@@physx@@UEBA_NXZ 00000001800bc390 f i NpSerializerAdapter.obj
 0001:000bb3a0       ?isSubordinate@?$PxSerializerDefaultAdapter@VPruningStructure@Sq@physx@@@physx@@UEBA_NXZ 00000001800bc3a0 f i NpSerializerAdapter.obj
 0001:000bb3b0       ?isSubordinate@?$PxSerializerDefaultAdapter@VRTreeTriangleMesh@Gu@physx@@@physx@@UEBA_NXZ 00000001800bc3b0 f i NpSerializerAdapter.obj
 0001:000bb630       ?registerReferences@?$PxSerializerDefaultAdapter@VBV4TriangleMesh@Gu@physx@@@physx@@UEBAXAEAVPxBase@2@AEAVPxSerializationContext@2@@Z 00000001800bc630 f i NpSerializerAdapter.obj
 0001:000bb6a0       ?registerReferences@?$PxSerializerDefaultAdapter@VConvexMesh@Gu@physx@@@physx@@UEBAXAEAVPxBase@2@AEAVPxSerializationContext@2@@Z 00000001800bc6a0 f i NpSerializerAdapter.obj
 0001:000bb710       ?registerReferences@?$PxSerializerDefaultAdapter@VHeightField@Gu@physx@@@physx@@UEBAXAEAVPxBase@2@AEAVPxSerializationContext@2@@Z 00000001800bc710 f i NpSerializerAdapter.obj
 0001:000bb780       ?registerReferences@?$PxSerializerDefaultAdapter@VNpAggregate@physx@@@physx@@UEBAXAEAVPxBase@2@AEAVPxSerializationContext@2@@Z 00000001800bc780 f i NpSerializerAdapter.obj
 0001:000bb7e0       ?registerReferences@?$PxSerializerDefaultAdapter@VNpArticulation@physx@@@physx@@UEBAXAEAVPxBase@2@AEAVPxSerializationContext@2@@Z 00000001800bc7e0 f i NpSerializerAdapter.obj
 0001:000bb850       ?registerReferences@?$PxSerializerDefaultAdapter@VNpArticulationJoint@physx@@@physx@@UEBAXAEAVPxBase@2@AEAVPxSerializationContext@2@@Z 00000001800bc850 f i NpSerializerAdapter.obj
 0001:000bb8c0       ?registerReferences@?$PxSerializerDefaultAdapter@VNpArticulationLink@physx@@@physx@@UEBAXAEAVPxBase@2@AEAVPxSerializationContext@2@@Z 00000001800bc8c0 f i NpSerializerAdapter.obj
 0001:000bb930       ?registerReferences@?$PxSerializerDefaultAdapter@VNpCloth@physx@@@physx@@UEBAXAEAVPxBase@2@AEAVPxSerializationContext@2@@Z 00000001800bc930 f i NpSerializerAdapter.obj
 0001:000bb9a0       ?registerReferences@?$PxSerializerDefaultAdapter@VNpClothFabric@physx@@@physx@@UEBAXAEAVPxBase@2@AEAVPxSerializationContext@2@@Z 00000001800bc9a0 f i NpSerializerAdapter.obj
 0001:000bba10       ?registerReferences@?$PxSerializerDefaultAdapter@VNpConstraint@physx@@@physx@@UEBAXAEAVPxBase@2@AEAVPxSerializationContext@2@@Z 00000001800bca10 f i NpSerializerAdapter.obj
 0001:000bba80       ?registerReferences@?$PxSerializerDefaultAdapter@VNpMaterial@physx@@@physx@@UEBAXAEAVPxBase@2@AEAVPxSerializationContext@2@@Z 00000001800bca80 f i NpSerializerAdapter.obj
 0001:000bbaf0       ?registerReferences@?$PxSerializerDefaultAdapter@VNpParticleFluid@physx@@@physx@@UEBAXAEAVPxBase@2@AEAVPxSerializationContext@2@@Z 00000001800bcaf0 f i NpSerializerAdapter.obj
 0001:000bbb60       ?registerReferences@?$PxSerializerDefaultAdapter@VNpParticleSystem@physx@@@physx@@UEBAXAEAVPxBase@2@AEAVPxSerializationContext@2@@Z 00000001800bcb60 f i NpSerializerAdapter.obj
 0001:000bbbd0       ?registerReferences@?$PxSerializerDefaultAdapter@VNpRigidDynamic@physx@@@physx@@UEBAXAEAVPxBase@2@AEAVPxSerializationContext@2@@Z 00000001800bcbd0 f i NpSerializerAdapter.obj
 0001:000bbc40       ?registerReferences@?$PxSerializerDefaultAdapter@VNpRigidStatic@physx@@@physx@@UEBAXAEAVPxBase@2@AEAVPxSerializationContext@2@@Z 00000001800bcc40 f i NpSerializerAdapter.obj
 0001:000bbcb0       ?registerReferences@?$PxSerializerDefaultAdapter@VNpShape@physx@@@physx@@UEBAXAEAVPxBase@2@AEAVPxSerializationContext@2@@Z 00000001800bccb0 f i NpSerializerAdapter.obj
 0001:000bbd20       ?registerReferences@?$PxSerializerDefaultAdapter@VPruningStructure@Sq@physx@@@physx@@UEBAXAEAVPxBase@2@AEAVPxSerializationContext@2@@Z 00000001800bcd20 f i NpSerializerAdapter.obj
 0001:000bbd80       ?registerReferences@?$PxSerializerDefaultAdapter@VRTreeTriangleMesh@Gu@physx@@@physx@@UEBAXAEAVPxBase@2@AEAVPxSerializationContext@2@@Z 00000001800bcd80 f i NpSerializerAdapter.obj
 0001:000bbdf0       ?requires@?$PxSerializerDefaultAdapter@VBV4TriangleMesh@Gu@physx@@@physx@@UEBAXAEAVPxBase@2@AEAVPxProcessPxBaseCallback@2@@Z 00000001800bcdf0 f i NpSerializerAdapter.obj
 0001:000bbe10       ?requires@?$PxSerializerDefaultAdapter@VConvexMesh@Gu@physx@@@physx@@UEBAXAEAVPxBase@2@AEAVPxProcessPxBaseCallback@2@@Z 00000001800bce10 f i NpSerializerAdapter.obj
 0001:000bbe30       ?requires@?$PxSerializerDefaultAdapter@VHeightField@Gu@physx@@@physx@@UEBAXAEAVPxBase@2@AEAVPxProcessPxBaseCallback@2@@Z 00000001800bce30 f i NpSerializerAdapter.obj
 0001:000bbe50       ?requires@?$PxSerializerDefaultAdapter@VNpAggregate@physx@@@physx@@UEBAXAEAVPxBase@2@AEAVPxProcessPxBaseCallback@2@@Z 00000001800bce50 f i NpSerializerAdapter.obj
 0001:000bbe60       ?requires@?$PxSerializerDefaultAdapter@VNpArticulation@physx@@@physx@@UEBAXAEAVPxBase@2@AEAVPxProcessPxBaseCallback@2@@Z 00000001800bce60 f i NpSerializerAdapter.obj
 0001:000bbe80       ?requires@?$PxSerializerDefaultAdapter@VNpArticulationJoint@physx@@@physx@@UEBAXAEAVPxBase@2@AEAVPxProcessPxBaseCallback@2@@Z 00000001800bce80 f i NpSerializerAdapter.obj
 0001:000bbea0       ?requires@?$PxSerializerDefaultAdapter@VNpArticulationLink@physx@@@physx@@UEBAXAEAVPxBase@2@AEAVPxProcessPxBaseCallback@2@@Z 00000001800bcea0 f i NpSerializerAdapter.obj
 0001:000bbec0       ?requires@?$PxSerializerDefaultAdapter@VNpCloth@physx@@@physx@@UEBAXAEAVPxBase@2@AEAVPxProcessPxBaseCallback@2@@Z 00000001800bcec0 f i NpSerializerAdapter.obj
 0001:000bbee0       ?requires@?$PxSerializerDefaultAdapter@VNpClothFabric@physx@@@physx@@UEBAXAEAVPxBase@2@AEAVPxProcessPxBaseCallback@2@@Z 00000001800bcee0 f i NpSerializerAdapter.obj
 0001:000bbf00       ?requires@?$PxSerializerDefaultAdapter@VNpConstraint@physx@@@physx@@UEBAXAEAVPxBase@2@AEAVPxProcessPxBaseCallback@2@@Z 00000001800bcf00 f i NpSerializerAdapter.obj
 0001:000bbf20       ?requires@?$PxSerializerDefaultAdapter@VNpMaterial@physx@@@physx@@UEBAXAEAVPxBase@2@AEAVPxProcessPxBaseCallback@2@@Z 00000001800bcf20 f i NpSerializerAdapter.obj
 0001:000bbf40       ?requires@?$PxSerializerDefaultAdapter@VNpParticleFluid@physx@@@physx@@UEBAXAEAVPxBase@2@AEAVPxProcessPxBaseCallback@2@@Z 00000001800bcf40 f i NpSerializerAdapter.obj
 0001:000bbf60       ?requires@?$PxSerializerDefaultAdapter@VNpParticleSystem@physx@@@physx@@UEBAXAEAVPxBase@2@AEAVPxProcessPxBaseCallback@2@@Z 00000001800bcf60 f i NpSerializerAdapter.obj
 0001:000bbf80       ?requires@?$PxSerializerDefaultAdapter@VNpRigidDynamic@physx@@@physx@@UEBAXAEAVPxBase@2@AEAVPxProcessPxBaseCallback@2@@Z 00000001800bcf80 f i NpSerializerAdapter.obj
 0001:000bbfa0       ?requires@?$PxSerializerDefaultAdapter@VNpRigidStatic@physx@@@physx@@UEBAXAEAVPxBase@2@AEAVPxProcessPxBaseCallback@2@@Z 00000001800bcfa0 f i NpSerializerAdapter.obj
 0001:000bbfc0       ?requires@?$PxSerializerDefaultAdapter@VNpShape@physx@@@physx@@UEBAXAEAVPxBase@2@AEAVPxProcessPxBaseCallback@2@@Z 00000001800bcfc0 f i NpSerializerAdapter.obj
 0001:000bbfe0       ?requires@?$PxSerializerDefaultAdapter@VPruningStructure@Sq@physx@@@physx@@UEBAXAEAVPxBase@2@AEAVPxProcessPxBaseCallback@2@@Z 00000001800bcfe0 f i NpSerializerAdapter.obj
 0001:000bbff0       ?requires@?$PxSerializerDefaultAdapter@VRTreeTriangleMesh@Gu@physx@@@physx@@UEBAXAEAVPxBase@2@AEAVPxProcessPxBaseCallback@2@@Z 00000001800bcff0 f i NpSerializerAdapter.obj
 0001:000bc010       ?NpShapeGetScPtrOffset@physx@@YA_KXZ 00000001800bd010 f   NpShape.obj
 0001:000bc020       ?NpShapeIncRefCount@physx@@YAXAEAVShape@Scb@1@@Z 00000001800bd020 f   NpShape.obj
 0001:000bc040       ?NpShapeDecRefCount@physx@@YAXAEAVShape@Scb@1@@Z 00000001800bd040 f   NpShape.obj
 0001:000bc080       ?NpShapeGetScRigidObjectFromScbSLOW@physx@@YAPEAVRigidCore@Sc@1@AEBVShape@Scb@1@@Z 00000001800bd080 f   NpShape.obj
 0001:000bc0f0       ??0NpShape@physx@@QEAA@V?$PxFlags@W4Enum@PxBaseFlag@physx@@G@1@@Z 00000001800bd0f0 f   NpShape.obj
 0001:000bc180       ?exportExtraData@NpShape@physx@@UEAAXAEAVPxSerializationContext@2@@Z 00000001800bd180 f   NpShape.obj
 0001:000bc1c0       ?importExtraData@NpShape@physx@@QEAAXAEAVPxDeserializationContext@2@@Z 00000001800bd1c0 f   NpShape.obj
 0001:000bc210       ?requires@NpShape@physx@@UEAAXAEAVPxProcessPxBaseCallback@2@@Z 00000001800bd210 f   NpShape.obj
 0001:000bc350       ?resolveReferences@NpShape@physx@@QEAAXAEAVPxDeserializationContext@2@@Z 00000001800bd350 f   NpShape.obj
 0001:000bc530       ?createObject@NpShape@physx@@SAPEAV12@AEAPEAEAEAVPxDeserializationContext@2@@Z 00000001800bd530 f   NpShape.obj
 0001:000bc620       ??0NpShape@physx@@QEAA@AEBVPxGeometry@1@V?$PxFlags@W4Enum@PxShapeFlag@physx@@E@1@PEBGG_N@Z 00000001800bd620 f   NpShape.obj
 0001:000bc720       ??1NpShape@physx@@UEAA@XZ  00000001800bd720 f   NpShape.obj
 0001:000bc850       ?release@NpShape@physx@@UEAAXXZ 00000001800bd850 f   NpShape.obj
 0001:000bc920       ?acquireReference@NpShape@physx@@UEAAXXZ 00000001800bd920 f   NpShape.obj
 0001:000bc940       ?getGeometryType@NpShape@physx@@UEBA?AW4Enum@PxGeometryType@2@XZ 00000001800bd940 f   NpShape.obj
 0001:000bc990       ?setGeometry@NpShape@physx@@UEAAXAEBVPxGeometry@2@@Z 00000001800bd990 f   NpShape.obj
 0001:000bcf90       ?getGeometry@NpShape@physx@@UEBA?AVPxGeometryHolder@2@XZ 00000001800bdf90 f   NpShape.obj
 0001:000bcfd0       ?getBoxGeometry@NpShape@physx@@UEBA_NAEAVPxBoxGeometry@2@@Z 00000001800bdfd0 f   NpShape.obj
 0001:000bd060       ?getSphereGeometry@NpShape@physx@@UEBA_NAEAVPxSphereGeometry@2@@Z 00000001800be060 f   NpShape.obj
 0001:000bd0e0       ?getCapsuleGeometry@NpShape@physx@@UEBA_NAEAVPxCapsuleGeometry@2@@Z 00000001800be0e0 f   NpShape.obj
 0001:000bd170       ?getPlaneGeometry@NpShape@physx@@UEBA_NAEAVPxPlaneGeometry@2@@Z 00000001800be170 f   NpShape.obj
 0001:000bd1f0       ?getConvexMeshGeometry@NpShape@physx@@UEBA_NAEAVPxConvexMeshGeometry@2@@Z 00000001800be1f0 f   NpShape.obj
 0001:000bd2c0       ?getTriangleMeshGeometry@NpShape@physx@@UEBA_NAEAVPxTriangleMeshGeometry@2@@Z 00000001800be2c0 f   NpShape.obj
 0001:000bd390       ?getHeightFieldGeometry@NpShape@physx@@UEBA_NAEAVPxHeightFieldGeometry@2@@Z 00000001800be390 f   NpShape.obj
 0001:000bd440       ?getActor@NpShape@physx@@UEBAPEAVPxRigidActor@2@XZ 00000001800be440 f   NpShape.obj
 0001:000bd490       ?setLocalPose@NpShape@physx@@UEAAXAEBVPxTransform@2@@Z 00000001800be490 f   NpShape.obj
 0001:000bd900       ?getLocalPose@NpShape@physx@@UEBA?AVPxTransform@2@XZ 00000001800be900 f   NpShape.obj
 0001:000bd990       ?setSimulationFilterData@NpShape@physx@@UEAAXAEBUPxFilterData@2@@Z 00000001800be990 f   NpShape.obj
 0001:000bdb60       ?getSimulationFilterData@NpShape@physx@@UEBA?AUPxFilterData@2@XZ 00000001800beb60 f   NpShape.obj
 0001:000bdbd0       ?setQueryFilterData@NpShape@physx@@UEAAXAEBUPxFilterData@2@@Z 00000001800bebd0 f   NpShape.obj
 0001:000bdcb0       ?getQueryFilterData@NpShape@physx@@UEBA?AUPxFilterData@2@XZ 00000001800becb0 f   NpShape.obj
 0001:000bdd10       ?setMaterials@NpShape@physx@@UEAAXPEBQEAVPxMaterial@2@G@Z 00000001800bed10 f   NpShape.obj
 0001:000be040       ?getNbMaterials@NpShape@physx@@UEBAGXZ 00000001800bf040 f   NpShape.obj
 0001:000be0c0       ?getMaterials@NpShape@physx@@UEBAIPEAPEAVPxMaterial@2@II@Z 00000001800bf0c0 f   NpShape.obj
 0001:000be150       ?getMaterialFromInternalFaceIndex@NpShape@physx@@UEBAPEAVPxMaterial@2@I@Z 00000001800bf150 f   NpShape.obj
 0001:000be2e0       ?setContactOffset@NpShape@physx@@UEAAXM@Z 00000001800bf2e0 f   NpShape.obj
 0001:000be570       ?getContactOffset@NpShape@physx@@UEBAMXZ 00000001800bf570 f   NpShape.obj
 0001:000be5e0       ?setRestOffset@NpShape@physx@@UEAAXM@Z 00000001800bf5e0 f   NpShape.obj
 0001:000be860       ?getRestOffset@NpShape@physx@@UEBAMXZ 00000001800bf860 f   NpShape.obj
 0001:000be8d0       ?setFlag@NpShape@physx@@UEAAXW4Enum@PxShapeFlag@2@_N@Z 00000001800bf8d0 f   NpShape.obj
 0001:000bea10       ?setFlags@NpShape@physx@@UEAAXV?$PxFlags@W4Enum@PxShapeFlag@physx@@E@2@@Z 00000001800bfa10 f   NpShape.obj
 0001:000beb20       ?getFlags@NpShape@physx@@UEBA?AV?$PxFlags@W4Enum@PxShapeFlag@physx@@E@2@XZ 00000001800bfb20 f   NpShape.obj
 0001:000beb90       ?isExclusive@NpShape@physx@@UEBA_NXZ 00000001800bfb90 f   NpShape.obj
 0001:000bebf0       ?setName@NpShape@physx@@UEAAXPEBD@Z 00000001800bfbf0 f   NpShape.obj
 0001:000becd0       ?getName@NpShape@physx@@UEBAPEBDXZ 00000001800bfcd0 f   NpShape.obj
 0001:000bed20       ?onRefCountZero@NpShape@physx@@UEAAXXZ 00000001800bfd20 f   NpShape.obj
 0001:000bed50       ?setFlagsInternal@NpShape@physx@@QEAAXV?$PxFlags@W4Enum@PxShapeFlag@physx@@E@2@@Z 00000001800bfd50 f   NpShape.obj
 0001:000bf050       ?checkMaterialSetup@NpShape@physx@@SA_NAEBVPxGeometry@2@PEBDPEBQEAVPxMaterial@2@G@Z 00000001800c0050 f   NpShape.obj
 0001:000bf270       ?onActorAttach@NpShape@physx@@QEAAXAEAVPxRigidActor@2@@Z 00000001800c0270 f   NpShape.obj
 0001:000bf2c0       ?onActorDetach@NpShape@physx@@QEAAXXZ 00000001800c02c0 f   NpShape.obj
 0001:000bf320       ?getScRigidObjectExclusive@NpShape@physx@@QEBAAEAVRigidCore@Sc@2@XZ 00000001800c0320 f   NpShape.obj
 0001:000bf330       ?releaseInternal@NpShape@physx@@QEAAXXZ 00000001800c0330 f   NpShape.obj
 0001:000bf370       ?getOwnerScene@NpShape@physx@@QEBAPEAVNpScene@2@XZ 00000001800c0370 f   NpShape.obj
 0001:000bf390       ?getAPIScene@NpShape@physx@@AEBAPEAVNpScene@2@XZ 00000001800c0390 f   NpShape.obj
 0001:000bf3a0       ?incMeshRefCount@NpShape@physx@@AEAAXXZ 00000001800c03a0 f   NpShape.obj
 0001:000bf3d0       ?decMeshRefCount@NpShape@physx@@AEAAXXZ 00000001800c03d0 f   NpShape.obj
 0001:000bf410       ?getMeshRefCountable@NpShape@physx@@AEAAPEAVRefCountable@Cm@2@XZ 00000001800c0410 f   NpShape.obj
 0001:000bf4a0       ?isWritable@NpShape@physx@@AEAA_NXZ 00000001800c04a0 f   NpShape.obj
 0001:000bf4d0       ?updateSQ@NpShape@physx@@AEAAXPEBD@Z 00000001800c04d0 f   NpShape.obj
 0001:000c0300       ??$allocArrayBuffer@G@Scene@Scb@physx@@AEAAPEAGAEAV?$Array@GVNamedAllocator@shdfnd@physx@@@shdfnd@2@IAEAI@Z 00000001800c1300 f i NpShape.obj
 0001:000c0360       ??1PxShape@physx@@MEAA@XZ  00000001800c1360 f i NpShape.obj
 0001:000c0370       ??_ENpShape@physx@@WBI@EAAPEAXI@Z 00000001800c1370 f i NpShape.obj
 0001:000c0380       ??_GNpShape@physx@@UEAAPEAXI@Z 00000001800c1380 f i NpShape.obj
 0001:000c0380       ??_ENpShape@physx@@UEAAPEAXI@Z 00000001800c1380 f i NpShape.obj
 0001:000c0550       ??_GPxShape@physx@@MEAAPEAXI@Z 00000001800c1550 f i NpShape.obj
 0001:000c0550       ??_EPxShape@physx@@MEAAPEAXI@Z 00000001800c1550 f i NpShape.obj
 0001:000c0590       ?getConcreteTypeName@PxShape@physx@@UEBAPEBDXZ 00000001800c1590 f i NpShape.obj
 0001:000c05a0       ?getMaterial@Shape@Scb@physx@@QEBAPEAVPxMaterial@3@I@Z 00000001800c15a0 f i NpShape.obj
 0001:000c0640       ?getMaterials@Shape@Scb@physx@@QEBAIPEAPEAVPxMaterial@3@II@Z 00000001800c1640 f i NpShape.obj
 0001:000c0750       ?isKindOf@PxShape@physx@@MEBA_NPEBD@Z 00000001800c1750 f i NpShape.obj
 0001:000c07b0       ??0NpShapeManager@physx@@QEAA@W4PxEMPTY@1@@Z 00000001800c17b0 f   NpShapeManager.obj
 0001:000c07f0       ?exportExtraData@NpShapeManager@physx@@QEAAXAEAVPxSerializationContext@2@@Z 00000001800c17f0 f   NpShapeManager.obj
 0001:000c0830       ?importExtraData@NpShapeManager@physx@@QEAAXAEAVPxDeserializationContext@2@@Z 00000001800c1830 f   NpShapeManager.obj
 0001:000c0870       ??0NpShapeManager@physx@@QEAA@XZ 00000001800c1870 f   NpShapeManager.obj
 0001:000c08a0       ??1NpShapeManager@physx@@QEAA@XZ 00000001800c18a0 f   NpShapeManager.obj
 0001:000c0900       ?getShapes@NpShapeManager@physx@@QEBAIPEAPEAVPxShape@2@II@Z 00000001800c1900 f   NpShapeManager.obj
 0001:000c0960       ?attachShape@NpShapeManager@physx@@QEAAXAEAVNpShape@2@AEAVPxRigidActor@2@@Z 00000001800c1960 f   NpShapeManager.obj
 0001:000c0a40       ?detachShape@NpShapeManager@physx@@QEAA_NAEAVNpShape@2@AEAVPxRigidActor@2@_N@Z 00000001800c1a40 f   NpShapeManager.obj
 0001:000c0b50       ?detachAll@NpShapeManager@physx@@QEAAXPEAVNpScene@2@@Z 00000001800c1b50 f   NpShapeManager.obj
 0001:000c0c80       ?teardownSceneQuery@NpShapeManager@physx@@QEAAXAEAVSceneQueryManager@Sq@2@AEBVNpShape@2@@Z 00000001800c1c80 f   NpShapeManager.obj
 0001:000c0d10       ?setupSceneQuery@NpShapeManager@physx@@QEAAXAEAVSceneQueryManager@Sq@2@AEBVPxRigidActor@2@AEBVNpShape@2@@Z 00000001800c1d10 f   NpShapeManager.obj
 0001:000c0d60       ?setupAllSceneQuery@NpShapeManager@physx@@QEAAXPEAVNpScene@2@AEBVPxRigidActor@2@_NPEBVPxBounds3@2@@Z 00000001800c1d60 f   NpShapeManager.obj
 0001:000c0e70       ?teardownAllSceneQuery@NpShapeManager@physx@@QEAAXAEAVSceneQueryManager@Sq@2@@Z 00000001800c1e70 f   NpShapeManager.obj
 0001:000c0f30       ?markAllSceneQueryForUpdate@NpShapeManager@physx@@QEAAXAEAVSceneQueryManager@Sq@2@@Z 00000001800c1f30 f   NpShapeManager.obj
 0001:000c0fb0       ?findSceneQueryData@NpShapeManager@physx@@QEBA_KAEBVNpShape@2@@Z 00000001800c1fb0 f   NpShapeManager.obj
 0001:000c0ff0       ?getWorldBounds@NpShapeManager@physx@@QEBA?AVPxBounds3@2@AEBVPxRigidActor@2@@Z 00000001800c1ff0 f   NpShapeManager.obj
 0001:000c1360       ?clearShapesOnRelease@NpShapeManager@physx@@QEAAXAEAVScene@Scb@2@AEAVPxRigidActor@2@@Z 00000001800c2360 f   NpShapeManager.obj
 0001:000c1400       ?releaseExclusiveUserReferences@NpShapeManager@physx@@QEAAXXZ 00000001800c2400 f   NpShapeManager.obj
 0001:000c1470       ?visualize@NpShapeManager@physx@@QEAAXAEAVRenderOutput@Cm@2@PEAVNpScene@2@AEBVPxRigidActor@2@@Z 00000001800c2470 f   NpShapeManager.obj
 0001:000c1bf0       ?setupSceneQuery@NpShapeManager@physx@@IEAAXAEAVSceneQueryManager@Sq@2@AEBVPxRigidActor@2@I@Z 00000001800c2bf0 f   NpShapeManager.obj
 0001:000c1c80       ?teardownSceneQuery@NpShapeManager@physx@@IEAAXAEAVSceneQueryManager@Sq@2@I@Z 00000001800c2c80 f   NpShapeManager.obj
 0001:000c22b0       ??0PxMat44@physx@@QEAA@AEBVPxTransform@1@@Z 00000001800c32b0 f i NpShapeManager.obj
 0001:000c2490       ??0PxVec4@physx@@QEAA@XZ   00000001800c3490 f i NpShapeManager.obj
 0001:000c27a0       ?growAndPushBack@?$Array@PEAVShape@Scb@physx@@V?$InlineAllocator@$0CA@VNamedAllocator@shdfnd@physx@@@shdfnd@3@@shdfnd@physx@@IEAAAEAPEAVShape@Scb@3@AEBQEAV453@@Z 00000001800c37a0 f i NpShapeManager.obj
 0001:000c28a0       ?growAndPushBack@?$Array@URemovedShape@Scb@physx@@V?$InlineAllocator@$0EA@VNamedAllocator@shdfnd@physx@@@shdfnd@3@@shdfnd@physx@@IEAAAEAURemovedShape@Scb@3@AEBU453@@Z 00000001800c38a0 f i NpShapeManager.obj
 0001:000c2990       ?onShapeAttach@RigidObject@Scb@physx@@QEAAXAEAVShape@23@@Z 00000001800c3990 f i NpShapeManager.obj
 0001:000c2c20       ?onShapeDetach@RigidObject@Scb@physx@@QEAAXAEAVShape@23@_N1@Z 00000001800c3c20 f i NpShapeManager.obj
 0001:000c6470       ?PxCreateSpatialIndex@physx@@YAPEAVPxSpatialIndex@1@XZ 00000001800c7470 f   NpSpatialIndex.obj
 0001:000c6510       ??0NpSpatialIndex@physx@@QEAA@XZ 00000001800c7510 f   NpSpatialIndex.obj
 0001:000c6550       ??1NpSpatialIndex@physx@@UEAA@XZ 00000001800c7550 f   NpSpatialIndex.obj
 0001:000c6590       ?insert@NpSpatialIndex@physx@@UEAAIAEAVPxSpatialIndexItem@2@AEBVPxBounds3@2@@Z 00000001800c7590 f   NpSpatialIndex.obj
 0001:000c6860       ?update@NpSpatialIndex@physx@@UEAAXIAEBVPxBounds3@2@@Z 00000001800c7860 f   NpSpatialIndex.obj
 0001:000c6b40       ?remove@NpSpatialIndex@physx@@UEAAXI@Z 00000001800c7b40 f   NpSpatialIndex.obj
 0001:000c6ba0       ?overlap@NpSpatialIndex@physx@@UEBAXAEBVPxBounds3@2@AEAUPxSpatialOverlapCallback@2@@Z 00000001800c7ba0 f   NpSpatialIndex.obj
 0001:000c6f20       ?raycast@NpSpatialIndex@physx@@UEBAXAEBVPxVec3@2@0MAEAUPxSpatialLocationCallback@2@@Z 00000001800c7f20 f   NpSpatialIndex.obj
 0001:000c7250       ?sweep@NpSpatialIndex@physx@@UEBAXAEBVPxBounds3@2@AEBVPxVec3@2@MAEAUPxSpatialLocationCallback@2@@Z 00000001800c8250 f   NpSpatialIndex.obj
 0001:000c77a0       ?rebuildFull@NpSpatialIndex@physx@@UEAAXXZ 00000001800c87a0 f   NpSpatialIndex.obj
 0001:000c7800       ?setIncrementalRebuildRate@NpSpatialIndex@physx@@UEAAXI@Z 00000001800c8800 f   NpSpatialIndex.obj
 0001:000c7820       ?rebuildStep@NpSpatialIndex@physx@@UEAAXXZ 00000001800c8820 f   NpSpatialIndex.obj
 0001:000c7880       ?release@NpSpatialIndex@physx@@UEAAXXZ 00000001800c8880 f   NpSpatialIndex.obj
 0001:000c78a0       ?flushUpdates@NpSpatialIndex@physx@@AEBAXXZ 00000001800c88a0 f   NpSpatialIndex.obj
 0001:000c7df0       ??1PxSpatialIndex@physx@@MEAA@XZ 00000001800c8df0 f i NpSpatialIndex.obj
 0001:000c7e00       ??_ELocationCallback@?A0x1d06da84@@UEAAPEAXI@Z 00000001800c8e00 f i NpSpatialIndex.obj
 0001:000c7e00       ??_GLocationCallback@?A0x1d06da84@@UEAAPEAXI@Z 00000001800c8e00 f i NpSpatialIndex.obj
 0001:000c7e40       ??_GNpSpatialIndex@physx@@UEAAPEAXI@Z 00000001800c8e40 f i NpSpatialIndex.obj
 0001:000c7e40       ??_ENpSpatialIndex@physx@@UEAAPEAXI@Z 00000001800c8e40 f i NpSpatialIndex.obj
 0001:000c7ee0       ??_EOverlapCallback@?A0x1d06da84@@UEAAPEAXI@Z 00000001800c8ee0 f i NpSpatialIndex.obj
 0001:000c7ee0       ??_GOverlapCallback@?A0x1d06da84@@UEAAPEAXI@Z 00000001800c8ee0 f i NpSpatialIndex.obj
 0001:000c7f20       ??_EPxSpatialIndex@physx@@MEAAPEAXI@Z 00000001800c8f20 f i NpSpatialIndex.obj
 0001:000c7f20       ??_GPxSpatialIndex@physx@@MEAAPEAXI@Z 00000001800c8f20 f i NpSpatialIndex.obj
 0001:000c7f60       ?flush@NpSpatialIndex@physx@@UEAAXXZ 00000001800c8f60 f i NpSpatialIndex.obj
 0001:000c8080       ??0NpVolumeCache@physx@@QEAA@PEAVSceneQueryManager@Sq@1@II@Z 00000001800c9080 f   NpVolumeCache.obj
 0001:000c8160       ??1NpVolumeCache@physx@@UEAA@XZ 00000001800c9160 f   NpVolumeCache.obj
 0001:000c81e0       ?isValid@NpVolumeCache@physx@@UEBA_NXZ 00000001800c91e0 f   NpVolumeCache.obj
 0001:000c8220       ?isValid@NpVolumeCache@physx@@QEBA_NI@Z 00000001800c9220 f   NpVolumeCache.obj
 0001:000c8270       ?fill@NpVolumeCache@physx@@UEAA?AW4FillStatus@PxVolumeCache@2@AEBVPxGeometry@2@AEBVPxTransform@2@@Z 00000001800c9270 f   NpVolumeCache.obj
 0001:000c8560       ?fillInternal@NpVolumeCache@physx@@QEAA?AW4FillStatus@PxVolumeCache@2@IPEBUPxOverlapHit@2@H@Z 00000001800c9560 f   NpVolumeCache.obj
 0001:000c8870       ?getCacheVolume@NpVolumeCache@physx@@UEAA_NAEAVPxGeometryHolder@2@AEAVPxTransform@2@@Z 00000001800c9870 f   NpVolumeCache.obj
 0001:000c88d0       ?getNbCachedShapes@NpVolumeCache@physx@@UEAAHXZ 00000001800c98d0 f   NpVolumeCache.obj
 0001:000c8910       ?invalidate@NpVolumeCache@physx@@UEAAXXZ 00000001800c9910 f   NpVolumeCache.obj
 0001:000c8940       ?release@NpVolumeCache@physx@@UEAAXXZ 00000001800c9940 f   NpVolumeCache.obj
 0001:000c8960       ?forEach@NpVolumeCache@physx@@UEAAXAEAUIterator@PxVolumeCache@2@@Z 00000001800c9960 f   NpVolumeCache.obj
 0001:000c8b80       ?setMaxNbStaticShapes@NpVolumeCache@physx@@UEAAXI@Z 00000001800c9b80 f   NpVolumeCache.obj
 0001:000c8bb0       ?getMaxNbStaticShapes@NpVolumeCache@physx@@UEAAIXZ 00000001800c9bb0 f   NpVolumeCache.obj
 0001:000c8bc0       ?setMaxNbDynamicShapes@NpVolumeCache@physx@@UEAAXI@Z 00000001800c9bc0 f   NpVolumeCache.obj
 0001:000c8c00       ?getMaxNbDynamicShapes@NpVolumeCache@physx@@UEAAIXZ 00000001800c9c00 f   NpVolumeCache.obj
 0001:000c8c10       ?raycast@NpVolumeCache@physx@@UEBA_NAEBVPxVec3@2@0MAEAU?$PxHitCallback@UPxRaycastHit@physx@@@2@V?$PxFlags@W4Enum@PxHitFlag@physx@@G@2@AEBUPxQueryFilterData@2@PEAVPxQueryFilterCallback@2@@Z 00000001800c9c10 f   NpVolumeCache.obj
 0001:000c8ce0       ?sweep@NpVolumeCache@physx@@UEBA_NAEBVPxGeometry@2@AEBVPxTransform@2@AEBVPxVec3@2@MAEAU?$PxHitCallback@UPxSweepHit@physx@@@2@V?$PxFlags@W4Enum@PxHitFlag@physx@@G@2@AEBUPxQueryFilterData@2@PEAVPxQueryFilterCallback@2@M@Z 00000001800c9ce0 f   NpVolumeCache.obj
 0001:000c8dc0       ?overlap@NpVolumeCache@physx@@UEBA_NAEBVPxGeometry@2@AEBVPxTransform@2@AEAU?$PxHitCallback@UPxOverlapHit@physx@@@2@AEBUPxQueryFilterData@2@PEAVPxQueryFilterCallback@2@@Z 00000001800c9dc0 f   NpVolumeCache.obj
 0001:000c8e70       ?onOriginShift@NpVolumeCache@physx@@QEAAXAEBVPxVec3@2@@Z 00000001800c9e70 f   NpVolumeCache.obj
 0001:000c93c0       ??$multiQuery@UPxOverlapHit@physx@@@NpVolumeCache@physx@@QEBA_NAEBUMultiQueryInput@1@AEAU?$PxHitCallback@UPxOverlapHit@physx@@@1@V?$PxFlags@W4Enum@PxHitFlag@physx@@G@1@AEBUPxQueryFilterData@1@PEAVPxQueryFilterCallback@1@M@Z 00000001800ca3c0 f i NpVolumeCache.obj
 0001:000c9c40       ??$multiQuery@UPxRaycastHit@physx@@@NpVolumeCache@physx@@QEBA_NAEBUMultiQueryInput@1@AEAU?$PxHitCallback@UPxRaycastHit@physx@@@1@V?$PxFlags@W4Enum@PxHitFlag@physx@@G@1@AEBUPxQueryFilterData@1@PEAVPxQueryFilterCallback@1@M@Z 00000001800cac40 f i NpVolumeCache.obj
 0001:000ca960       ??$multiQuery@UPxSweepHit@physx@@@NpVolumeCache@physx@@QEBA_NAEBUMultiQueryInput@1@AEAU?$PxHitCallback@UPxSweepHit@physx@@@1@V?$PxFlags@W4Enum@PxHitFlag@physx@@G@1@AEBUPxQueryFilterData@1@PEAVPxQueryFilterCallback@1@M@Z 00000001800cb960 f i NpVolumeCache.obj
 0001:000cb810       ??1?$Array@UPxActorShape@physx@@VNamedAllocator@shdfnd@2@@shdfnd@physx@@QEAA@XZ 00000001800cc810 f i NpVolumeCache.obj
 0001:000cb850       ??1PxVolumeCache@physx@@MEAA@XZ 00000001800cc850 f i NpVolumeCache.obj
 0001:000cb860       ??_F?$Array@UPxActorShape@physx@@VNamedAllocator@shdfnd@2@@shdfnd@physx@@QEAAXXZ 00000001800cc860 f i NpVolumeCache.obj
 0001:000cb8b0       ??_ENpVolumeCache@physx@@UEAAPEAXI@Z 00000001800cc8b0 f i NpVolumeCache.obj
 0001:000cb8b0       ??_GNpVolumeCache@physx@@UEAAPEAXI@Z 00000001800cc8b0 f i NpVolumeCache.obj
 0001:000cb990       ??_ENpVolumeCacheSqCallback@physx@@UEAAPEAXI@Z 00000001800cc990 f i NpVolumeCache.obj
 0001:000cb990       ??_GNpVolumeCacheSqCallback@physx@@UEAAPEAXI@Z 00000001800cc990 f i NpVolumeCache.obj
 0001:000cb9d0       ??_GPxVolumeCache@physx@@MEAAPEAXI@Z 00000001800cc9d0 f i NpVolumeCache.obj
 0001:000cb9d0       ??_EPxVolumeCache@physx@@MEAAPEAXI@Z 00000001800cc9d0 f i NpVolumeCache.obj
 0001:000cba10       ?growAndPushBack@?$Array@UPxActorShape@physx@@VNamedAllocator@shdfnd@2@@shdfnd@physx@@IEAAAEAUPxActorShape@3@AEBU43@@Z 00000001800cca10 f i NpVolumeCache.obj
 0001:000cbb30       ?processTouches@NpVolumeCacheSqCallback@physx@@UEAA_NPEBUPxOverlapHit@2@I@Z 00000001800ccb30 f i NpVolumeCache.obj
 0001:000cbbf0       ?recreate@?$Array@UPxActorShape@physx@@VNamedAllocator@shdfnd@2@@shdfnd@physx@@IEAAXI@Z 00000001800ccbf0 f i NpVolumeCache.obj
 0001:000cbcf0       ?resize@?$Array@UPxActorShape@physx@@VNamedAllocator@shdfnd@2@@shdfnd@physx@@QEAAXIAEBUPxActorShape@3@@Z 00000001800cccf0 f i NpVolumeCache.obj
 0001:000cbd80       ??0NpWriteCheck@physx@@QEAA@PEAVNpScene@1@PEBD_N@Z 00000001800ccd80 f   NpWriteCheck.obj
 0001:000cbe90       ??1NpWriteCheck@physx@@QEAA@XZ 00000001800cce90 f   NpWriteCheck.obj
 0001:000cbfa0       ??0PvdMetaDataBinding@Vd@physx@@QEAA@XZ 00000001800ccfa0 f   PvdMetaDataPvdBinding.obj
 0001:000cc180       ??1PvdMetaDataBinding@Vd@physx@@QEAA@XZ 00000001800cd180 f   PvdMetaDataPvdBinding.obj
 0001:000cc380       ?registerSDKProperties@PvdMetaDataBinding@Vd@physx@@QEAAXAEAVPvdDataStream@pvdsdk@3@@Z 00000001800cd380 f   PvdMetaDataPvdBinding.obj
 0001:000d1680       ?sendAllProperties@PvdMetaDataBinding@Vd@physx@@QEAAXAEAVPvdDataStream@pvdsdk@3@AEBVPxPhysics@3@@Z 00000001800d2680 f   PvdMetaDataPvdBinding.obj
 0001:000d1850       ?sendAllProperties@PvdMetaDataBinding@Vd@physx@@QEAAXAEAVPvdDataStream@pvdsdk@3@AEBVPxScene@3@@Z 00000001800d2850 f   PvdMetaDataPvdBinding.obj
 0001:000d1c80       ?sendBeginFrame@PvdMetaDataBinding@Vd@physx@@QEAAXAEAVPvdDataStream@pvdsdk@3@PEBVPxScene@3@M@Z 00000001800d2c80 f   PvdMetaDataPvdBinding.obj
 0001:000d1d80       ?sendContacts@PvdMetaDataBinding@Vd@physx@@QEAAXAEAVPvdDataStream@pvdsdk@3@AEBVPxScene@3@AEAV?$Array@UContact@Sc@physx@@VNamedAllocator@shdfnd@3@@shdfnd@3@@Z 00000001800d2d80 f   PvdMetaDataPvdBinding.obj
 0001:000d1f30       ?sendContacts@PvdMetaDataBinding@Vd@physx@@QEAAXAEAVPvdDataStream@pvdsdk@3@AEBVPxScene@3@@Z 00000001800d2f30 f   PvdMetaDataPvdBinding.obj
 0001:000d1fa0       ?sendSceneQueries@PvdMetaDataBinding@Vd@physx@@QEAAXAEAVPvdDataStream@pvdsdk@3@AEBVPxScene@3@PEAVPsPvd@53@@Z 00000001800d2fa0 f   PvdMetaDataPvdBinding.obj
 0001:000d2cb0       ?sendStats@PvdMetaDataBinding@Vd@physx@@QEAAXAEAVPvdDataStream@pvdsdk@3@PEBVPxScene@3@PEAX@Z 00000001800d3cb0 f   PvdMetaDataPvdBinding.obj
 0001:000d2e70       ?sendEndFrame@PvdMetaDataBinding@Vd@physx@@QEAAXAEAVPvdDataStream@pvdsdk@3@PEBVPxScene@3@@Z 00000001800d3e70 f   PvdMetaDataPvdBinding.obj
 0001:000d2e90       ?createInstance@PvdMetaDataBinding@Vd@physx@@QEAAXAEAVPvdDataStream@pvdsdk@3@AEBVPxMaterial@3@AEBVPxPhysics@3@@Z 00000001800d3e90 f   PvdMetaDataPvdBinding.obj
 0001:000d2fb0       ?sendAllProperties@PvdMetaDataBinding@Vd@physx@@QEAAXAEAVPvdDataStream@pvdsdk@3@AEBVPxMaterial@3@@Z 00000001800d3fb0 f   PvdMetaDataPvdBinding.obj
 0001:000d3030       ?destroyInstance@PvdMetaDataBinding@Vd@physx@@QEAAXAEAVPvdDataStream@pvdsdk@3@AEBVPxMaterial@3@AEBVPxPhysics@3@@Z 00000001800d4030 f   PvdMetaDataPvdBinding.obj
 0001:000d3080       ?createInstance@PvdMetaDataBinding@Vd@physx@@QEAAXAEAVPvdDataStream@pvdsdk@3@AEBVPxHeightField@3@AEBVPxPhysics@3@@Z 00000001800d4080 f   PvdMetaDataPvdBinding.obj
 0001:000d3170       ?sendAllProperties@PvdMetaDataBinding@Vd@physx@@QEAAXAEAVPvdDataStream@pvdsdk@3@AEBVPxHeightField@3@@Z 00000001800d4170 f   PvdMetaDataPvdBinding.obj
 0001:000d3330       ?destroyInstance@PvdMetaDataBinding@Vd@physx@@QEAAXAEAVPvdDataStream@pvdsdk@3@AEBVPxHeightField@3@AEBVPxPhysics@3@@Z 00000001800d4330 f   PvdMetaDataPvdBinding.obj
 0001:000d3380       ?createInstance@PvdMetaDataBinding@Vd@physx@@QEAAXAEAVPvdDataStream@pvdsdk@3@AEBVPxConvexMesh@3@AEBVPxPhysics@3@@Z 00000001800d4380 f   PvdMetaDataPvdBinding.obj
 0001:000d36d0       ?destroyInstance@PvdMetaDataBinding@Vd@physx@@QEAAXAEAVPvdDataStream@pvdsdk@3@AEBVPxConvexMesh@3@AEBVPxPhysics@3@@Z 00000001800d46d0 f   PvdMetaDataPvdBinding.obj
 0001:000d3720       ?createInstance@PvdMetaDataBinding@Vd@physx@@QEAAXAEAVPvdDataStream@pvdsdk@3@AEBVPxTriangleMesh@3@AEBVPxPhysics@3@@Z 00000001800d4720 f   PvdMetaDataPvdBinding.obj
 0001:000d3a00       ?destroyInstance@PvdMetaDataBinding@Vd@physx@@QEAAXAEAVPvdDataStream@pvdsdk@3@AEBVPxTriangleMesh@3@AEBVPxPhysics@3@@Z 00000001800d4a00 f   PvdMetaDataPvdBinding.obj
 0001:000d3a50       ?createInstance@PvdMetaDataBinding@Vd@physx@@QEAAXAEAVPvdDataStream@pvdsdk@3@AEBVPxRigidStatic@3@AEBVPxScene@3@AEBVPxPhysics@3@PEAVPsPvd@53@@Z 00000001800d4a50 f   PvdMetaDataPvdBinding.obj
 0001:000d3b60       ?sendAllProperties@PvdMetaDataBinding@Vd@physx@@QEAAXAEAVPvdDataStream@pvdsdk@3@AEBVPxRigidStatic@3@@Z 00000001800d4b60 f   PvdMetaDataPvdBinding.obj
 0001:000d3bf0       ?destroyInstance@PvdMetaDataBinding@Vd@physx@@QEAAXAEAVPvdDataStream@pvdsdk@3@AEBVPxRigidStatic@3@AEBVPxScene@3@@Z 00000001800d4bf0 f   PvdMetaDataPvdBinding.obj
 0001:000d3c50       ?createInstance@PvdMetaDataBinding@Vd@physx@@QEAAXAEAVPvdDataStream@pvdsdk@3@AEBVPxRigidDynamic@3@AEBVPxScene@3@AEBVPxPhysics@3@PEAVPsPvd@53@@Z 00000001800d4c50 f   PvdMetaDataPvdBinding.obj
 0001:000d3d60       ?sendAllProperties@PvdMetaDataBinding@Vd@physx@@QEAAXAEAVPvdDataStream@pvdsdk@3@AEBVPxRigidDynamic@3@@Z 00000001800d4d60 f   PvdMetaDataPvdBinding.obj
 0001:000d3df0       ?destroyInstance@PvdMetaDataBinding@Vd@physx@@QEAAXAEAVPvdDataStream@pvdsdk@3@AEBVPxRigidDynamic@3@AEBVPxScene@3@@Z 00000001800d4df0 f   PvdMetaDataPvdBinding.obj
 0001:000d3e50       ?createInstance@PvdMetaDataBinding@Vd@physx@@QEAAXAEAVPvdDataStream@pvdsdk@3@AEBVPxArticulation@3@AEBVPxScene@3@AEBVPxPhysics@3@PEAVPsPvd@53@@Z 00000001800d4e50 f   PvdMetaDataPvdBinding.obj
 0001:000d4400       ?sendAllProperties@PvdMetaDataBinding@Vd@physx@@QEAAXAEAVPvdDataStream@pvdsdk@3@AEBVPxArticulation@3@@Z 00000001800d5400 f   PvdMetaDataPvdBinding.obj
 0001:000d4490       ?destroyInstance@PvdMetaDataBinding@Vd@physx@@QEAAXAEAVPvdDataStream@pvdsdk@3@AEBVPxArticulation@3@AEBVPxScene@3@@Z 00000001800d5490 f   PvdMetaDataPvdBinding.obj
 0001:000d44e0       ?createInstance@PvdMetaDataBinding@Vd@physx@@QEAAXAEAVPvdDataStream@pvdsdk@3@AEBVPxArticulationLink@3@AEBVPxPhysics@3@PEAVPsPvd@53@@Z 00000001800d54e0 f   PvdMetaDataPvdBinding.obj
 0001:000d4710       ?sendAllProperties@PvdMetaDataBinding@Vd@physx@@QEAAXAEAVPvdDataStream@pvdsdk@3@AEBVPxArticulationLink@3@@Z 00000001800d5710 f   PvdMetaDataPvdBinding.obj
 0001:000d47a0       ?destroyInstance@PvdMetaDataBinding@Vd@physx@@QEAAXAEAVPvdDataStream@pvdsdk@3@AEBVPxArticulationLink@3@@Z 00000001800d57a0 f   PvdMetaDataPvdBinding.obj
 0001:000d4810       ?createInstance@PvdMetaDataBinding@Vd@physx@@QEAAXAEAVPvdDataStream@pvdsdk@3@AEBVPxShape@3@AEBVPxRigidActor@3@AEBVPxPhysics@3@PEAVPsPvd@53@@Z 00000001800d5810 f   PvdMetaDataPvdBinding.obj
 0001:000d4c90       ?sendAllProperties@PvdMetaDataBinding@Vd@physx@@QEAAXAEAVPvdDataStream@pvdsdk@3@AEBVPxShape@3@@Z 00000001800d5c90 f   PvdMetaDataPvdBinding.obj
 0001:000d4d20       ?releaseAndRecreateGeometry@PvdMetaDataBinding@Vd@physx@@QEAAXAEAVPvdDataStream@pvdsdk@3@AEBVPxShape@3@AEAVPxPhysics@3@PEAVPsPvd@53@@Z 00000001800d5d20 f   PvdMetaDataPvdBinding.obj
 0001:000d4e30       ?updateMaterials@PvdMetaDataBinding@Vd@physx@@QEAAXAEAVPvdDataStream@pvdsdk@3@AEBVPxShape@3@PEAVPsPvd@53@@Z 00000001800d5e30 f   PvdMetaDataPvdBinding.obj
 0001:000d4ed0       ?destroyInstance@PvdMetaDataBinding@Vd@physx@@QEAAXAEAVPvdDataStream@pvdsdk@3@AEBVPxShape@3@AEBVPxRigidActor@3@@Z 00000001800d5ed0 f   PvdMetaDataPvdBinding.obj
 0001:000d52e0       ?sendAllProperties@PvdMetaDataBinding@Vd@physx@@QEAAXAEAVPvdDataStream@pvdsdk@3@AEBVPxArticulationJoint@3@@Z 00000001800d62e0 f   PvdMetaDataPvdBinding.obj
 0001:000d5370       ?updateDynamicActorsAndArticulations@PvdMetaDataBinding@Vd@physx@@QEAAXAEAVPvdDataStream@pvdsdk@3@PEBVPxScene@3@PEAVPvdVisualizer@23@@Z 00000001800d6370 f   PvdMetaDataPvdBinding.obj
 0001:000d5650       ?originShift@PvdMetaDataBinding@Vd@physx@@QEAAXAEAVPvdDataStream@pvdsdk@3@PEBVPxScene@3@VPxVec3@3@@Z 00000001800d6650 f   PvdMetaDataPvdBinding.obj
 0001:000d56a0       ?createInstance@PvdMetaDataBinding@Vd@physx@@QEAAXAEAVPvdDataStream@pvdsdk@3@AEBVPxParticleSystem@3@AEBVPxScene@3@@Z 00000001800d66a0 f   PvdMetaDataPvdBinding.obj
 0001:000d5970       ?sendAllProperties@PvdMetaDataBinding@Vd@physx@@QEAAXAEAVPvdDataStream@pvdsdk@3@AEBVPxParticleSystem@3@@Z 00000001800d6970 f   PvdMetaDataPvdBinding.obj
 0001:000d5a00       ?sendArrays@PvdMetaDataBinding@Vd@physx@@QEAAXAEAVPvdDataStream@pvdsdk@3@AEBVPxParticleSystem@3@AEAVPxParticleReadData@3@I@Z 00000001800d6a00 f   PvdMetaDataPvdBinding.obj
 0001:000d5b80       ?destroyInstance@PvdMetaDataBinding@Vd@physx@@QEAAXAEAVPvdDataStream@pvdsdk@3@AEBVPxParticleSystem@3@AEBVPxScene@3@@Z 00000001800d6b80 f   PvdMetaDataPvdBinding.obj
 0001:000d5bd0       ?createInstance@PvdMetaDataBinding@Vd@physx@@QEAAXAEAVPvdDataStream@pvdsdk@3@AEBVPxParticleFluid@3@AEBVPxScene@3@@Z 00000001800d6bd0 f   PvdMetaDataPvdBinding.obj
 0001:000d5f40       ?sendAllProperties@PvdMetaDataBinding@Vd@physx@@QEAAXAEAVPvdDataStream@pvdsdk@3@AEBVPxParticleFluid@3@@Z 00000001800d6f40 f   PvdMetaDataPvdBinding.obj
 0001:000d5fd0       ?sendArrays@PvdMetaDataBinding@Vd@physx@@QEAAXAEAVPvdDataStream@pvdsdk@3@AEBVPxParticleFluid@3@AEAVPxParticleFluidReadData@3@I@Z 00000001800d6fd0 f   PvdMetaDataPvdBinding.obj
 0001:000d61d0       ?destroyInstance@PvdMetaDataBinding@Vd@physx@@QEAAXAEAVPvdDataStream@pvdsdk@3@AEBVPxParticleFluid@3@AEBVPxScene@3@@Z 00000001800d71d0 f   PvdMetaDataPvdBinding.obj
 0001:000d6220       ?createInstance@PvdMetaDataBinding@Vd@physx@@QEAAXAEAVPvdDataStream@pvdsdk@3@AEBVPxClothFabric@3@AEBVPxPhysics@3@@Z 00000001800d7220 f   PvdMetaDataPvdBinding.obj
 0001:000d6460       ?sendAllProperties@PvdMetaDataBinding@Vd@physx@@QEAAXAEAVPvdDataStream@pvdsdk@3@AEBVPxClothFabric@3@@Z 00000001800d7460 f   PvdMetaDataPvdBinding.obj
 0001:000d6600       ?destroyInstance@PvdMetaDataBinding@Vd@physx@@QEAAXAEAVPvdDataStream@pvdsdk@3@AEBVPxClothFabric@3@AEBVPxPhysics@3@@Z 00000001800d7600 f   PvdMetaDataPvdBinding.obj
 0001:000d6650       ?createInstance@PvdMetaDataBinding@Vd@physx@@QEAAXAEAVPvdDataStream@pvdsdk@3@AEBVPxCloth@3@AEBVPxScene@3@AEBVPxPhysics@3@PEAVPsPvd@53@@Z 00000001800d7650 f   PvdMetaDataPvdBinding.obj
 0001:000d69f0       ?sendAllProperties@PvdMetaDataBinding@Vd@physx@@QEAAXAEAVPvdDataStream@pvdsdk@3@AEBVPxCloth@3@@Z 00000001800d79f0 f   PvdMetaDataPvdBinding.obj
 0001:000d6ee0       ?sendSimpleProperties@PvdMetaDataBinding@Vd@physx@@QEAAXAEAVPvdDataStream@pvdsdk@3@AEBVPxCloth@3@@Z 00000001800d7ee0 f   PvdMetaDataPvdBinding.obj
 0001:000d6f70       ?sendMotionConstraints@PvdMetaDataBinding@Vd@physx@@QEAAXAEAVPvdDataStream@pvdsdk@3@AEBVPxCloth@3@@Z 00000001800d7f70 f   PvdMetaDataPvdBinding.obj
 0001:000d7040       ?sendCollisionSpheres@PvdMetaDataBinding@Vd@physx@@QEAAXAEAVPvdDataStream@pvdsdk@3@AEBVPxCloth@3@_N@Z 00000001800d8040 f   PvdMetaDataPvdBinding.obj
 0001:000d7200       ?sendCollisionTriangles@PvdMetaDataBinding@Vd@physx@@QEAAXAEAVPvdDataStream@pvdsdk@3@AEBVPxCloth@3@@Z 00000001800d8200 f   PvdMetaDataPvdBinding.obj
 0001:000d7430       ?sendVirtualParticles@PvdMetaDataBinding@Vd@physx@@QEAAXAEAVPvdDataStream@pvdsdk@3@AEBVPxCloth@3@@Z 00000001800d8430 f   PvdMetaDataPvdBinding.obj
 0001:000d7590       ?sendSeparationConstraints@PvdMetaDataBinding@Vd@physx@@QEAAXAEAVPvdDataStream@pvdsdk@3@AEBVPxCloth@3@@Z 00000001800d8590 f   PvdMetaDataPvdBinding.obj
 0001:000d7670       ?sendRestPositions@PvdMetaDataBinding@Vd@physx@@QEAAXAEAVPvdDataStream@pvdsdk@3@AEBVPxCloth@3@@Z 00000001800d8670 f   PvdMetaDataPvdBinding.obj
 0001:000d7740       ?sendSelfCollisionIndices@PvdMetaDataBinding@Vd@physx@@QEAAXAEAVPvdDataStream@pvdsdk@3@AEBVPxCloth@3@@Z 00000001800d8740 f   PvdMetaDataPvdBinding.obj
 0001:000d7820       ?sendParticleAccelerations@PvdMetaDataBinding@Vd@physx@@QEAAXAEAVPvdDataStream@pvdsdk@3@AEBVPxCloth@3@@Z 00000001800d8820 f   PvdMetaDataPvdBinding.obj
 0001:000d78f0       ?updateCloths@PvdMetaDataBinding@Vd@physx@@QEAAXAEAVPvdDataStream@pvdsdk@3@AEBVPxScene@3@@Z 00000001800d88f0 f   PvdMetaDataPvdBinding.obj
 0001:000d7c60       ?destroyInstance@PvdMetaDataBinding@Vd@physx@@QEAAXAEAVPvdDataStream@pvdsdk@3@AEBVPxCloth@3@AEBVPxScene@3@@Z 00000001800d8c60 f   PvdMetaDataPvdBinding.obj
 0001:000d7ce0       ?createInstance@PvdMetaDataBinding@Vd@physx@@QEAAXAEAVPvdDataStream@pvdsdk@3@AEBVPxAggregate@3@AEBVPxScene@3@@Z 00000001800d8ce0 f   PvdMetaDataPvdBinding.obj
 0001:000d7df0       ?sendAllProperties@PvdMetaDataBinding@Vd@physx@@QEAAXAEAVPvdDataStream@pvdsdk@3@AEBVPxAggregate@3@@Z 00000001800d8df0 f   PvdMetaDataPvdBinding.obj
 0001:000d7e70       ?destroyInstance@PvdMetaDataBinding@Vd@physx@@QEAAXAEAVPvdDataStream@pvdsdk@3@AEBVPxAggregate@3@AEBVPxScene@3@@Z 00000001800d8e70 f   PvdMetaDataPvdBinding.obj
 0001:000d7ec0       ?detachAggregateActor@PvdMetaDataBinding@Vd@physx@@QEAAXAEAVPvdDataStream@pvdsdk@3@AEBVPxAggregate@3@AEBVPxActor@3@@Z 00000001800d8ec0 f   PvdMetaDataPvdBinding.obj
 0001:000d7ee0       ?attachAggregateActor@PvdMetaDataBinding@Vd@physx@@QEAAXAEAVPvdDataStream@pvdsdk@3@AEBVPxAggregate@3@AEBVPxActor@3@@Z 00000001800d8ee0 f   PvdMetaDataPvdBinding.obj
 0001:000d7f00       ??$registrarPhysicsObject@VPxConvexMeshGeometry@physx@@@PvdMetaDataBinding@Vd@physx@@QEAAXAEAVPvdDataStream@pvdsdk@2@AEBVPxConvexMeshGeometry@2@PEAVPsPvd@42@@Z 00000001800d8f00 f   PvdMetaDataPvdBinding.obj
 0001:000d7f60       ??$registrarPhysicsObject@VPxTriangleMeshGeometry@physx@@@PvdMetaDataBinding@Vd@physx@@QEAAXAEAVPvdDataStream@pvdsdk@2@AEBVPxTriangleMeshGeometry@2@PEAVPsPvd@42@@Z 00000001800d8f60 f   PvdMetaDataPvdBinding.obj
 0001:000d7fc0       ??$registrarPhysicsObject@VPxHeightFieldGeometry@physx@@@PvdMetaDataBinding@Vd@physx@@QEAAXAEAVPvdDataStream@pvdsdk@2@AEBVPxHeightFieldGeometry@2@PEAVPsPvd@42@@Z 00000001800d8fc0 f   PvdMetaDataPvdBinding.obj
 0001:000d80d0       ??RConvexMeshBuilder@Vd@physx@@QEAAXIM@Z 00000001800d90d0 f   PvdMetaDataPvdBinding.obj
 0001:000dc780       ??$?R$0KH@VPxCloth@physx@@UPxClothMotionConstraintConfig@1@@?$PvdPropertyFilter@UPvdClassInfoDefine@Vd@physx@@@Vd@physx@@QEAAXAEBU?$PxReadOnlyPropertyInfo@$0KH@VPxCloth@physx@@UPxClothMotionConstraintConfig@2@@2@I@Z 00000001800dd780 f i PvdMetaDataPvdBinding.obj
 0001:000dc9c0       ??$?R$0KH@VPxCloth@physx@@UPxClothMotionConstraintConfig@1@@?$PvdPropertyFilter@UPvdClassInfoValueStructDefine@Vd@physx@@@Vd@physx@@QEAAXAEBU?$PxReadOnlyPropertyInfo@$0KH@VPxCloth@physx@@UPxClothMotionConstraintConfig@2@@2@I@Z 00000001800dd9c0 f i PvdMetaDataPvdBinding.obj
 0001:000dcbc0       ??$addPropertyMessage@VPxArticulationLink@physx@@UPxArticulationLinkUpdateBlock@Vd@2@@PvdPropertyDefinitionHelper@pvdsdk@physx@@QEAAXXZ 00000001800ddbc0 f i PvdMetaDataPvdBinding.obj
 0001:000dcc40       ??$addPropertyMessage@VPxRigidDynamic@physx@@UPxRigidDynamicUpdateBlock@Vd@2@@PvdPropertyDefinitionHelper@pvdsdk@physx@@QEAAXXZ 00000001800ddc40 f i PvdMetaDataPvdBinding.obj
 0001:000dccc0       ??$addPropertyMessageArg@VPxTransform@physx@@@PvdPropertyDefinitionHelper@pvdsdk@physx@@QEAAXI@Z 00000001800ddcc0 f i PvdMetaDataPvdBinding.obj
 0001:000dcd10       ??$addPropertyMessageArg@VPxVec3@physx@@@PvdPropertyDefinitionHelper@pvdsdk@physx@@QEAAXI@Z 00000001800ddd10 f i PvdMetaDataPvdBinding.obj
 0001:000dcd60       ??$addPropertyMessageArg@_N@PvdPropertyDefinitionHelper@pvdsdk@physx@@QEAAXI@Z 00000001800ddd60 f i PvdMetaDataPvdBinding.obj
 0001:000de2b0       ??$createProperty@UPvdContact@Vd@physx@@I@PvdMetaDataStream@pvdsdk@physx@@QEAA?AW4Enum@PvdErrorType@12@PEBD0W43PropertyType@12@V?$DataRef@UNamedValue@pvdsdk@physx@@@12@@Z 00000001800df2b0 f i PvdMetaDataPvdBinding.obj
 0001:000de360       ??$createProperty@UPvdContact@Vd@physx@@M@PvdMetaDataStream@pvdsdk@physx@@QEAA?AW4Enum@PvdErrorType@12@PEBD0W43PropertyType@12@V?$DataRef@UNamedValue@pvdsdk@physx@@@12@@Z 00000001800df360 f i PvdMetaDataPvdBinding.obj
 0001:000de410       ??$createProperty@UPvdContact@Vd@physx@@UObjectRef@pvdsdk@3@@PvdMetaDataStream@pvdsdk@physx@@QEAA?AW4Enum@PvdErrorType@12@PEBD0W43PropertyType@12@V?$DataRef@UNamedValue@pvdsdk@physx@@@12@@Z 00000001800df410 f i PvdMetaDataPvdBinding.obj
 0001:000de4c0       ??$createProperty@UPvdContact@Vd@physx@@VPxVec3@3@@PvdMetaDataStream@pvdsdk@physx@@QEAA?AW4Enum@PvdErrorType@12@PEBD0W43PropertyType@12@V?$DataRef@UNamedValue@pvdsdk@physx@@@12@@Z 00000001800df4c0 f i PvdMetaDataPvdBinding.obj
 0001:000de570       ??$createProperty@UPvdHullPolygonData@Vd@physx@@G@PvdMetaDataStream@pvdsdk@physx@@QEAA?AW4Enum@PvdErrorType@12@PEBD0W43PropertyType@12@V?$DataRef@UNamedValue@pvdsdk@physx@@@12@@Z 00000001800df570 f i PvdMetaDataPvdBinding.obj
 0001:000de620       ??$createProperty@UPvdOverlap@Vd@physx@@I@PvdMetaDataStream@pvdsdk@physx@@QEAA?AW4Enum@PvdErrorType@12@PEBD0W43PropertyType@12@V?$DataRef@UNamedValue@pvdsdk@physx@@@12@@Z 00000001800df620 f i PvdMetaDataPvdBinding.obj
 0001:000de6d0       ??$createProperty@UPvdOverlap@Vd@physx@@PEBD@PvdMetaDataStream@pvdsdk@physx@@QEAA?AW4Enum@PvdErrorType@12@PEBD0W43PropertyType@12@V?$DataRef@UNamedValue@pvdsdk@physx@@@12@@Z 00000001800df6d0 f i PvdMetaDataPvdBinding.obj
 0001:000de780       ??$createProperty@UPvdOverlap@Vd@physx@@UPxFilterData@3@@PvdMetaDataStream@pvdsdk@physx@@QEAA?AW4Enum@PvdErrorType@12@PEBD0W43PropertyType@12@V?$DataRef@UNamedValue@pvdsdk@physx@@@12@@Z 00000001800df780 f i PvdMetaDataPvdBinding.obj
 0001:000de830       ??$createProperty@UPvdOverlap@Vd@physx@@VPxTransform@3@@PvdMetaDataStream@pvdsdk@physx@@QEAA?AW4Enum@PvdErrorType@12@PEBD0W43PropertyType@12@V?$DataRef@UNamedValue@pvdsdk@physx@@@12@@Z 00000001800df830 f i PvdMetaDataPvdBinding.obj
 0001:000de8e0       ??$createProperty@UPvdPositionAndRadius@Vd@physx@@M@PvdMetaDataStream@pvdsdk@physx@@QEAA?AW4Enum@PvdErrorType@12@PEBD0W43PropertyType@12@V?$DataRef@UNamedValue@pvdsdk@physx@@@12@@Z 00000001800df8e0 f i PvdMetaDataPvdBinding.obj
 0001:000de990       ??$createProperty@UPvdPositionAndRadius@Vd@physx@@VPxVec3@3@@PvdMetaDataStream@pvdsdk@physx@@QEAA?AW4Enum@PvdErrorType@12@PEBD0W43PropertyType@12@V?$DataRef@UNamedValue@pvdsdk@physx@@@12@@Z 00000001800df990 f i PvdMetaDataPvdBinding.obj
 0001:000dea40       ??$createProperty@UPvdRaycast@Vd@physx@@I@PvdMetaDataStream@pvdsdk@physx@@QEAA?AW4Enum@PvdErrorType@12@PEBD0W43PropertyType@12@V?$DataRef@UNamedValue@pvdsdk@physx@@@12@@Z 00000001800dfa40 f i PvdMetaDataPvdBinding.obj
 0001:000deaf0       ??$createProperty@UPvdRaycast@Vd@physx@@M@PvdMetaDataStream@pvdsdk@physx@@QEAA?AW4Enum@PvdErrorType@12@PEBD0W43PropertyType@12@V?$DataRef@UNamedValue@pvdsdk@physx@@@12@@Z 00000001800dfaf0 f i PvdMetaDataPvdBinding.obj
 0001:000deba0       ??$createProperty@UPvdRaycast@Vd@physx@@PEBD@PvdMetaDataStream@pvdsdk@physx@@QEAA?AW4Enum@PvdErrorType@12@PEBD0W43PropertyType@12@V?$DataRef@UNamedValue@pvdsdk@physx@@@12@@Z 00000001800dfba0 f i PvdMetaDataPvdBinding.obj
 0001:000dec50       ??$createProperty@UPvdRaycast@Vd@physx@@UPxFilterData@3@@PvdMetaDataStream@pvdsdk@physx@@QEAA?AW4Enum@PvdErrorType@12@PEBD0W43PropertyType@12@V?$DataRef@UNamedValue@pvdsdk@physx@@@12@@Z 00000001800dfc50 f i PvdMetaDataPvdBinding.obj
 0001:000ded00       ??$createProperty@UPvdRaycast@Vd@physx@@VPxVec3@3@@PvdMetaDataStream@pvdsdk@physx@@QEAA?AW4Enum@PvdErrorType@12@PEBD0W43PropertyType@12@V?$DataRef@UNamedValue@pvdsdk@physx@@@12@@Z 00000001800dfd00 f i PvdMetaDataPvdBinding.obj
 0001:000dedb0       ??$createProperty@UPvdSqHit@Vd@physx@@I@PvdMetaDataStream@pvdsdk@physx@@QEAA?AW4Enum@PvdErrorType@12@PEBD0W43PropertyType@12@V?$DataRef@UNamedValue@pvdsdk@physx@@@12@@Z 00000001800dfdb0 f i PvdMetaDataPvdBinding.obj
 0001:000dee60       ??$createProperty@UPvdSqHit@Vd@physx@@M@PvdMetaDataStream@pvdsdk@physx@@QEAA?AW4Enum@PvdErrorType@12@PEBD0W43PropertyType@12@V?$DataRef@UNamedValue@pvdsdk@physx@@@12@@Z 00000001800dfe60 f i PvdMetaDataPvdBinding.obj
 0001:000def10       ??$createProperty@UPvdSqHit@Vd@physx@@UObjectRef@pvdsdk@3@@PvdMetaDataStream@pvdsdk@physx@@QEAA?AW4Enum@PvdErrorType@12@PEBD0W43PropertyType@12@V?$DataRef@UNamedValue@pvdsdk@physx@@@12@@Z 00000001800dff10 f i PvdMetaDataPvdBinding.obj
 0001:000defc0       ??$createProperty@UPvdSqHit@Vd@physx@@VPxVec3@3@@PvdMetaDataStream@pvdsdk@physx@@QEAA?AW4Enum@PvdErrorType@12@PEBD0W43PropertyType@12@V?$DataRef@UNamedValue@pvdsdk@physx@@@12@@Z 00000001800dffc0 f i PvdMetaDataPvdBinding.obj
 0001:000df070       ??$createProperty@UPvdSweep@Vd@physx@@I@PvdMetaDataStream@pvdsdk@physx@@QEAA?AW4Enum@PvdErrorType@12@PEBD0W43PropertyType@12@V?$DataRef@UNamedValue@pvdsdk@physx@@@12@@Z 00000001800e0070 f i PvdMetaDataPvdBinding.obj
 0001:000df120       ??$createProperty@UPvdSweep@Vd@physx@@M@PvdMetaDataStream@pvdsdk@physx@@QEAA?AW4Enum@PvdErrorType@12@PEBD0W43PropertyType@12@V?$DataRef@UNamedValue@pvdsdk@physx@@@12@@Z 00000001800e0120 f i PvdMetaDataPvdBinding.obj
 0001:000df1d0       ??$createProperty@UPvdSweep@Vd@physx@@PEBD@PvdMetaDataStream@pvdsdk@physx@@QEAA?AW4Enum@PvdErrorType@12@PEBD0W43PropertyType@12@V?$DataRef@UNamedValue@pvdsdk@physx@@@12@@Z 00000001800e01d0 f i PvdMetaDataPvdBinding.obj
 0001:000df280       ??$createProperty@UPvdSweep@Vd@physx@@VPxVec3@3@@PvdMetaDataStream@pvdsdk@physx@@QEAA?AW4Enum@PvdErrorType@12@PEBD0W43PropertyType@12@V?$DataRef@UNamedValue@pvdsdk@physx@@@12@@Z 00000001800e0280 f i PvdMetaDataPvdBinding.obj
 0001:000df330       ??$createProperty@UPxHeightFieldSample@physx@@E@PvdMetaDataStream@pvdsdk@physx@@QEAA?AW4Enum@PvdErrorType@12@PEBD0W43PropertyType@12@V?$DataRef@UNamedValue@pvdsdk@physx@@@12@@Z 00000001800e0330 f i PvdMetaDataPvdBinding.obj
 0001:000df3e0       ??$createProperty@VPxAggregate@physx@@UObjectRef@pvdsdk@2@@PvdMetaDataStream@pvdsdk@physx@@QEAA?AW4Enum@PvdErrorType@12@PEBD0W43PropertyType@12@V?$DataRef@UNamedValue@pvdsdk@physx@@@12@@Z 00000001800e03e0 f i PvdMetaDataPvdBinding.obj
 0001:000df490       ??$createProperty@VPxArticulation@physx@@UObjectRef@pvdsdk@2@@PvdMetaDataStream@pvdsdk@physx@@QEAA?AW4Enum@PvdErrorType@12@PEBD0W43PropertyType@12@V?$DataRef@UNamedValue@pvdsdk@physx@@@12@@Z 00000001800e0490 f i PvdMetaDataPvdBinding.obj
 0001:000df540       ??$createProperty@VPxArticulationJoint@physx@@UObjectRef@pvdsdk@2@@PvdMetaDataStream@pvdsdk@physx@@QEAA?AW4Enum@PvdErrorType@12@PEBD0W43PropertyType@12@V?$DataRef@UNamedValue@pvdsdk@physx@@@12@@Z 00000001800e0540 f i PvdMetaDataPvdBinding.obj
 0001:000df5f0       ??$createProperty@VPxArticulationLink@physx@@UObjectRef@pvdsdk@2@@PvdMetaDataStream@pvdsdk@physx@@QEAA?AW4Enum@PvdErrorType@12@PEBD0W43PropertyType@12@V?$DataRef@UNamedValue@pvdsdk@physx@@@12@@Z 00000001800e05f0 f i PvdMetaDataPvdBinding.obj
 0001:000df6a0       ??$createProperty@VPxCloth@physx@@I@PvdMetaDataStream@pvdsdk@physx@@QEAA?AW4Enum@PvdErrorType@12@PEBD0W43PropertyType@12@V?$DataRef@UNamedValue@pvdsdk@physx@@@12@@Z 00000001800e06a0 f i PvdMetaDataPvdBinding.obj
 0001:000df750       ??$createProperty@VPxCloth@physx@@UObjectRef@pvdsdk@2@@PvdMetaDataStream@pvdsdk@physx@@QEAA?AW4Enum@PvdErrorType@12@PEBD0W43PropertyType@12@V?$DataRef@UNamedValue@pvdsdk@physx@@@12@@Z 00000001800e0750 f i PvdMetaDataPvdBinding.obj
 0001:000df800       ??$createProperty@VPxCloth@physx@@UPvdPositionAndRadius@Vd@2@@PvdMetaDataStream@pvdsdk@physx@@QEAA?AW4Enum@PvdErrorType@12@PEBD0W43PropertyType@12@V?$DataRef@UNamedValue@pvdsdk@physx@@@12@@Z 00000001800e0800 f i PvdMetaDataPvdBinding.obj
 0001:000df8b0       ??$createProperty@VPxCloth@physx@@UPxClothParticle@2@@PvdMetaDataStream@pvdsdk@physx@@QEAA?AW4Enum@PvdErrorType@12@PEBD0W43PropertyType@12@V?$DataRef@UNamedValue@pvdsdk@physx@@@12@@Z 00000001800e08b0 f i PvdMetaDataPvdBinding.obj
 0001:000df960       ??$createProperty@VPxCloth@physx@@VPxVec3@2@@PvdMetaDataStream@pvdsdk@physx@@QEAA?AW4Enum@PvdErrorType@12@PEBD0W43PropertyType@12@V?$DataRef@UNamedValue@pvdsdk@physx@@@12@@Z 00000001800e0960 f i PvdMetaDataPvdBinding.obj
 0001:000dfa10       ??$createProperty@VPxCloth@physx@@VPxVec4@2@@PvdMetaDataStream@pvdsdk@physx@@QEAA?AW4Enum@PvdErrorType@12@PEBD0W43PropertyType@12@V?$DataRef@UNamedValue@pvdsdk@physx@@@12@@Z 00000001800e0a10 f i PvdMetaDataPvdBinding.obj
 0001:000dfac0       ??$createProperty@VPxClothFabric@physx@@UObjectRef@pvdsdk@2@@PvdMetaDataStream@pvdsdk@physx@@QEAA?AW4Enum@PvdErrorType@12@PEBD0W43PropertyType@12@V?$DataRef@UNamedValue@pvdsdk@physx@@@12@@Z 00000001800e0ac0 f i PvdMetaDataPvdBinding.obj
 0001:000dfb70       ??$createProperty@VPxClothFabric@physx@@UPxClothFabricPhase@2@@PvdMetaDataStream@pvdsdk@physx@@QEAA?AW4Enum@PvdErrorType@12@PEBD0W43PropertyType@12@V?$DataRef@UNamedValue@pvdsdk@physx@@@12@@Z 00000001800e0b70 f i PvdMetaDataPvdBinding.obj
 0001:000dfc20       ??$createProperty@VPxConvexMesh@physx@@VPxVec3@2@@PvdMetaDataStream@pvdsdk@physx@@QEAA?AW4Enum@PvdErrorType@12@PEBD0W43PropertyType@12@V?$DataRef@UNamedValue@pvdsdk@physx@@@12@@Z 00000001800e0c20 f i PvdMetaDataPvdBinding.obj
 0001:000dfcd0       ??$createProperty@VPxParticleFluid@physx@@I@PvdMetaDataStream@pvdsdk@physx@@QEAA?AW4Enum@PvdErrorType@12@PEBD0W43PropertyType@12@V?$DataRef@UNamedValue@pvdsdk@physx@@@12@@Z 00000001800e0cd0 f i PvdMetaDataPvdBinding.obj
 0001:000dfd80       ??$createProperty@VPxParticleSystem@physx@@I@PvdMetaDataStream@pvdsdk@physx@@QEAA?AW4Enum@PvdErrorType@12@PEBD0W43PropertyType@12@V?$DataRef@UNamedValue@pvdsdk@physx@@@12@@Z 00000001800e0d80 f i PvdMetaDataPvdBinding.obj
 0001:000dfe30       ??$createProperty@VPxRigidActor@physx@@UObjectRef@pvdsdk@2@@PvdMetaDataStream@pvdsdk@physx@@QEAA?AW4Enum@PvdErrorType@12@PEBD0W43PropertyType@12@V?$DataRef@UNamedValue@pvdsdk@physx@@@12@@Z 00000001800e0e30 f i PvdMetaDataPvdBinding.obj
 0001:000dfee0       ??$createProperty@VPxScene@physx@@UObjectRef@pvdsdk@2@@PvdMetaDataStream@pvdsdk@physx@@QEAA?AW4Enum@PvdErrorType@12@PEBD0W43PropertyType@12@V?$DataRef@UNamedValue@pvdsdk@physx@@@12@@Z 00000001800e0ee0 f i PvdMetaDataPvdBinding.obj
 0001:000dff90       ??$createProperty@VPxScene@physx@@UPvdOverlap@Vd@2@@PvdMetaDataStream@pvdsdk@physx@@QEAA?AW4Enum@PvdErrorType@12@PEBD0W43PropertyType@12@V?$DataRef@UNamedValue@pvdsdk@physx@@@12@@Z 00000001800e0f90 f i PvdMetaDataPvdBinding.obj
 0001:000e0040       ??$createProperty@VPxScene@physx@@UPvdRaycast@Vd@2@@PvdMetaDataStream@pvdsdk@physx@@QEAA?AW4Enum@PvdErrorType@12@PEBD0W43PropertyType@12@V?$DataRef@UNamedValue@pvdsdk@physx@@@12@@Z 00000001800e1040 f i PvdMetaDataPvdBinding.obj
 0001:000e00f0       ??$createProperty@VPxScene@physx@@UPvdSqHit@Vd@2@@PvdMetaDataStream@pvdsdk@physx@@QEAA?AW4Enum@PvdErrorType@12@PEBD0W43PropertyType@12@V?$DataRef@UNamedValue@pvdsdk@physx@@@12@@Z 00000001800e10f0 f i PvdMetaDataPvdBinding.obj
 0001:000e01a0       ??$createProperty@VPxScene@physx@@UPvdSweep@Vd@2@@PvdMetaDataStream@pvdsdk@physx@@QEAA?AW4Enum@PvdErrorType@12@PEBD0W43PropertyType@12@V?$DataRef@UNamedValue@pvdsdk@physx@@@12@@Z 00000001800e11a0 f i PvdMetaDataPvdBinding.obj
 0001:000e0250       ??$createProperty@VPxScene@physx@@UPxFilterData@2@@PvdMetaDataStream@pvdsdk@physx@@QEAA?AW4Enum@PvdErrorType@12@PEBD0W43PropertyType@12@V?$DataRef@UNamedValue@pvdsdk@physx@@@12@@Z 00000001800e1250 f i PvdMetaDataPvdBinding.obj
 0001:000e0300       ??$createProperty@VPxScene@physx@@VPxTransform@2@@PvdMetaDataStream@pvdsdk@physx@@QEAA?AW4Enum@PvdErrorType@12@PEBD0W43PropertyType@12@V?$DataRef@UNamedValue@pvdsdk@physx@@@12@@Z 00000001800e1300 f i PvdMetaDataPvdBinding.obj
 0001:000e03b0       ??$createProperty@VPxShape@physx@@UObjectRef@pvdsdk@2@@PvdMetaDataStream@pvdsdk@physx@@QEAA?AW4Enum@PvdErrorType@12@PEBD0W43PropertyType@12@V?$DataRef@UNamedValue@pvdsdk@physx@@@12@@Z 00000001800e13b0 f i PvdMetaDataPvdBinding.obj
 0001:000e0460       ??$createProperty@VPxTriangleMesh@physx@@I@PvdMetaDataStream@pvdsdk@physx@@QEAA?AW4Enum@PvdErrorType@12@PEBD0W43PropertyType@12@V?$DataRef@UNamedValue@pvdsdk@physx@@@12@@Z 00000001800e1460 f i PvdMetaDataPvdBinding.obj
 0001:000e14e0       ??$handleBuffer@$0GJJ@VPxParticleReadData@physx@@VPxVec3@2@$00@?$ParticleFluidUpdater@VPxParticleFluidReadData@physx@@@Vd@physx@@QEAAXAEBU?$PxBufferPropertyInfo@$0GJJ@VPxParticleReadData@physx@@V?$PxStrideIterator@$$CBVPxVec3@physx@@@2@$00@12@UNamespacedName@pvdsdk@2@@Z 00000001800e24e0 f i PvdMetaDataPvdBinding.obj
 0001:000e17d0       ??$handleBuffer@$0GJJ@VPxParticleReadData@physx@@VPxVec3@2@$00@?$ParticleFluidUpdater@VPxParticleReadData@physx@@@Vd@physx@@QEAAXAEBU?$PxBufferPropertyInfo@$0GJJ@VPxParticleReadData@physx@@V?$PxStrideIterator@$$CBVPxVec3@physx@@@2@$00@12@UNamespacedName@pvdsdk@2@@Z 00000001800e27d0 f i PvdMetaDataPvdBinding.obj
 0001:000e1ac0       ??$handleBuffer@$0GJK@VPxParticleReadData@physx@@VPxVec3@2@$01@?$ParticleFluidUpdater@VPxParticleFluidReadData@physx@@@Vd@physx@@QEAAXAEBU?$PxBufferPropertyInfo@$0GJK@VPxParticleReadData@physx@@V?$PxStrideIterator@$$CBVPxVec3@physx@@@2@$01@12@UNamespacedName@pvdsdk@2@@Z 00000001800e2ac0 f i PvdMetaDataPvdBinding.obj
 0001:000e1db0       ??$handleBuffer@$0GJK@VPxParticleReadData@physx@@VPxVec3@2@$01@?$ParticleFluidUpdater@VPxParticleReadData@physx@@@Vd@physx@@QEAAXAEBU?$PxBufferPropertyInfo@$0GJK@VPxParticleReadData@physx@@V?$PxStrideIterator@$$CBVPxVec3@physx@@@2@$01@12@UNamespacedName@pvdsdk@2@@Z 00000001800e2db0 f i PvdMetaDataPvdBinding.obj
 0001:000e20a0       ??$handleBuffer@$0GJL@VPxParticleReadData@physx@@M$03@?$ParticleFluidUpdater@VPxParticleFluidReadData@physx@@@Vd@physx@@QEAAXAEBU?$PxBufferPropertyInfo@$0GJL@VPxParticleReadData@physx@@V?$PxStrideIterator@$$CBM@2@$03@12@UNamespacedName@pvdsdk@2@@Z 00000001800e30a0 f i PvdMetaDataPvdBinding.obj
 0001:000e22e0       ??$handleBuffer@$0GJL@VPxParticleReadData@physx@@M$03@?$ParticleFluidUpdater@VPxParticleReadData@physx@@@Vd@physx@@QEAAXAEBU?$PxBufferPropertyInfo@$0GJL@VPxParticleReadData@physx@@V?$PxStrideIterator@$$CBM@2@$03@12@UNamespacedName@pvdsdk@2@@Z 00000001800e32e0 f i PvdMetaDataPvdBinding.obj
 0001:000e2520       ??$handleBuffer@$0GJM@VPxParticleReadData@physx@@VPxVec3@2@$0BA@@?$ParticleFluidUpdater@VPxParticleFluidReadData@physx@@@Vd@physx@@QEAAXAEBU?$PxBufferPropertyInfo@$0GJM@VPxParticleReadData@physx@@V?$PxStrideIterator@$$CBVPxVec3@physx@@@2@$0BA@@12@UNamespacedName@pvdsdk@2@@Z 00000001800e3520 f i PvdMetaDataPvdBinding.obj
 0001:000e2810       ??$handleBuffer@$0GJM@VPxParticleReadData@physx@@VPxVec3@2@$0BA@@?$ParticleFluidUpdater@VPxParticleReadData@physx@@@Vd@physx@@QEAAXAEBU?$PxBufferPropertyInfo@$0GJM@VPxParticleReadData@physx@@V?$PxStrideIterator@$$CBVPxVec3@physx@@@2@$0BA@@12@UNamespacedName@pvdsdk@2@@Z 00000001800e3810 f i PvdMetaDataPvdBinding.obj
 0001:000e2b00       ??$handleBuffer@$0GJO@VPxParticleFluidReadData@physx@@M$0EA@@?$ParticleFluidUpdater@VPxParticleFluidReadData@physx@@@Vd@physx@@QEAAXAEBU?$PxBufferPropertyInfo@$0GJO@VPxParticleFluidReadData@physx@@V?$PxStrideIterator@$$CBM@2@$0EA@@12@UNamespacedName@pvdsdk@2@@Z 00000001800e3b00 f i PvdMetaDataPvdBinding.obj
 0001:000e2d40       ??$makePvdPropertyFilter@UPvdClassInfoDefine@Vd@physx@@@Vd@physx@@YA?AU?$PvdPropertyFilter@UPvdClassInfoDefine@Vd@physx@@@01@UPvdClassInfoDefine@01@@Z 00000001800e3d40 f i PvdMetaDataPvdBinding.obj
 0001:000e2d70       ??$registrarPhysicsObject@VPxBoxGeometry@physx@@@PvdMetaDataBinding@Vd@physx@@QEAAXAEAVPvdDataStream@pvdsdk@2@AEBVPxBoxGeometry@2@PEAVPsPvd@42@@Z 00000001800e3d70 f i PvdMetaDataPvdBinding.obj
 0001:000e2d80       ??$registrarPhysicsObject@VPxCapsuleGeometry@physx@@@PvdMetaDataBinding@Vd@physx@@QEAAXAEAVPvdDataStream@pvdsdk@2@AEBVPxCapsuleGeometry@2@PEAVPsPvd@42@@Z 00000001800e3d80 f i PvdMetaDataPvdBinding.obj
 0001:000e2d90       ??$registrarPhysicsObject@VPxSphereGeometry@physx@@@PvdMetaDataBinding@Vd@physx@@QEAAXAEAVPvdDataStream@pvdsdk@2@AEBVPxSphereGeometry@2@PEAVPsPvd@42@@Z 00000001800e3d90 f i PvdMetaDataPvdBinding.obj
 0001:000e3520       ??$visitAllProperties@VPxAggregate@physx@@U?$PvdPropertyFilter@UPvdClassInfoValueStructDefine@Vd@physx@@@Vd@2@@physx@@YAIU?$PvdPropertyFilter@UPvdClassInfoValueStructDefine@Vd@physx@@@Vd@0@@Z 00000001800e4520 f i PvdMetaDataPvdBinding.obj
 0001:000e3740       ??$visitAllProperties@VPxClothFabric@physx@@U?$PvdPropertyFilter@UPvdClassInfoValueStructDefine@Vd@physx@@@Vd@2@@physx@@YAIU?$PvdPropertyFilter@UPvdClassInfoValueStructDefine@Vd@physx@@@Vd@0@@Z 00000001800e4740 f i PvdMetaDataPvdBinding.obj
 0001:000e3970       ??$visitBaseProperties@U?$PvdPropertyFilter@UPvdClassInfoValueStructDefine@Vd@physx@@@Vd@physx@@@PxRigidBodyGeneratedInfo@physx@@QEBAIU?$PvdPropertyFilter@UPvdClassInfoValueStructDefine@Vd@physx@@@Vd@1@I@Z 00000001800e4970 f i PvdMetaDataPvdBinding.obj
 0001:000e3a00       ??$visitInstanceProperties@U?$PvdPropertyFilter@UPvdClassInfoDefine@Vd@physx@@@Vd@physx@@@PxActorGeneratedInfo@physx@@QEBAIU?$PvdPropertyFilter@UPvdClassInfoDefine@Vd@physx@@@Vd@1@I@Z 00000001800e4a00 f i PvdMetaDataPvdBinding.obj
 0001:000e3d40       ??$visitInstanceProperties@U?$PvdPropertyFilter@UPvdClassInfoDefine@Vd@physx@@@Vd@physx@@@PxArticulationGeneratedInfo@physx@@QEBAIU?$PvdPropertyFilter@UPvdClassInfoDefine@Vd@physx@@@Vd@1@I@Z 00000001800e4d40 f i PvdMetaDataPvdBinding.obj
 0001:000e43c0       ??$visitInstanceProperties@U?$PvdPropertyFilter@UPvdClassInfoDefine@Vd@physx@@@Vd@physx@@@PxArticulationJointGeneratedInfo@physx@@QEBAIU?$PvdPropertyFilter@UPvdClassInfoDefine@Vd@physx@@@Vd@1@I@Z 00000001800e53c0 f i PvdMetaDataPvdBinding.obj
 0001:000e4eb0       ??$visitInstanceProperties@U?$PvdPropertyFilter@UPvdClassInfoDefine@Vd@physx@@@Vd@physx@@@PxClothFabricGeneratedInfo@physx@@QEBAIU?$PvdPropertyFilter@UPvdClassInfoDefine@Vd@physx@@@Vd@1@I@Z 00000001800e5eb0 f i PvdMetaDataPvdBinding.obj
 0001:000e51d0       ??$visitInstanceProperties@U?$PvdPropertyFilter@UPvdClassInfoDefine@Vd@physx@@@Vd@physx@@@PxClothGeneratedInfo@physx@@QEBAIU?$PvdPropertyFilter@UPvdClassInfoDefine@Vd@physx@@@Vd@1@I@Z 00000001800e61d0 f i PvdMetaDataPvdBinding.obj
 0001:000e62c0       ??$visitInstanceProperties@U?$PvdPropertyFilter@UPvdClassInfoDefine@Vd@physx@@@Vd@physx@@@PxClothStretchConfigGeneratedInfo@physx@@QEBAIU?$PvdPropertyFilter@UPvdClassInfoDefine@Vd@physx@@@Vd@1@I@Z 00000001800e72c0 f i PvdMetaDataPvdBinding.obj
 0001:000e6510       ??$visitInstanceProperties@U?$PvdPropertyFilter@UPvdClassInfoDefine@Vd@physx@@@Vd@physx@@@PxClothTetherConfigGeneratedInfo@physx@@QEBAIU?$PvdPropertyFilter@UPvdClassInfoDefine@Vd@physx@@@Vd@1@I@Z 00000001800e7510 f i PvdMetaDataPvdBinding.obj
 0001:000e6680       ??$visitInstanceProperties@U?$PvdPropertyFilter@UPvdClassInfoDefine@Vd@physx@@@Vd@physx@@@PxConstraintGeneratedInfo@physx@@QEBAIU?$PvdPropertyFilter@UPvdClassInfoDefine@Vd@physx@@@Vd@1@I@Z 00000001800e7680 f i PvdMetaDataPvdBinding.obj
 0001:000e6b80       ??$visitInstanceProperties@U?$PvdPropertyFilter@UPvdClassInfoDefine@Vd@physx@@@Vd@physx@@@PxConvexMeshGeometryGeneratedInfo@physx@@QEBAIU?$PvdPropertyFilter@UPvdClassInfoDefine@Vd@physx@@@Vd@1@I@Z 00000001800e7b80 f i PvdMetaDataPvdBinding.obj
 0001:000e6e70       ??$visitInstanceProperties@U?$PvdPropertyFilter@UPvdClassInfoDefine@Vd@physx@@@Vd@physx@@@PxHeightFieldDescGeneratedInfo@physx@@QEBAIU?$PvdPropertyFilter@UPvdClassInfoDefine@Vd@physx@@@Vd@1@I@Z 00000001800e7e70 f i PvdMetaDataPvdBinding.obj
 0001:000e72f0       ??$visitInstanceProperties@U?$PvdPropertyFilter@UPvdClassInfoDefine@Vd@physx@@@Vd@physx@@@PxHeightFieldGeometryGeneratedInfo@physx@@QEBAIU?$PvdPropertyFilter@UPvdClassInfoDefine@Vd@physx@@@Vd@1@I@Z 00000001800e82f0 f i PvdMetaDataPvdBinding.obj
 0001:000e7610       ??$visitInstanceProperties@U?$PvdPropertyFilter@UPvdClassInfoDefine@Vd@physx@@@Vd@physx@@@PxMaterialGeneratedInfo@physx@@QEBAIU?$PvdPropertyFilter@UPvdClassInfoDefine@Vd@physx@@@Vd@1@I@Z 00000001800e8610 f i PvdMetaDataPvdBinding.obj
 0001:000e7b20       ??$visitInstanceProperties@U?$PvdPropertyFilter@UPvdClassInfoDefine@Vd@physx@@@Vd@physx@@@PxMeshScaleGeneratedInfo@physx@@QEBAIU?$PvdPropertyFilter@UPvdClassInfoDefine@Vd@physx@@@Vd@1@I@Z 00000001800e8b20 f i PvdMetaDataPvdBinding.obj
 0001:000e7c90       ??$visitInstanceProperties@U?$PvdPropertyFilter@UPvdClassInfoDefine@Vd@physx@@@Vd@physx@@@PxParticleBaseGeneratedInfo@physx@@QEBAIU?$PvdPropertyFilter@UPvdClassInfoDefine@Vd@physx@@@Vd@1@I@Z 00000001800e8c90 f i PvdMetaDataPvdBinding.obj
 0001:000e8500       ??$visitInstanceProperties@U?$PvdPropertyFilter@UPvdClassInfoDefine@Vd@physx@@@Vd@physx@@@PxParticleFluidGeneratedInfo@physx@@QEBAIU?$PvdPropertyFilter@UPvdClassInfoDefine@Vd@physx@@@Vd@1@I@Z 00000001800e9500 f i PvdMetaDataPvdBinding.obj
 0001:000e8760       ??$visitInstanceProperties@U?$PvdPropertyFilter@UPvdClassInfoDefine@Vd@physx@@@Vd@physx@@@PxRigidBodyGeneratedInfo@physx@@QEBAIU?$PvdPropertyFilter@UPvdClassInfoDefine@Vd@physx@@@Vd@1@I@Z 00000001800e9760 f i PvdMetaDataPvdBinding.obj
 0001:000e8d90       ??$visitInstanceProperties@U?$PvdPropertyFilter@UPvdClassInfoDefine@Vd@physx@@@Vd@physx@@@PxRigidDynamicGeneratedInfo@physx@@QEBAIU?$PvdPropertyFilter@UPvdClassInfoDefine@Vd@physx@@@Vd@1@I@Z 00000001800e9d90 f i PvdMetaDataPvdBinding.obj
 0001:000e9470       ??$visitInstanceProperties@U?$PvdPropertyFilter@UPvdClassInfoDefine@Vd@physx@@@Vd@physx@@@PxSceneDescGeneratedInfo@physx@@QEBAIU?$PvdPropertyFilter@UPvdClassInfoDefine@Vd@physx@@@Vd@1@I@Z 00000001800ea470 f i PvdMetaDataPvdBinding.obj
 0001:000ea3b0       ??$visitInstanceProperties@U?$PvdPropertyFilter@UPvdClassInfoDefine@Vd@physx@@@Vd@physx@@@PxSceneLimitsGeneratedInfo@physx@@QEBAIU?$PvdPropertyFilter@UPvdClassInfoDefine@Vd@physx@@@Vd@1@I@Z 00000001800eb3b0 f i PvdMetaDataPvdBinding.obj
 0001:000ea870       ??$visitInstanceProperties@U?$PvdPropertyFilter@UPvdClassInfoDefine@Vd@physx@@@Vd@physx@@@PxShapeGeneratedInfo@physx@@QEBAIU?$PvdPropertyFilter@UPvdClassInfoDefine@Vd@physx@@@Vd@1@I@Z 00000001800eb870 f i PvdMetaDataPvdBinding.obj
 0001:000eae60       ??$visitInstanceProperties@U?$PvdPropertyFilter@UPvdClassInfoDefine@Vd@physx@@@Vd@physx@@@PxSimulationStatisticsGeneratedInfo@physx@@QEBAIU?$PvdPropertyFilter@UPvdClassInfoDefine@Vd@physx@@@Vd@1@I@Z 00000001800ebe60 f i PvdMetaDataPvdBinding.obj
 0001:000ec1f0       ??$visitInstanceProperties@U?$PvdPropertyFilter@UPvdClassInfoDefine@Vd@physx@@@Vd@physx@@@PxTolerancesScaleGeneratedInfo@physx@@QEBAIU?$PvdPropertyFilter@UPvdClassInfoDefine@Vd@physx@@@Vd@1@I@Z 00000001800ed1f0 f i PvdMetaDataPvdBinding.obj
 0001:000ec440       ??$visitInstanceProperties@U?$PvdPropertyFilter@UPvdClassInfoDefine@Vd@physx@@@Vd@physx@@@PxTriangleMeshGeometryGeneratedInfo@physx@@QEBAIU?$PvdPropertyFilter@UPvdClassInfoDefine@Vd@physx@@@Vd@1@I@Z 00000001800ed440 f i PvdMetaDataPvdBinding.obj
 0001:000ec6a0       ??$visitInstanceProperties@U?$PvdPropertyFilter@UPvdClassInfoDefine@Vd@physx@@@Vd@physx@@@PxgDynamicsMemoryConfigGeneratedInfo@physx@@QEBAIU?$PvdPropertyFilter@UPvdClassInfoDefine@Vd@physx@@@Vd@1@I@Z 00000001800ed6a0 f i PvdMetaDataPvdBinding.obj
 0001:000ecae0       ??$visitInstanceProperties@U?$PvdPropertyFilter@UPvdClassInfoValueStructDefine@Vd@physx@@@Vd@physx@@@PxActorGeneratedInfo@physx@@QEBAIU?$PvdPropertyFilter@UPvdClassInfoValueStructDefine@Vd@physx@@@Vd@1@I@Z 00000001800edae0 f i PvdMetaDataPvdBinding.obj
 0001:000ecdc0       ??$visitInstanceProperties@U?$PvdPropertyFilter@UPvdClassInfoValueStructDefine@Vd@physx@@@Vd@physx@@@PxArticulationGeneratedInfo@physx@@QEBAIU?$PvdPropertyFilter@UPvdClassInfoValueStructDefine@Vd@physx@@@Vd@1@I@Z 00000001800eddc0 f i PvdMetaDataPvdBinding.obj
 0001:000ed450       ??$visitInstanceProperties@U?$PvdPropertyFilter@UPvdClassInfoValueStructDefine@Vd@physx@@@Vd@physx@@@PxArticulationJointGeneratedInfo@physx@@QEBAIU?$PvdPropertyFilter@UPvdClassInfoValueStructDefine@Vd@physx@@@Vd@1@I@Z 00000001800ee450 f i PvdMetaDataPvdBinding.obj
 0001:000edef0       ??$visitInstanceProperties@U?$PvdPropertyFilter@UPvdClassInfoValueStructDefine@Vd@physx@@@Vd@physx@@@PxClothGeneratedInfo@physx@@QEBAIU?$PvdPropertyFilter@UPvdClassInfoValueStructDefine@Vd@physx@@@Vd@1@I@Z 00000001800eeef0 f i PvdMetaDataPvdBinding.obj
 0001:000eef40       ??$visitInstanceProperties@U?$PvdPropertyFilter@UPvdClassInfoValueStructDefine@Vd@physx@@@Vd@physx@@@PxClothStretchConfigGeneratedInfo@physx@@QEBAIU?$PvdPropertyFilter@UPvdClassInfoValueStructDefine@Vd@physx@@@Vd@1@I@Z 00000001800eff40 f i PvdMetaDataPvdBinding.obj
 0001:000ef1a0       ??$visitInstanceProperties@U?$PvdPropertyFilter@UPvdClassInfoValueStructDefine@Vd@physx@@@Vd@physx@@@PxConstraintGeneratedInfo@physx@@QEBAIU?$PvdPropertyFilter@UPvdClassInfoValueStructDefine@Vd@physx@@@Vd@1@I@Z 00000001800f01a0 f i PvdMetaDataPvdBinding.obj
 0001:000ef640       ??$visitInstanceProperties@U?$PvdPropertyFilter@UPvdClassInfoValueStructDefine@Vd@physx@@@Vd@physx@@@PxConvexMeshGeometryGeneratedInfo@physx@@QEBAIU?$PvdPropertyFilter@UPvdClassInfoValueStructDefine@Vd@physx@@@Vd@1@I@Z 00000001800f0640 f i PvdMetaDataPvdBinding.obj
 0001:000ef8e0       ??$visitInstanceProperties@U?$PvdPropertyFilter@UPvdClassInfoValueStructDefine@Vd@physx@@@Vd@physx@@@PxHeightFieldDescGeneratedInfo@physx@@QEBAIU?$PvdPropertyFilter@UPvdClassInfoValueStructDefine@Vd@physx@@@Vd@1@I@Z 00000001800f08e0 f i PvdMetaDataPvdBinding.obj
 0001:000efcf0       ??$visitInstanceProperties@U?$PvdPropertyFilter@UPvdClassInfoValueStructDefine@Vd@physx@@@Vd@physx@@@PxHeightFieldGeometryGeneratedInfo@physx@@QEBAIU?$PvdPropertyFilter@UPvdClassInfoValueStructDefine@Vd@physx@@@Vd@1@I@Z 00000001800f0cf0 f i PvdMetaDataPvdBinding.obj
 0001:000effd0       ??$visitInstanceProperties@U?$PvdPropertyFilter@UPvdClassInfoValueStructDefine@Vd@physx@@@Vd@physx@@@PxMaterialGeneratedInfo@physx@@QEBAIU?$PvdPropertyFilter@UPvdClassInfoValueStructDefine@Vd@physx@@@Vd@1@I@Z 00000001800f0fd0 f i PvdMetaDataPvdBinding.obj
 0001:000f0430       ??$visitInstanceProperties@U?$PvdPropertyFilter@UPvdClassInfoValueStructDefine@Vd@physx@@@Vd@physx@@@PxMeshScaleGeneratedInfo@physx@@QEBAIU?$PvdPropertyFilter@UPvdClassInfoValueStructDefine@Vd@physx@@@Vd@1@I@Z 00000001800f1430 f i PvdMetaDataPvdBinding.obj
 0001:000f0590       ??$visitInstanceProperties@U?$PvdPropertyFilter@UPvdClassInfoValueStructDefine@Vd@physx@@@Vd@physx@@@PxParticleBaseGeneratedInfo@physx@@QEBAIU?$PvdPropertyFilter@UPvdClassInfoValueStructDefine@Vd@physx@@@Vd@1@I@Z 00000001800f1590 f i PvdMetaDataPvdBinding.obj
 0001:000f0d90       ??$visitInstanceProperties@U?$PvdPropertyFilter@UPvdClassInfoValueStructDefine@Vd@physx@@@Vd@physx@@@PxParticleFluidGeneratedInfo@physx@@QEBAIU?$PvdPropertyFilter@UPvdClassInfoValueStructDefine@Vd@physx@@@Vd@1@I@Z 00000001800f1d90 f i PvdMetaDataPvdBinding.obj
 0001:000f1010       ??$visitInstanceProperties@U?$PvdPropertyFilter@UPvdClassInfoValueStructDefine@Vd@physx@@@Vd@physx@@@PxRigidActorGeneratedInfo@physx@@QEBAIU?$PvdPropertyFilter@UPvdClassInfoValueStructDefine@Vd@physx@@@Vd@1@I@Z 00000001800f2010 f i PvdMetaDataPvdBinding.obj
 0001:000f10d0       ??$visitInstanceProperties@U?$PvdPropertyFilter@UPvdClassInfoValueStructDefine@Vd@physx@@@Vd@physx@@@PxRigidBodyGeneratedInfo@physx@@QEBAIU?$PvdPropertyFilter@UPvdClassInfoValueStructDefine@Vd@physx@@@Vd@1@I@Z 00000001800f20d0 f i PvdMetaDataPvdBinding.obj
 0001:000f16c0       ??$visitInstanceProperties@U?$PvdPropertyFilter@UPvdClassInfoValueStructDefine@Vd@physx@@@Vd@physx@@@PxRigidDynamicGeneratedInfo@physx@@QEBAIU?$PvdPropertyFilter@UPvdClassInfoValueStructDefine@Vd@physx@@@Vd@1@I@Z 00000001800f26c0 f i PvdMetaDataPvdBinding.obj
 0001:000f1d50       ??$visitInstanceProperties@U?$PvdPropertyFilter@UPvdClassInfoValueStructDefine@Vd@physx@@@Vd@physx@@@PxSceneDescGeneratedInfo@physx@@QEBAIU?$PvdPropertyFilter@UPvdClassInfoValueStructDefine@Vd@physx@@@Vd@1@I@Z 00000001800f2d50 f i PvdMetaDataPvdBinding.obj
 0001:000f2b30       ??$visitInstanceProperties@U?$PvdPropertyFilter@UPvdClassInfoValueStructDefine@Vd@physx@@@Vd@physx@@@PxSceneLimitsGeneratedInfo@physx@@QEBAIU?$PvdPropertyFilter@UPvdClassInfoValueStructDefine@Vd@physx@@@Vd@1@I@Z 00000001800f3b30 f i PvdMetaDataPvdBinding.obj
 0001:000f2ff0       ??$visitInstanceProperties@U?$PvdPropertyFilter@UPvdClassInfoValueStructDefine@Vd@physx@@@Vd@physx@@@PxShapeGeneratedInfo@physx@@QEBAIU?$PvdPropertyFilter@UPvdClassInfoValueStructDefine@Vd@physx@@@Vd@1@I@Z 00000001800f3ff0 f i PvdMetaDataPvdBinding.obj
 0001:000f3560       ??$visitInstanceProperties@U?$PvdPropertyFilter@UPvdClassInfoValueStructDefine@Vd@physx@@@Vd@physx@@@PxSimulationStatisticsGeneratedInfo@physx@@QEBAIU?$PvdPropertyFilter@UPvdClassInfoValueStructDefine@Vd@physx@@@Vd@1@I@Z 00000001800f4560 f i PvdMetaDataPvdBinding.obj
 0001:000f48d0       ??$visitInstanceProperties@U?$PvdPropertyFilter@UPvdClassInfoValueStructDefine@Vd@physx@@@Vd@physx@@@PxTolerancesScaleGeneratedInfo@physx@@QEBAIU?$PvdPropertyFilter@UPvdClassInfoValueStructDefine@Vd@physx@@@Vd@1@I@Z 00000001800f58d0 f i PvdMetaDataPvdBinding.obj
 0001:000f4b40       ??$visitInstanceProperties@U?$PvdPropertyFilter@UPvdClassInfoValueStructDefine@Vd@physx@@@Vd@physx@@@PxTriangleMeshGeometryGeneratedInfo@physx@@QEBAIU?$PvdPropertyFilter@UPvdClassInfoValueStructDefine@Vd@physx@@@Vd@1@I@Z 00000001800f5b40 f i PvdMetaDataPvdBinding.obj
 0001:000f4d60       ??$visitInstanceProperties@U?$PvdPropertyFilter@UPvdClassInfoValueStructDefine@Vd@physx@@@Vd@physx@@@PxgDynamicsMemoryConfigGeneratedInfo@physx@@QEBAIU?$PvdPropertyFilter@UPvdClassInfoValueStructDefine@Vd@physx@@@Vd@1@I@Z 00000001800f5d60 f i PvdMetaDataPvdBinding.obj
 0001:000f51a0       ??$visitInstanceProperties@U?$PvdPropertyFilter@UPxClothFabricCollectionOperator@Vd@physx@@@Vd@physx@@@PxClothFabricGeneratedInfo@physx@@QEBAIU?$PvdPropertyFilter@UPxClothFabricCollectionOperator@Vd@physx@@@Vd@1@I@Z 00000001800f61a0 f i PvdMetaDataPvdBinding.obj
 0001:000f5400       ??$visitParticleFluidBufferProperties@U?$PvdPropertyFilter@UPvdClassInfoDefine@Vd@physx@@@Vd@physx@@@Vd@physx@@YAXU?$PvdPropertyFilter@UPvdClassInfoDefine@Vd@physx@@@01@@Z 00000001800f6400 f i PvdMetaDataPvdBinding.obj
 0001:000f5490       ??$visitParticleSystemBufferProperties@U?$PvdPropertyFilter@U?$ParticleFluidUpdater@VPxParticleFluidReadData@physx@@@Vd@physx@@@Vd@physx@@@Vd@physx@@YAXU?$PvdPropertyFilter@U?$ParticleFluidUpdater@VPxParticleFluidReadData@physx@@@Vd@physx@@@01@@Z 00000001800f6490 f i PvdMetaDataPvdBinding.obj
 0001:000f57b0       ??$visitParticleSystemBufferProperties@U?$PvdPropertyFilter@U?$ParticleFluidUpdater@VPxParticleReadData@physx@@@Vd@physx@@@Vd@physx@@@Vd@physx@@YAXU?$PvdPropertyFilter@U?$ParticleFluidUpdater@VPxParticleReadData@physx@@@Vd@physx@@@01@@Z 00000001800f67b0 f i PvdMetaDataPvdBinding.obj
 0001:000f5ad0       ??$visitParticleSystemBufferProperties@U?$PvdPropertyFilter@UPvdClassInfoDefine@Vd@physx@@@Vd@physx@@@Vd@physx@@YAXU?$PvdPropertyFilter@UPvdClassInfoDefine@Vd@physx@@@01@@Z 00000001800f6ad0 f i PvdMetaDataPvdBinding.obj
 0001:000f5d70       ??0?$ScopedPropertyValueSender@UPvdOverlap@Vd@physx@@$0CA@U123@U?$NullConverter@UPvdOverlap@Vd@physx@@@23@@Vd@physx@@QEAA@AEAVPvdDataStream@pvdsdk@2@PEBXPEBD@Z 00000001800f6d70 f i PvdMetaDataPvdBinding.obj
 0001:000f6030       ??0?$ScopedPropertyValueSender@UPvdRaycast@Vd@physx@@$0CA@U123@U?$NullConverter@UPvdRaycast@Vd@physx@@@23@@Vd@physx@@QEAA@AEAVPvdDataStream@pvdsdk@2@PEBXPEBD@Z 00000001800f7030 f i PvdMetaDataPvdBinding.obj
 0001:000f62f0       ??0?$ScopedPropertyValueSender@UPvdSqHit@Vd@physx@@$0CA@U123@U?$NullConverter@UPvdSqHit@Vd@physx@@@23@@Vd@physx@@QEAA@AEAVPvdDataStream@pvdsdk@2@PEBXPEBD@Z 00000001800f72f0 f i PvdMetaDataPvdBinding.obj
 0001:000f66f0       ??0?$ScopedPropertyValueSender@UPxFilterData@physx@@$0CA@U12@U?$NullConverter@UPxFilterData@physx@@@Vd@2@@Vd@physx@@QEAA@AEAVPvdDataStream@pvdsdk@2@PEBXPEBD@Z 00000001800f76f0 f i PvdMetaDataPvdBinding.obj
 0001:000f6980       ??0PvdContact@Vd@physx@@QEAA@XZ 00000001800f7980 f i PvdMetaDataPvdBinding.obj
 0001:000f6990       ??0PvdOverlap@Vd@physx@@QEAA@XZ 00000001800f7990 f i PvdMetaDataPvdBinding.obj
 0001:000f69b0       ??0PvdRaycast@Vd@physx@@QEAA@XZ 00000001800f79b0 f i PvdMetaDataPvdBinding.obj
 0001:000f69d0       ??0PvdSqHit@Vd@physx@@QEAA@XZ 00000001800f79d0 f i PvdMetaDataPvdBinding.obj
 0001:000f6a10       ??0PvdSweep@Vd@physx@@QEAA@XZ 00000001800f7a10 f i PvdMetaDataPvdBinding.obj
 0001:000f6a20       ??0PxFilterData@physx@@QEAA@XZ 00000001800f7a20 f i PvdMetaDataPvdBinding.obj
 0001:000f6a30       ??1PvdCommand@PvdInstanceDataStream@pvdsdk@physx@@UEAA@XZ 00000001800f7a30 f i PvdMetaDataPvdBinding.obj
 0001:000f6a40       ??_GChangeOjectRefCmd@Vd@physx@@UEAAPEAXI@Z 00000001800f7a40 f i PvdMetaDataPvdBinding.obj
 0001:000f6a40       ??_EChangeOjectRefCmd@Vd@physx@@UEAAPEAXI@Z 00000001800f7a40 f i PvdMetaDataPvdBinding.obj
 0001:000f6a80       ??_GPvdCommand@PvdInstanceDataStream@pvdsdk@physx@@UEAAPEAXI@Z 00000001800f7a80 f i PvdMetaDataPvdBinding.obj
 0001:000f6a80       ??_EPvdCommand@PvdInstanceDataStream@pvdsdk@physx@@UEAAPEAXI@Z 00000001800f7a80 f i PvdMetaDataPvdBinding.obj
 0001:000f6e90       ?allocate@?$Array@PEAVPxShape@physx@@V?$InlineAllocator@$0CI@VNamedAllocator@shdfnd@physx@@@shdfnd@2@@shdfnd@physx@@IEAAPEAPEAVPxShape@3@I@Z 00000001800f7e90 f i PvdMetaDataPvdBinding.obj
 0001:000f6f20       ?append@?$ScopedPropertyValueSender@UPvdSqHit@Vd@physx@@$0CA@U123@U?$NullConverter@UPvdSqHit@Vd@physx@@@23@@Vd@physx@@QEAAXAEBUPvdSqHit@23@@Z 00000001800f7f20 f i PvdMetaDataPvdBinding.obj
 0001:000f7010       ?canRun@ChangeOjectRefCmd@Vd@physx@@UEAA_NAEAVPvdInstanceDataStream@pvdsdk@3@@Z 00000001800f8010 f i PvdMetaDataPvdBinding.obj
 0001:000f7030       ?canRun@PvdCommand@PvdInstanceDataStream@pvdsdk@physx@@UEAA_NAEAV234@@Z 00000001800f8030 f i PvdMetaDataPvdBinding.obj
 0001:000f7160       ?copy@?$Array@VPxVec4@physx@@VNamedAllocator@shdfnd@2@@shdfnd@physx@@KAXPEAVPxVec4@3@0PEBV43@@Z 00000001800f8160 f i PvdMetaDataPvdBinding.obj
 0001:000f7290       ?create@?$HashBase@PEBVPxRigidActor@physx@@PEBV12@U?$Hash@PEBVPxRigidActor@physx@@@shdfnd@2@UGetKey@?$HashSetBase@PEBVPxRigidActor@physx@@U?$Hash@PEBVPxRigidActor@physx@@@shdfnd@2@VNonTrackingAllocator@42@$0A@@internal@42@VNonTrackingAllocator@42@$0A@@internal@shdfnd@physx@@QEAAPEAPEBVPxRigidActor@4@AEBQEBV54@AEA_N@Z 00000001800f8290 f i PvdMetaDataPvdBinding.obj
 0001:000f74a0       ?create@?$HashBase@V?$Pair@QEBVPxShape@physx@@PEAV?$HashSet@PEBVPxRigidActor@physx@@U?$Hash@PEBVPxRigidActor@physx@@@shdfnd@2@VNonTrackingAllocator@42@@shdfnd@2@@shdfnd@physx@@PEBVPxShape@3@U?$Hash@PEBVPxShape@physx@@@23@UGetKey@?$HashMapBase@PEBVPxShape@physx@@PEAV?$HashSet@PEBVPxRigidActor@physx@@U?$Hash@PEBVPxRigidActor@physx@@@shdfnd@2@VNonTrackingAllocator@42@@shdfnd@2@U?$Hash@PEBVPxShape@physx@@@42@VNonTrackingAllocator@42@@internal@23@VNonTrackingAllocator@23@$00@internal@shdfnd@physx@@QEAAPEAV?$Pair@QEBVPxShape@physx@@PEAV?$HashSet@PEBVPxRigidActor@physx@@U?$Hash@PEBVPxRigidActor@physx@@@shdfnd@2@VNonTrackingAllocator@42@@shdfnd@2@@34@AEBQEBVPxShape@4@AEA_N@Z 00000001800f84a0 f i PvdMetaDataPvdBinding.obj
 0001:000f76a0       ?erase@?$HashBase@V?$Pair@QEBVPxShape@physx@@PEAV?$HashSet@PEBVPxRigidActor@physx@@U?$Hash@PEBVPxRigidActor@physx@@@shdfnd@2@VNonTrackingAllocator@42@@shdfnd@2@@shdfnd@physx@@PEBVPxShape@3@U?$Hash@PEBVPxShape@physx@@@23@UGetKey@?$HashMapBase@PEBVPxShape@physx@@PEAV?$HashSet@PEBVPxRigidActor@physx@@U?$Hash@PEBVPxRigidActor@physx@@@shdfnd@2@VNonTrackingAllocator@42@@shdfnd@2@U?$Hash@PEBVPxShape@physx@@@42@VNonTrackingAllocator@42@@internal@23@VNonTrackingAllocator@23@$00@internal@shdfnd@physx@@QEAA_NAEBQEBVPxShape@4@@Z 00000001800f86a0 f i PvdMetaDataPvdBinding.obj
 0001:000f78a0       ?getCollisionNormals@Vd@physx@@YA?AV?$PxStrideIterator@$$CBVPxVec3@physx@@@2@PEBVPxParticleReadData@2@@Z 00000001800f88a0 f i PvdMetaDataPvdBinding.obj
 0001:000f78b0       ?getDensities@Vd@physx@@YA?AV?$PxStrideIterator@$$CBM@2@PEBVPxParticleFluidReadData@2@@Z 00000001800f88b0 f i PvdMetaDataPvdBinding.obj
 0001:000f78c0       ?getFlags@Vd@physx@@YA?AV?$PxStrideIterator@$$CBV?$PxFlags@W4Enum@PxParticleFlag@physx@@G@physx@@@2@PEBVPxParticleReadData@2@@Z 00000001800f88c0 f i PvdMetaDataPvdBinding.obj
 0001:000f78d0       ?getPositions@Vd@physx@@YA?AV?$PxStrideIterator@$$CBVPxVec3@physx@@@2@PEBVPxParticleReadData@2@@Z 00000001800f88d0 f i PvdMetaDataPvdBinding.obj
 0001:000f78e0       ?getRestOffsets@Vd@physx@@YA?AV?$PxStrideIterator@$$CBM@2@PEBVPxParticleReadData@2@@Z 00000001800f88e0 f i PvdMetaDataPvdBinding.obj
 0001:000f78f0       ?getVelocities@Vd@physx@@YA?AV?$PxStrideIterator@$$CBVPxVec3@physx@@@2@PEBVPxParticleReadData@2@@Z 00000001800f88f0 f i PvdMetaDataPvdBinding.obj
 0001:000f7900       ?growAndPushBack@?$Array@GVNamedAllocator@shdfnd@physx@@@shdfnd@physx@@IEAAAEAGAEBG@Z 00000001800f8900 f i PvdMetaDataPvdBinding.obj
 0001:000f7b60       ?growAndPushBack@?$Array@VPxVec3@physx@@VNamedAllocator@shdfnd@2@@shdfnd@physx@@IEAAAEAVPxVec3@3@AEBV43@@Z 00000001800f8b60 f i PvdMetaDataPvdBinding.obj
 0001:000f7d50       ?growAndPushBack@?$Array@VPxVec4@physx@@VNamedAllocator@shdfnd@2@@shdfnd@physx@@IEAAAEAVPxVec4@3@AEBV43@@Z 00000001800f8d50 f i PvdMetaDataPvdBinding.obj
 0001:000f7e70       ?recreate@?$Array@PEAVPxArticulationLink@physx@@VNamedAllocator@shdfnd@2@@shdfnd@physx@@IEAAXI@Z 00000001800f8e70 f i PvdMetaDataPvdBinding.obj
 0001:000f7f80       ?recreate@?$Array@PEAVPxShape@physx@@V?$InlineAllocator@$0CI@VNamedAllocator@shdfnd@physx@@@shdfnd@2@@shdfnd@physx@@IEAAXI@Z 00000001800f8f80 f i PvdMetaDataPvdBinding.obj
 0001:000f8050       ?recreate@?$Array@VPxVec4@physx@@VNamedAllocator@shdfnd@2@@shdfnd@physx@@IEAAXI@Z 00000001800f9050 f i PvdMetaDataPvdBinding.obj
 0001:000f8300       ?reserveInternal@?$HashBase@PEBVPxRigidActor@physx@@PEBV12@U?$Hash@PEBVPxRigidActor@physx@@@shdfnd@2@UGetKey@?$HashSetBase@PEBVPxRigidActor@physx@@U?$Hash@PEBVPxRigidActor@physx@@@shdfnd@2@VNonTrackingAllocator@42@$0A@@internal@42@VNonTrackingAllocator@42@$0A@@internal@shdfnd@physx@@AEAAXI@Z 00000001800f9300 f i PvdMetaDataPvdBinding.obj
 0001:000f87b0       ?reserveInternal@?$HashBase@V?$Pair@QEBVPxShape@physx@@PEAV?$HashSet@PEBVPxRigidActor@physx@@U?$Hash@PEBVPxRigidActor@physx@@@shdfnd@2@VNonTrackingAllocator@42@@shdfnd@2@@shdfnd@physx@@PEBVPxShape@3@U?$Hash@PEBVPxShape@physx@@@23@UGetKey@?$HashMapBase@PEBVPxShape@physx@@PEAV?$HashSet@PEBVPxRigidActor@physx@@U?$Hash@PEBVPxRigidActor@physx@@@shdfnd@2@VNonTrackingAllocator@42@@shdfnd@2@U?$Hash@PEBVPxShape@physx@@@42@VNonTrackingAllocator@42@@internal@23@VNonTrackingAllocator@23@$00@internal@shdfnd@physx@@AEAAXI@Z 00000001800f97b0 f i PvdMetaDataPvdBinding.obj
 0001:000f8a10       ?resize@?$Array@PEAVPxArticulationLink@physx@@VNamedAllocator@shdfnd@2@@shdfnd@physx@@QEAAXIAEBQEAVPxArticulationLink@3@@Z 00000001800f9a10 f i PvdMetaDataPvdBinding.obj
 0001:000f8b20       ?resize@?$Array@PEAVPxShape@physx@@V?$InlineAllocator@$0CI@VNamedAllocator@shdfnd@physx@@@shdfnd@2@@shdfnd@physx@@QEAAXIAEBQEAVPxShape@3@@Z 00000001800f9b20 f i PvdMetaDataPvdBinding.obj
 0001:000f8c30       ?run@ChangeOjectRefCmd@Vd@physx@@UEAAXAEAVPvdInstanceDataStream@pvdsdk@3@@Z 00000001800f9c30 f i PvdMetaDataPvdBinding.obj
 0001:000f8cc0       ?run@PvdCommand@PvdInstanceDataStream@pvdsdk@physx@@UEAAXAEAV234@@Z 00000001800f9cc0 f i PvdMetaDataPvdBinding.obj
 0001:000fa0a0       ??0PvdPhysicsClient@Vd@physx@@QEAA@PEAVPsPvd@pvdsdk@2@@Z 00000001800fb0a0 f   PvdPhysicsClient.obj
 0001:000fa100       ??1PvdPhysicsClient@Vd@physx@@UEAA@XZ 00000001800fb100 f   PvdPhysicsClient.obj
 0001:000fa170       ?isConnected@PvdPhysicsClient@Vd@physx@@UEBA_NXZ 00000001800fb170 f   PvdPhysicsClient.obj
 0001:000fa180       ?onPvdConnected@PvdPhysicsClient@Vd@physx@@UEAAXXZ 00000001800fb180 f   PvdPhysicsClient.obj
 0001:000fa1c0       ?onPvdDisconnected@PvdPhysicsClient@Vd@physx@@UEAAXXZ 00000001800fb1c0 f   PvdPhysicsClient.obj
 0001:000fa200       ?flush@PvdPhysicsClient@Vd@physx@@UEAAXXZ 00000001800fb200 f   PvdPhysicsClient.obj
 0001:000fa210       ?getDataStream@PvdPhysicsClient@Vd@physx@@UEAAPEAVPvdDataStream@pvdsdk@3@XZ 00000001800fb210 f   PvdPhysicsClient.obj
 0001:000fa220       ?getMetaDataBinding@PvdPhysicsClient@Vd@physx@@QEAAPEAVPvdMetaDataBinding@23@XZ 00000001800fb220 f   PvdPhysicsClient.obj
 0001:000fa230       ?getUserRender@PvdPhysicsClient@Vd@physx@@UEAAPEAVPvdUserRenderer@pvdsdk@3@XZ 00000001800fb230 f   PvdPhysicsClient.obj
 0001:000fa240       ?sendEntireSDK@PvdPhysicsClient@Vd@physx@@QEAAXXZ 00000001800fb240 f   PvdPhysicsClient.obj
 0001:000fa730       ?destroyPvdInstance@PvdPhysicsClient@Vd@physx@@QEAAXPEBVPxPhysics@3@@Z 00000001800fb730 f   PvdPhysicsClient.obj
 0001:000fa750       ?onGuMeshFactoryBufferRelease@PvdPhysicsClient@Vd@physx@@UEAAXPEBVPxBase@3@G@Z 00000001800fb750 f   PvdPhysicsClient.obj
 0001:000fa820       ?onNpFactoryBufferRelease@PvdPhysicsClient@Vd@physx@@UEAAXAEAVPxClothFabric@3@@Z 00000001800fb820 f   PvdPhysicsClient.obj
 0001:000fa880       ?reportError@PvdPhysicsClient@Vd@physx@@UEAAXW4Enum@PxErrorCode@3@PEBD1H@Z 00000001800fb880 f   PvdPhysicsClient.obj
 0001:000fa8a0       ?createPvdInstance@PvdPhysicsClient@Vd@physx@@AEAAXPEBVPxTriangleMesh@3@@Z 00000001800fb8a0 f   PvdPhysicsClient.obj
 0001:000fa8e0       ?destroyPvdInstance@PvdPhysicsClient@Vd@physx@@AEAAXPEBVPxTriangleMesh@3@@Z 00000001800fb8e0 f   PvdPhysicsClient.obj
 0001:000fa920       ?createPvdInstance@PvdPhysicsClient@Vd@physx@@AEAAXPEBVPxConvexMesh@3@@Z 00000001800fb920 f   PvdPhysicsClient.obj
 0001:000fa960       ?destroyPvdInstance@PvdPhysicsClient@Vd@physx@@AEAAXPEBVPxConvexMesh@3@@Z 00000001800fb960 f   PvdPhysicsClient.obj
 0001:000fa9a0       ?createPvdInstance@PvdPhysicsClient@Vd@physx@@AEAAXPEBVPxHeightField@3@@Z 00000001800fb9a0 f   PvdPhysicsClient.obj
 0001:000fa9e0       ?destroyPvdInstance@PvdPhysicsClient@Vd@physx@@AEAAXPEBVPxHeightField@3@@Z 00000001800fb9e0 f   PvdPhysicsClient.obj
 0001:000faa20       ?createPvdInstance@PvdPhysicsClient@Vd@physx@@AEAAXPEBVPxMaterial@3@@Z 00000001800fba20 f   PvdPhysicsClient.obj
 0001:000faa60       ?destroyPvdInstance@PvdPhysicsClient@Vd@physx@@AEAAXPEBVPxMaterial@3@@Z 00000001800fba60 f   PvdPhysicsClient.obj
 0001:000faaa0       ?updatePvdProperties@PvdPhysicsClient@Vd@physx@@AEAAXPEBVPxMaterial@3@@Z 00000001800fbaa0 f   PvdPhysicsClient.obj
 0001:000faac0       ?createPvdInstance@PvdPhysicsClient@Vd@physx@@AEAAXPEBVPxClothFabric@3@@Z 00000001800fbac0 f   PvdPhysicsClient.obj
 0001:000fab00       ?destroyPvdInstance@PvdPhysicsClient@Vd@physx@@AEAAXPEBVPxClothFabric@3@@Z 00000001800fbb00 f   PvdPhysicsClient.obj
 0001:000fade0       ??1NpFactoryListener@physx@@MEAA@XZ 00000001800fbde0 f i PvdPhysicsClient.obj
 0001:000fadf0       ??1PxErrorCallback@physx@@UEAA@XZ 00000001800fbdf0 f i PvdPhysicsClient.obj
 0001:000fae00       ??_EPvdPhysicsClient@Vd@physx@@W7EAAPEAXI@Z 00000001800fbe00 f i PvdPhysicsClient.obj
 0001:000fae0c       ??_EPvdPhysicsClient@Vd@physx@@WBA@EAAPEAXI@Z 00000001800fbe0c f i PvdPhysicsClient.obj
 0001:000fae20       ??_GNpFactoryListener@physx@@MEAAPEAXI@Z 00000001800fbe20 f i PvdPhysicsClient.obj
 0001:000fae20       ??_ENpFactoryListener@physx@@MEAAPEAXI@Z 00000001800fbe20 f i PvdPhysicsClient.obj
 0001:000fae60       ??_GPvdPhysicsClient@Vd@physx@@UEAAPEAXI@Z 00000001800fbe60 f i PvdPhysicsClient.obj
 0001:000fae60       ??_EPvdPhysicsClient@Vd@physx@@UEAAPEAXI@Z 00000001800fbe60 f i PvdPhysicsClient.obj
 0001:000faf40       ??_GPxErrorCallback@physx@@UEAAPEAXI@Z 00000001800fbf40 f i PvdPhysicsClient.obj
 0001:000faf40       ??_EPxErrorCallback@physx@@UEAAPEAXI@Z 00000001800fbf40 f i PvdPhysicsClient.obj
 0001:000faf80       ?recreate@?$Array@PEAVPxClothFabric@physx@@VNamedAllocator@shdfnd@2@@shdfnd@physx@@IEAAXI@Z 00000001800fbf80 f i PvdPhysicsClient.obj
 0001:000fb090       ?recreate@?$Array@PEAVPxConvexMesh@physx@@VNamedAllocator@shdfnd@2@@shdfnd@physx@@IEAAXI@Z 00000001800fc090 f i PvdPhysicsClient.obj
 0001:000fb1a0       ?recreate@?$Array@PEAVPxHeightField@physx@@VNamedAllocator@shdfnd@2@@shdfnd@physx@@IEAAXI@Z 00000001800fc1a0 f i PvdPhysicsClient.obj
 0001:000fb2b0       ?recreate@?$Array@PEAVPxMaterial@physx@@VNamedAllocator@shdfnd@2@@shdfnd@physx@@IEAAXI@Z 00000001800fc2b0 f i PvdPhysicsClient.obj
 0001:000fb3c0       ?recreate@?$Array@PEAVPxTriangleMesh@physx@@VNamedAllocator@shdfnd@2@@shdfnd@physx@@IEAAXI@Z 00000001800fc3c0 f i PvdPhysicsClient.obj
 0001:000fb4d0       ?resize@?$Array@PEAVPxClothFabric@physx@@VNamedAllocator@shdfnd@2@@shdfnd@physx@@QEAAXIAEBQEAVPxClothFabric@3@@Z 00000001800fc4d0 f i PvdPhysicsClient.obj
 0001:000fb5e0       ?resize@?$Array@PEAVPxConvexMesh@physx@@VNamedAllocator@shdfnd@2@@shdfnd@physx@@QEAAXIAEBQEAVPxConvexMesh@3@@Z 00000001800fc5e0 f i PvdPhysicsClient.obj
 0001:000fb6f0       ?resize@?$Array@PEAVPxHeightField@physx@@VNamedAllocator@shdfnd@2@@shdfnd@physx@@QEAAXIAEBQEAVPxHeightField@3@@Z 00000001800fc6f0 f i PvdPhysicsClient.obj
 0001:000fb800       ?resize@?$Array@PEAVPxMaterial@physx@@VNamedAllocator@shdfnd@2@@shdfnd@physx@@QEAAXIAEBQEAVPxMaterial@3@@Z 00000001800fc800 f i PvdPhysicsClient.obj
 0001:000fb910       ?resize@?$Array@PEAVPxTriangleMesh@physx@@VNamedAllocator@shdfnd@2@@shdfnd@physx@@QEAAXIAEBQEAVPxTriangleMesh@3@@Z 00000001800fc910 f i PvdPhysicsClient.obj
 0001:000fba20       ??0PxPhysicsGeneratedValues@physx@@QEAA@PEBVPxPhysics@1@@Z 00000001800fca20 f   PxAutoGeneratedMetaDataObjects.obj
 0001:000fba50       ??0PxPhysicsGeneratedInfo@physx@@QEAA@XZ 00000001800fca50 f   PxAutoGeneratedMetaDataObjects.obj
 0001:000fbc00       ??0PxMaterialGeneratedValues@physx@@QEAA@PEBVPxMaterial@1@@Z 00000001800fcc00 f   PxAutoGeneratedMetaDataObjects.obj
 0001:000fbca0       ??0PxMaterialGeneratedInfo@physx@@QEAA@XZ 00000001800fcca0 f   PxAutoGeneratedMetaDataObjects.obj
 0001:000fbe40       ??0PxActorGeneratedValues@physx@@QEAA@PEBVPxActor@1@@Z 00000001800fce40 f   PxAutoGeneratedMetaDataObjects.obj
 0001:000fbed0       ??0PxActorGeneratedInfo@physx@@QEAA@XZ 00000001800fced0 f   PxAutoGeneratedMetaDataObjects.obj
 0001:000fc030       ??0PxRigidActorGeneratedValues@physx@@QEAA@PEBVPxRigidActor@1@@Z 00000001800fd030 f   PxAutoGeneratedMetaDataObjects.obj
 0001:000fc070       ??0PxRigidActorGeneratedInfo@physx@@QEAA@XZ 00000001800fd070 f   PxAutoGeneratedMetaDataObjects.obj
 0001:000fc130       ??0PxRigidBodyGeneratedValues@physx@@QEAA@PEBVPxRigidBody@1@@Z 00000001800fd130 f   PxAutoGeneratedMetaDataObjects.obj
 0001:000fc230       ??0PxRigidBodyGeneratedInfo@physx@@QEAA@XZ 00000001800fd230 f   PxAutoGeneratedMetaDataObjects.obj
 0001:000fc470       ??0PxRigidDynamicGeneratedValues@physx@@QEAA@PEBVPxRigidDynamic@1@@Z 00000001800fd470 f   PxAutoGeneratedMetaDataObjects.obj
 0001:000fc580       ??0PxRigidDynamicGeneratedInfo@physx@@QEAA@XZ 00000001800fd580 f   PxAutoGeneratedMetaDataObjects.obj
 0001:000fc7e0       ??0PxRigidStaticGeneratedValues@physx@@QEAA@PEBVPxRigidStatic@1@@Z 00000001800fd7e0 f   PxAutoGeneratedMetaDataObjects.obj
 0001:000fc830       ??0PxRigidStaticGeneratedInfo@physx@@QEAA@XZ 00000001800fd830 f   PxAutoGeneratedMetaDataObjects.obj
 0001:000fc880       ??0PxArticulationLinkGeneratedValues@physx@@QEAA@PEBVPxArticulationLink@1@@Z 00000001800fd880 f   PxAutoGeneratedMetaDataObjects.obj
 0001:000fc8d0       ??0PxArticulationLinkGeneratedInfo@physx@@QEAA@XZ 00000001800fd8d0 f   PxAutoGeneratedMetaDataObjects.obj
 0001:000fc970       ??0PxArticulationJointGeneratedValues@physx@@QEAA@PEBVPxArticulationJoint@1@@Z 00000001800fd970 f   PxAutoGeneratedMetaDataObjects.obj
 0001:000fcac0       ??0PxArticulationJointGeneratedInfo@physx@@QEAA@XZ 00000001800fdac0 f   PxAutoGeneratedMetaDataObjects.obj
 0001:000fce70       ??0PxArticulationGeneratedValues@physx@@QEAA@PEBVPxArticulation@1@@Z 00000001800fde70 f   PxAutoGeneratedMetaDataObjects.obj
 0001:000fcf60       ??0PxArticulationGeneratedInfo@physx@@QEAA@XZ 00000001800fdf60 f   PxAutoGeneratedMetaDataObjects.obj
 0001:000fd230       ??0PxAggregateGeneratedValues@physx@@QEAA@PEBVPxAggregate@1@@Z 00000001800fe230 f   PxAutoGeneratedMetaDataObjects.obj
 0001:000fd280       ??0PxAggregateGeneratedInfo@physx@@QEAA@XZ 00000001800fe280 f   PxAutoGeneratedMetaDataObjects.obj
 0001:000fd310       ??0PxConstraintGeneratedValues@physx@@QEAA@PEBVPxConstraint@1@@Z 00000001800fe310 f   PxAutoGeneratedMetaDataObjects.obj
 0001:000fd3a0       ??0PxConstraintGeneratedInfo@physx@@QEAA@XZ 00000001800fe3a0 f   PxAutoGeneratedMetaDataObjects.obj
 0001:000fd500       ??0PxShapeGeneratedValues@physx@@QEAA@PEBVPxShape@1@@Z 00000001800fe500 f   PxAutoGeneratedMetaDataObjects.obj
 0001:000fd5e0       ??0PxShapeGeneratedInfo@physx@@QEAA@XZ 00000001800fe5e0 f   PxAutoGeneratedMetaDataObjects.obj
 0001:000fd830       ??0PxClothFabricGeneratedValues@physx@@QEAA@PEBVPxClothFabric@1@@Z 00000001800fe830 f   PxAutoGeneratedMetaDataObjects.obj
 0001:000fd880       ??0PxClothFabricGeneratedInfo@physx@@QEAA@XZ 00000001800fe880 f   PxAutoGeneratedMetaDataObjects.obj
 0001:000fd9a0       ??0PxClothGeneratedValues@physx@@QEAA@PEBVPxCloth@1@@Z 00000001800fe9a0 f   PxAutoGeneratedMetaDataObjects.obj
 0001:000fdcc0       ??0PxClothGeneratedInfo@physx@@QEAA@XZ 00000001800fecc0 f   PxAutoGeneratedMetaDataObjects.obj
 0001:000fe330       ??0PxParticleBaseGeneratedValues@physx@@QEAA@PEBVPxParticleBase@1@@Z 00000001800ff330 f   PxAutoGeneratedMetaDataObjects.obj
 0001:000fe470       ??0PxParticleBaseGeneratedInfo@physx@@QEAA@XZ 00000001800ff470 f   PxAutoGeneratedMetaDataObjects.obj
 0001:000fe750       ??0PxParticleFluidGeneratedValues@physx@@QEAA@PEBVPxParticleFluid@1@@Z 00000001800ff750 f   PxAutoGeneratedMetaDataObjects.obj
 0001:000fe7d0       ??0PxParticleFluidGeneratedInfo@physx@@QEAA@XZ 00000001800ff7d0 f   PxAutoGeneratedMetaDataObjects.obj
 0001:000fe8b0       ??0PxParticleSystemGeneratedValues@physx@@QEAA@PEBVPxParticleSystem@1@@Z 00000001800ff8b0 f   PxAutoGeneratedMetaDataObjects.obj
 0001:000fe8f0       ??0PxParticleSystemGeneratedInfo@physx@@QEAA@XZ 00000001800ff8f0 f   PxAutoGeneratedMetaDataObjects.obj
 0001:000fe940       ??0PxPruningStructureGeneratedValues@physx@@QEAA@PEBVPxPruningStructure@1@@Z 00000001800ff940 f   PxAutoGeneratedMetaDataObjects.obj
 0001:000fe970       ??0PxPruningStructureGeneratedInfo@physx@@QEAA@XZ 00000001800ff970 f   PxAutoGeneratedMetaDataObjects.obj
 0001:000fe9c0       ??0PxTolerancesScaleGeneratedValues@physx@@QEAA@PEBVPxTolerancesScale@1@@Z 00000001800ff9c0 f   PxAutoGeneratedMetaDataObjects.obj
 0001:000fea00       ??0PxTolerancesScaleGeneratedInfo@physx@@QEAA@XZ 00000001800ffa00 f   PxAutoGeneratedMetaDataObjects.obj
 0001:000feaa0       ??0PxGeometryGeneratedValues@physx@@QEAA@PEBVPxGeometry@1@@Z 00000001800ffaa0 f   PxAutoGeneratedMetaDataObjects.obj
 0001:000feab0       ??0PxGeometryGeneratedInfo@physx@@QEAA@XZ 00000001800ffab0 f   PxAutoGeneratedMetaDataObjects.obj
 0001:000feac0       ??0PxBoxGeometryGeneratedValues@physx@@QEAA@PEBVPxBoxGeometry@1@@Z 00000001800ffac0 f   PxAutoGeneratedMetaDataObjects.obj
 0001:000feae0       ??0PxBoxGeometryGeneratedInfo@physx@@QEAA@XZ 00000001800ffae0 f   PxAutoGeneratedMetaDataObjects.obj
 0001:000feb20       ??0PxCapsuleGeometryGeneratedValues@physx@@QEAA@PEBVPxCapsuleGeometry@1@@Z 00000001800ffb20 f   PxAutoGeneratedMetaDataObjects.obj
 0001:000feb40       ??0PxCapsuleGeometryGeneratedInfo@physx@@QEAA@XZ 00000001800ffb40 f   PxAutoGeneratedMetaDataObjects.obj
 0001:000feba0       ??0PxMeshScaleGeneratedValues@physx@@QEAA@PEBVPxMeshScale@1@@Z 00000001800ffba0 f   PxAutoGeneratedMetaDataObjects.obj
 0001:000febe0       ??0PxMeshScaleGeneratedInfo@physx@@QEAA@XZ 00000001800ffbe0 f   PxAutoGeneratedMetaDataObjects.obj
 0001:000fec40       ??0PxConvexMeshGeometryGeneratedValues@physx@@QEAA@PEBVPxConvexMeshGeometry@1@@Z 00000001800ffc40 f   PxAutoGeneratedMetaDataObjects.obj
 0001:000fec90       ??0PxConvexMeshGeometryGeneratedInfo@physx@@QEAA@XZ 00000001800ffc90 f   PxAutoGeneratedMetaDataObjects.obj
 0001:000fed40       ??0PxSphereGeometryGeneratedValues@physx@@QEAA@PEBVPxSphereGeometry@1@@Z 00000001800ffd40 f   PxAutoGeneratedMetaDataObjects.obj
 0001:000feda0       ??0PxSphereGeometryGeneratedInfo@physx@@QEAA@XZ 00000001800ffda0 f   PxAutoGeneratedMetaDataObjects.obj
 0001:000fedf0       ??0PxPlaneGeometryGeneratedValues@physx@@QEAA@PEBVPxPlaneGeometry@1@@Z 00000001800ffdf0 f   PxAutoGeneratedMetaDataObjects.obj
 0001:000fee00       ??0PxPlaneGeometryGeneratedInfo@physx@@QEAA@XZ 00000001800ffe00 f   PxAutoGeneratedMetaDataObjects.obj
 0001:000fee10       ??0PxTriangleMeshGeometryGeneratedValues@physx@@QEAA@PEBVPxTriangleMeshGeometry@1@@Z 00000001800ffe10 f   PxAutoGeneratedMetaDataObjects.obj
 0001:000fee60       ??0PxTriangleMeshGeometryGeneratedInfo@physx@@QEAA@XZ 00000001800ffe60 f   PxAutoGeneratedMetaDataObjects.obj
 0001:000feef0       ??0PxHeightFieldGeometryGeneratedValues@physx@@QEAA@PEBVPxHeightFieldGeometry@1@@Z 00000001800ffef0 f   PxAutoGeneratedMetaDataObjects.obj
 0001:000fef20       ??0PxHeightFieldGeometryGeneratedInfo@physx@@QEAA@XZ 00000001800fff20 f   PxAutoGeneratedMetaDataObjects.obj
 0001:000ff000       ??0PxHeightFieldDescGeneratedValues@physx@@QEAA@PEBVPxHeightFieldDesc@1@@Z 0000000180100000 f   PxAutoGeneratedMetaDataObjects.obj
 0001:000ff090       ??0PxHeightFieldDescGeneratedInfo@physx@@QEAA@XZ 0000000180100090 f   PxAutoGeneratedMetaDataObjects.obj
 0001:000ff200       ??0PxSceneGeneratedValues@physx@@QEAA@PEBVPxScene@1@@Z 0000000180100200 f   PxAutoGeneratedMetaDataObjects.obj
 0001:000ff500       ??0PxSceneGeneratedInfo@physx@@QEAA@XZ 0000000180100500 f   PxAutoGeneratedMetaDataObjects.obj
 0001:000ffb60       ??0PxClothParticleGeneratedValues@physx@@QEAA@PEBUPxClothParticle@1@@Z 0000000180100b60 f   PxAutoGeneratedMetaDataObjects.obj
 0001:000ffb80       ??0PxClothParticleGeneratedInfo@physx@@QEAA@XZ 0000000180100b80 f   PxAutoGeneratedMetaDataObjects.obj
 0001:000ffbe0       ??0PxClothFabricPhaseGeneratedValues@physx@@QEAA@PEBUPxClothFabricPhase@1@@Z 0000000180100be0 f   PxAutoGeneratedMetaDataObjects.obj
 0001:000ffc00       ??0PxClothFabricPhaseGeneratedInfo@physx@@QEAA@XZ 0000000180100c00 f   PxAutoGeneratedMetaDataObjects.obj
 0001:000ffc60       ??0PxSceneLimitsGeneratedValues@physx@@QEAA@PEBVPxSceneLimits@1@@Z 0000000180100c60 f   PxAutoGeneratedMetaDataObjects.obj
 0001:000ffca0       ??0PxSceneLimitsGeneratedInfo@physx@@QEAA@XZ 0000000180100ca0 f   PxAutoGeneratedMetaDataObjects.obj
 0001:000ffe50       ??0PxgDynamicsMemoryConfigGeneratedValues@physx@@QEAA@PEBUPxgDynamicsMemoryConfig@1@@Z 0000000180100e50 f   PxAutoGeneratedMetaDataObjects.obj
 0001:000ffe90       ??0PxgDynamicsMemoryConfigGeneratedInfo@physx@@QEAA@XZ 0000000180100e90 f   PxAutoGeneratedMetaDataObjects.obj
 0001:00100010       ??0PxSceneDescGeneratedValues@physx@@QEAA@PEBVPxSceneDesc@1@@Z 0000000180101010 f   PxAutoGeneratedMetaDataObjects.obj
 0001:00100210       ??0PxSceneDescGeneratedInfo@physx@@QEAA@XZ 0000000180101210 f   PxAutoGeneratedMetaDataObjects.obj
 0001:00100920       ??0PxSimulationStatisticsGeneratedValues@physx@@QEAA@PEBVPxSimulationStatistics@1@@Z 0000000180101920 f   PxAutoGeneratedMetaDataObjects.obj
 0001:00100c30       ??0PxSimulationStatisticsGeneratedInfo@physx@@QEAA@XZ 0000000180101c30 f   PxAutoGeneratedMetaDataObjects.obj
 0001:001010f0       ??0PxLockedDataGeneratedValues@physx@@QEAA@PEBVPxLockedData@1@@Z 00000001801020f0 f   PxAutoGeneratedMetaDataObjects.obj
 0001:00101100       ??0PxLockedDataGeneratedInfo@physx@@QEAA@XZ 0000000180102100 f   PxAutoGeneratedMetaDataObjects.obj
 0001:00101110       ??0PxParticleReadDataGeneratedValues@physx@@QEAA@PEBVPxParticleReadData@1@@Z 0000000180102110 f   PxAutoGeneratedMetaDataObjects.obj
 0001:00101160       ??0PxParticleReadDataGeneratedInfo@physx@@QEAA@XZ 0000000180102160 f   PxAutoGeneratedMetaDataObjects.obj
 0001:00101310       ??0PxClothStretchConfigGeneratedValues@physx@@QEAA@PEBUPxClothStretchConfig@1@@Z 0000000180102310 f   PxAutoGeneratedMetaDataObjects.obj
 0001:00101330       ??0PxClothStretchConfigGeneratedInfo@physx@@QEAA@XZ 0000000180102330 f   PxAutoGeneratedMetaDataObjects.obj
 0001:001013e0       ??0PxClothTetherConfigGeneratedValues@physx@@QEAA@PEBUPxClothTetherConfig@1@@Z 00000001801023e0 f   PxAutoGeneratedMetaDataObjects.obj
 0001:00101400       ??0PxClothTetherConfigGeneratedInfo@physx@@QEAA@XZ 0000000180102400 f   PxAutoGeneratedMetaDataObjects.obj
 0001:00101460       ??0PxClothMotionConstraintConfigGeneratedValues@physx@@QEAA@PEBUPxClothMotionConstraintConfig@1@@Z 0000000180102460 f   PxAutoGeneratedMetaDataObjects.obj
 0001:00101480       ??0PxClothMotionConstraintConfigGeneratedInfo@physx@@QEAA@XZ 0000000180102480 f   PxAutoGeneratedMetaDataObjects.obj
 0001:00101510       ??0PxClothParticleDataGeneratedValues@physx@@QEAA@PEBVPxClothParticleData@1@@Z 0000000180102510 f   PxAutoGeneratedMetaDataObjects.obj
 0001:00101530       ??0PxClothParticleDataGeneratedInfo@physx@@QEAA@XZ 0000000180102530 f   PxAutoGeneratedMetaDataObjects.obj
 0001:00101590       ?getPxPhysics_TolerancesScale@@YA?BVPxTolerancesScale@physx@@PEBVPxPhysics@2@@Z 0000000180102590 f   PxAutoGeneratedMetaDataObjects.obj
 0001:001015c0       ?getPxPhysics_TriangleMeshes@@YAIPEBVPxPhysics@physx@@PEAPEAVPxTriangleMesh@2@I@Z 00000001801025c0 f   PxAutoGeneratedMetaDataObjects.obj
 0001:001015d0       ?getNbPxPhysics_TriangleMeshes@@YAIPEBVPxPhysics@physx@@@Z 00000001801025d0 f   PxAutoGeneratedMetaDataObjects.obj
 0001:001015e0       ?createPxPhysics_TriangleMeshes@@YAPEAVPxTriangleMesh@physx@@PEAVPxPhysics@2@AEAVPxInputStream@2@@Z 00000001801025e0 f   PxAutoGeneratedMetaDataObjects.obj
 0001:001015f0       ?getPxPhysics_HeightFields@@YAIPEBVPxPhysics@physx@@PEAPEAVPxHeightField@2@I@Z 00000001801025f0 f   PxAutoGeneratedMetaDataObjects.obj
 0001:00101600       ?getNbPxPhysics_HeightFields@@YAIPEBVPxPhysics@physx@@@Z 0000000180102600 f   PxAutoGeneratedMetaDataObjects.obj
 0001:00101610       ?createPxPhysics_HeightFields@@YAPEAVPxHeightField@physx@@PEAVPxPhysics@2@AEAVPxInputStream@2@@Z 0000000180102610 f   PxAutoGeneratedMetaDataObjects.obj
 0001:00101620       ?getPxPhysics_ConvexMeshes@@YAIPEBVPxPhysics@physx@@PEAPEAVPxConvexMesh@2@I@Z 0000000180102620 f   PxAutoGeneratedMetaDataObjects.obj
 0001:00101630       ?getNbPxPhysics_ConvexMeshes@@YAIPEBVPxPhysics@physx@@@Z 0000000180102630 f   PxAutoGeneratedMetaDataObjects.obj
 0001:00101640       ?createPxPhysics_ConvexMeshes@@YAPEAVPxConvexMesh@physx@@PEAVPxPhysics@2@AEAVPxInputStream@2@@Z 0000000180102640 f   PxAutoGeneratedMetaDataObjects.obj
 0001:00101650       ?getPxPhysics_ClothFabrics@@YAIPEBVPxPhysics@physx@@PEAPEAVPxClothFabric@2@I@Z 0000000180102650 f   PxAutoGeneratedMetaDataObjects.obj
 0001:00101660       ?getNbPxPhysics_ClothFabrics@@YAIPEBVPxPhysics@physx@@@Z 0000000180102660 f   PxAutoGeneratedMetaDataObjects.obj
 0001:00101670       ?getPxPhysics_Scenes@@YAIPEBVPxPhysics@physx@@PEAPEAVPxScene@2@I@Z 0000000180102670 f   PxAutoGeneratedMetaDataObjects.obj
 0001:00101690       ?getNbPxPhysics_Scenes@@YAIPEBVPxPhysics@physx@@@Z 0000000180102690 f   PxAutoGeneratedMetaDataObjects.obj
 0001:001016a0       ?createPxPhysics_Scenes@@YAPEAVPxScene@physx@@PEAVPxPhysics@2@AEBVPxSceneDesc@2@@Z 00000001801026a0 f   PxAutoGeneratedMetaDataObjects.obj
 0001:001016b0       ?getPxPhysics_Shapes@@YAIPEBVPxPhysics@physx@@PEAPEAVPxShape@2@I@Z 00000001801026b0 f   PxAutoGeneratedMetaDataObjects.obj
 0001:001016d0       ?getNbPxPhysics_Shapes@@YAIPEBVPxPhysics@physx@@@Z 00000001801026d0 f   PxAutoGeneratedMetaDataObjects.obj
 0001:001016e0       ?getPxPhysics_Materials@@YAIPEBVPxPhysics@physx@@PEAPEAVPxMaterial@2@I@Z 00000001801026e0 f   PxAutoGeneratedMetaDataObjects.obj
 0001:00101700       ?getNbPxPhysics_Materials@@YAIPEBVPxPhysics@physx@@@Z 0000000180102700 f   PxAutoGeneratedMetaDataObjects.obj
 0001:00101710       ?getPxMaterial_ReferenceCount@@YAIPEBVPxMaterial@physx@@@Z 0000000180102710 f   PxAutoGeneratedMetaDataObjects.obj
 0001:00101720       ?setPxMaterial_DynamicFriction@@YAXPEAVPxMaterial@physx@@M@Z 0000000180102720 f   PxAutoGeneratedMetaDataObjects.obj
 0001:00101730       ?getPxMaterial_DynamicFriction@@YAMPEBVPxMaterial@physx@@@Z 0000000180102730 f   PxAutoGeneratedMetaDataObjects.obj
 0001:00101740       ?setPxMaterial_StaticFriction@@YAXPEAVPxMaterial@physx@@M@Z 0000000180102740 f   PxAutoGeneratedMetaDataObjects.obj
 0001:00101750       ?getPxMaterial_StaticFriction@@YAMPEBVPxMaterial@physx@@@Z 0000000180102750 f   PxAutoGeneratedMetaDataObjects.obj
 0001:00101760       ?setPxMaterial_Restitution@@YAXPEAVPxMaterial@physx@@M@Z 0000000180102760 f   PxAutoGeneratedMetaDataObjects.obj
 0001:00101770       ?getPxMaterial_Restitution@@YAMPEBVPxMaterial@physx@@@Z 0000000180102770 f   PxAutoGeneratedMetaDataObjects.obj
 0001:00101780       ?setPxMaterial_Flags@@YAXPEAVPxMaterial@physx@@V?$PxFlags@W4Enum@PxMaterialFlag@physx@@G@2@@Z 0000000180102780 f   PxAutoGeneratedMetaDataObjects.obj
 0001:001017b0       ?getPxMaterial_Flags@@YA?AV?$PxFlags@W4Enum@PxMaterialFlag@physx@@G@physx@@PEBVPxMaterial@2@@Z 00000001801027b0 f   PxAutoGeneratedMetaDataObjects.obj
 0001:001017e0       ?setPxMaterial_FrictionCombineMode@@YAXPEAVPxMaterial@physx@@W4Enum@PxCombineMode@2@@Z 00000001801027e0 f   PxAutoGeneratedMetaDataObjects.obj
 0001:001017f0       ?getPxMaterial_FrictionCombineMode@@YA?AW4Enum@PxCombineMode@physx@@PEBVPxMaterial@3@@Z 00000001801027f0 f   PxAutoGeneratedMetaDataObjects.obj
 0001:00101800       ?setPxMaterial_RestitutionCombineMode@@YAXPEAVPxMaterial@physx@@W4Enum@PxCombineMode@2@@Z 0000000180102800 f   PxAutoGeneratedMetaDataObjects.obj
 0001:00101810       ?getPxMaterial_RestitutionCombineMode@@YA?AW4Enum@PxCombineMode@physx@@PEBVPxMaterial@3@@Z 0000000180102810 f   PxAutoGeneratedMetaDataObjects.obj
 0001:00101820       ?getPxMaterial_ConcreteTypeName@@YAPEBDPEBVPxMaterial@physx@@@Z 0000000180102820 f   PxAutoGeneratedMetaDataObjects.obj
 0001:00101830       ?getPxActor_Scene@@YAPEAVPxScene@physx@@PEBVPxActor@2@@Z 0000000180102830 f   PxAutoGeneratedMetaDataObjects.obj
 0001:00101840       ?setPxActor_Name@@YAXPEAVPxActor@physx@@PEBD@Z 0000000180102840 f   PxAutoGeneratedMetaDataObjects.obj
 0001:00101850       ?getPxActor_Name@@YAPEBDPEBVPxActor@physx@@@Z 0000000180102850 f   PxAutoGeneratedMetaDataObjects.obj
 0001:00101860       ?setPxActor_ActorFlags@@YAXPEAVPxActor@physx@@V?$PxFlags@W4Enum@PxActorFlag@physx@@E@2@@Z 0000000180102860 f   PxAutoGeneratedMetaDataObjects.obj
 0001:00101890       ?getPxActor_ActorFlags@@YA?AV?$PxFlags@W4Enum@PxActorFlag@physx@@E@physx@@PEBVPxActor@2@@Z 0000000180102890 f   PxAutoGeneratedMetaDataObjects.obj
 0001:001018c0       ?setPxActor_DominanceGroup@@YAXPEAVPxActor@physx@@E@Z 00000001801028c0 f   PxAutoGeneratedMetaDataObjects.obj
 0001:001018d0       ?getPxActor_DominanceGroup@@YAEPEBVPxActor@physx@@@Z 00000001801028d0 f   PxAutoGeneratedMetaDataObjects.obj
 0001:001018e0       ?setPxActor_OwnerClient@@YAXPEAVPxActor@physx@@E@Z 00000001801028e0 f   PxAutoGeneratedMetaDataObjects.obj
 0001:001018f0       ?getPxActor_OwnerClient@@YAEPEBVPxActor@physx@@@Z 00000001801028f0 f   PxAutoGeneratedMetaDataObjects.obj
 0001:00101900       ?setPxActor_ClientBehaviorFlags@@YAXPEAVPxActor@physx@@V?$PxFlags@W4Enum@PxActorClientBehaviorFlag@physx@@E@2@@Z 0000000180102900 f   PxAutoGeneratedMetaDataObjects.obj
 0001:00101930       ?getPxActor_ClientBehaviorFlags@@YA?AV?$PxFlags@W4Enum@PxActorClientBehaviorFlag@physx@@E@physx@@PEBVPxActor@2@@Z 0000000180102930 f   PxAutoGeneratedMetaDataObjects.obj
 0001:00101960       ?getPxActor_Aggregate@@YAPEAVPxAggregate@physx@@PEBVPxActor@2@@Z 0000000180102960 f   PxAutoGeneratedMetaDataObjects.obj
 0001:00101970       ?setPxRigidActor_GlobalPose@@YAXPEAVPxRigidActor@physx@@AEBVPxTransform@2@@Z 0000000180102970 f   PxAutoGeneratedMetaDataObjects.obj
 0001:00101990       ?getPxRigidActor_GlobalPose@@YA?AVPxTransform@physx@@PEBVPxRigidActor@2@@Z 0000000180102990 f   PxAutoGeneratedMetaDataObjects.obj
 0001:001019c0       ?getPxRigidActor_Shapes@@YAIPEBVPxRigidActor@physx@@PEAPEAVPxShape@2@I@Z 00000001801029c0 f   PxAutoGeneratedMetaDataObjects.obj
 0001:001019e0       ?getNbPxRigidActor_Shapes@@YAIPEBVPxRigidActor@physx@@@Z 00000001801029e0 f   PxAutoGeneratedMetaDataObjects.obj
 0001:001019f0       ?getPxRigidActor_Constraints@@YAIPEBVPxRigidActor@physx@@PEAPEAVPxConstraint@2@I@Z 00000001801029f0 f   PxAutoGeneratedMetaDataObjects.obj
 0001:00101a10       ?getNbPxRigidActor_Constraints@@YAIPEBVPxRigidActor@physx@@@Z 0000000180102a10 f   PxAutoGeneratedMetaDataObjects.obj
 0001:00101a20       ?setPxRigidBody_CMassLocalPose@@YAXPEAVPxRigidBody@physx@@AEBVPxTransform@2@@Z 0000000180102a20 f   PxAutoGeneratedMetaDataObjects.obj
 0001:00101a30       ?getPxRigidBody_CMassLocalPose@@YA?AVPxTransform@physx@@PEBVPxRigidBody@2@@Z 0000000180102a30 f   PxAutoGeneratedMetaDataObjects.obj
 0001:00101a60       ?setPxRigidBody_Mass@@YAXPEAVPxRigidBody@physx@@M@Z 0000000180102a60 f   PxAutoGeneratedMetaDataObjects.obj
 0001:00101a70       ?getPxRigidBody_Mass@@YAMPEBVPxRigidBody@physx@@@Z 0000000180102a70 f   PxAutoGeneratedMetaDataObjects.obj
 0001:00101a80       ?getPxRigidBody_InvMass@@YAMPEBVPxRigidBody@physx@@@Z 0000000180102a80 f   PxAutoGeneratedMetaDataObjects.obj
 0001:00101a90       ?setPxRigidBody_MassSpaceInertiaTensor@@YAXPEAVPxRigidBody@physx@@AEBVPxVec3@2@@Z 0000000180102a90 f   PxAutoGeneratedMetaDataObjects.obj
 0001:00101aa0       ?getPxRigidBody_MassSpaceInertiaTensor@@YA?AVPxVec3@physx@@PEBVPxRigidBody@2@@Z 0000000180102aa0 f   PxAutoGeneratedMetaDataObjects.obj
 0001:00101ad0       ?getPxRigidBody_MassSpaceInvInertiaTensor@@YA?AVPxVec3@physx@@PEBVPxRigidBody@2@@Z 0000000180102ad0 f   PxAutoGeneratedMetaDataObjects.obj
 0001:00101b00       ?setPxRigidBody_LinearVelocity@@YAXPEAVPxRigidBody@physx@@AEBVPxVec3@2@@Z 0000000180102b00 f   PxAutoGeneratedMetaDataObjects.obj
 0001:00101b20       ?getPxRigidBody_LinearVelocity@@YA?AVPxVec3@physx@@PEBVPxRigidBody@2@@Z 0000000180102b20 f   PxAutoGeneratedMetaDataObjects.obj
 0001:00101b50       ?setPxRigidBody_AngularVelocity@@YAXPEAVPxRigidBody@physx@@AEBVPxVec3@2@@Z 0000000180102b50 f   PxAutoGeneratedMetaDataObjects.obj
 0001:00101b70       ?getPxRigidBody_AngularVelocity@@YA?AVPxVec3@physx@@PEBVPxRigidBody@2@@Z 0000000180102b70 f   PxAutoGeneratedMetaDataObjects.obj
 0001:00101ba0       ?setPxRigidBody_RigidBodyFlags@@YAXPEAVPxRigidBody@physx@@V?$PxFlags@W4Enum@PxRigidBodyFlag@physx@@E@2@@Z 0000000180102ba0 f   PxAutoGeneratedMetaDataObjects.obj
 0001:00101bd0       ?getPxRigidBody_RigidBodyFlags@@YA?AV?$PxFlags@W4Enum@PxRigidBodyFlag@physx@@E@physx@@PEBVPxRigidBody@2@@Z 0000000180102bd0 f   PxAutoGeneratedMetaDataObjects.obj
 0001:00101c00       ?setPxRigidBody_MinCCDAdvanceCoefficient@@YAXPEAVPxRigidBody@physx@@M@Z 0000000180102c00 f   PxAutoGeneratedMetaDataObjects.obj
 0001:00101c10       ?getPxRigidBody_MinCCDAdvanceCoefficient@@YAMPEBVPxRigidBody@physx@@@Z 0000000180102c10 f   PxAutoGeneratedMetaDataObjects.obj
 0001:00101c20       ?setPxRigidBody_MaxDepenetrationVelocity@@YAXPEAVPxRigidBody@physx@@M@Z 0000000180102c20 f   PxAutoGeneratedMetaDataObjects.obj
 0001:00101c30       ?getPxRigidBody_MaxDepenetrationVelocity@@YAMPEBVPxRigidBody@physx@@@Z 0000000180102c30 f   PxAutoGeneratedMetaDataObjects.obj
 0001:00101c40       ?setPxRigidBody_MaxContactImpulse@@YAXPEAVPxRigidBody@physx@@M@Z 0000000180102c40 f   PxAutoGeneratedMetaDataObjects.obj
 0001:00101c50       ?getPxRigidBody_MaxContactImpulse@@YAMPEBVPxRigidBody@physx@@@Z 0000000180102c50 f   PxAutoGeneratedMetaDataObjects.obj
 0001:00101c60       ?setPxRigidDynamic_LinearDamping@@YAXPEAVPxRigidDynamic@physx@@M@Z 0000000180102c60 f   PxAutoGeneratedMetaDataObjects.obj
 0001:00101c70       ?getPxRigidDynamic_LinearDamping@@YAMPEBVPxRigidDynamic@physx@@@Z 0000000180102c70 f   PxAutoGeneratedMetaDataObjects.obj
 0001:00101c80       ?setPxRigidDynamic_AngularDamping@@YAXPEAVPxRigidDynamic@physx@@M@Z 0000000180102c80 f   PxAutoGeneratedMetaDataObjects.obj
 0001:00101c90       ?getPxRigidDynamic_AngularDamping@@YAMPEBVPxRigidDynamic@physx@@@Z 0000000180102c90 f   PxAutoGeneratedMetaDataObjects.obj
 0001:00101ca0       ?setPxRigidDynamic_MaxAngularVelocity@@YAXPEAVPxRigidDynamic@physx@@M@Z 0000000180102ca0 f   PxAutoGeneratedMetaDataObjects.obj
 0001:00101cb0       ?getPxRigidDynamic_MaxAngularVelocity@@YAMPEBVPxRigidDynamic@physx@@@Z 0000000180102cb0 f   PxAutoGeneratedMetaDataObjects.obj
 0001:00101cc0       ?getPxRigidDynamic_IsSleeping@@YA_NPEBVPxRigidDynamic@physx@@@Z 0000000180102cc0 f   PxAutoGeneratedMetaDataObjects.obj
 0001:00101cd0       ?setPxRigidDynamic_SleepThreshold@@YAXPEAVPxRigidDynamic@physx@@M@Z 0000000180102cd0 f   PxAutoGeneratedMetaDataObjects.obj
 0001:00101ce0       ?getPxRigidDynamic_SleepThreshold@@YAMPEBVPxRigidDynamic@physx@@@Z 0000000180102ce0 f   PxAutoGeneratedMetaDataObjects.obj
 0001:00101cf0       ?setPxRigidDynamic_StabilizationThreshold@@YAXPEAVPxRigidDynamic@physx@@M@Z 0000000180102cf0 f   PxAutoGeneratedMetaDataObjects.obj
 0001:00101d00       ?getPxRigidDynamic_StabilizationThreshold@@YAMPEBVPxRigidDynamic@physx@@@Z 0000000180102d00 f   PxAutoGeneratedMetaDataObjects.obj
 0001:00101d10       ?setPxRigidDynamic_RigidDynamicLockFlags@@YAXPEAVPxRigidDynamic@physx@@V?$PxFlags@W4Enum@PxRigidDynamicLockFlag@physx@@G@2@@Z 0000000180102d10 f   PxAutoGeneratedMetaDataObjects.obj
 0001:00101d40       ?getPxRigidDynamic_RigidDynamicLockFlags@@YA?AV?$PxFlags@W4Enum@PxRigidDynamicLockFlag@physx@@G@physx@@PEBVPxRigidDynamic@2@@Z 0000000180102d40 f   PxAutoGeneratedMetaDataObjects.obj
 0001:00101d70       ?setPxRigidDynamic_WakeCounter@@YAXPEAVPxRigidDynamic@physx@@M@Z 0000000180102d70 f   PxAutoGeneratedMetaDataObjects.obj
 0001:00101d80       ?getPxRigidDynamic_WakeCounter@@YAMPEBVPxRigidDynamic@physx@@@Z 0000000180102d80 f   PxAutoGeneratedMetaDataObjects.obj
 0001:00101d90       ?setPxRigidDynamic_SolverIterationCounts@@YAXPEAVPxRigidDynamic@physx@@II@Z 0000000180102d90 f   PxAutoGeneratedMetaDataObjects.obj
 0001:00101da0       ?getPxRigidDynamic_SolverIterationCounts@@YAXPEBVPxRigidDynamic@physx@@AEAI1@Z 0000000180102da0 f   PxAutoGeneratedMetaDataObjects.obj
 0001:00101db0       ?setPxRigidDynamic_ContactReportThreshold@@YAXPEAVPxRigidDynamic@physx@@M@Z 0000000180102db0 f   PxAutoGeneratedMetaDataObjects.obj
 0001:00101dc0       ?getPxRigidDynamic_ContactReportThreshold@@YAMPEBVPxRigidDynamic@physx@@@Z 0000000180102dc0 f   PxAutoGeneratedMetaDataObjects.obj
 0001:00101dd0       ?getPxRigidDynamic_ConcreteTypeName@@YAPEBDPEBVPxRigidDynamic@physx@@@Z 0000000180102dd0 f   PxAutoGeneratedMetaDataObjects.obj
 0001:00101de0       ?getPxRigidStatic_ConcreteTypeName@@YAPEBDPEBVPxRigidStatic@physx@@@Z 0000000180102de0 f   PxAutoGeneratedMetaDataObjects.obj
 0001:00101df0       ?getPxArticulationLink_InboundJoint@@YAPEAVPxArticulationJoint@physx@@PEBVPxArticulationLink@2@@Z 0000000180102df0 f   PxAutoGeneratedMetaDataObjects.obj
 0001:00101e00       ?getPxArticulationLink_Children@@YAIPEBVPxArticulationLink@physx@@PEAPEAV12@I@Z 0000000180102e00 f   PxAutoGeneratedMetaDataObjects.obj
 0001:00101e20       ?getNbPxArticulationLink_Children@@YAIPEBVPxArticulationLink@physx@@@Z 0000000180102e20 f   PxAutoGeneratedMetaDataObjects.obj
 0001:00101e30       ?getPxArticulationLink_ConcreteTypeName@@YAPEBDPEBVPxArticulationLink@physx@@@Z 0000000180102e30 f   PxAutoGeneratedMetaDataObjects.obj
 0001:00101e40       ?setPxArticulationJoint_ParentPose@@YAXPEAVPxArticulationJoint@physx@@AEBVPxTransform@2@@Z 0000000180102e40 f   PxAutoGeneratedMetaDataObjects.obj
 0001:00101e50       ?getPxArticulationJoint_ParentPose@@YA?AVPxTransform@physx@@PEBVPxArticulationJoint@2@@Z 0000000180102e50 f   PxAutoGeneratedMetaDataObjects.obj
 0001:00101e80       ?setPxArticulationJoint_ChildPose@@YAXPEAVPxArticulationJoint@physx@@AEBVPxTransform@2@@Z 0000000180102e80 f   PxAutoGeneratedMetaDataObjects.obj
 0001:00101e90       ?getPxArticulationJoint_ChildPose@@YA?AVPxTransform@physx@@PEBVPxArticulationJoint@2@@Z 0000000180102e90 f   PxAutoGeneratedMetaDataObjects.obj
 0001:00101ec0       ?setPxArticulationJoint_TargetOrientation@@YAXPEAVPxArticulationJoint@physx@@AEBVPxQuat@2@@Z 0000000180102ec0 f   PxAutoGeneratedMetaDataObjects.obj
 0001:00101ed0       ?getPxArticulationJoint_TargetOrientation@@YA?AVPxQuat@physx@@PEBVPxArticulationJoint@2@@Z 0000000180102ed0 f   PxAutoGeneratedMetaDataObjects.obj
 0001:00101f00       ?setPxArticulationJoint_TargetVelocity@@YAXPEAVPxArticulationJoint@physx@@AEBVPxVec3@2@@Z 0000000180102f00 f   PxAutoGeneratedMetaDataObjects.obj
 0001:00101f10       ?getPxArticulationJoint_TargetVelocity@@YA?AVPxVec3@physx@@PEBVPxArticulationJoint@2@@Z 0000000180102f10 f   PxAutoGeneratedMetaDataObjects.obj
 0001:00101f40       ?setPxArticulationJoint_DriveType@@YAXPEAVPxArticulationJoint@physx@@W4Enum@PxArticulationJointDriveType@2@@Z 0000000180102f40 f   PxAutoGeneratedMetaDataObjects.obj
 0001:00101f50       ?getPxArticulationJoint_DriveType@@YA?AW4Enum@PxArticulationJointDriveType@physx@@PEBVPxArticulationJoint@3@@Z 0000000180102f50 f   PxAutoGeneratedMetaDataObjects.obj
 0001:00101f60       ?setPxArticulationJoint_Stiffness@@YAXPEAVPxArticulationJoint@physx@@M@Z 0000000180102f60 f   PxAutoGeneratedMetaDataObjects.obj
 0001:00101f70       ?getPxArticulationJoint_Stiffness@@YAMPEBVPxArticulationJoint@physx@@@Z 0000000180102f70 f   PxAutoGeneratedMetaDataObjects.obj
 0001:00101f80       ?setPxArticulationJoint_Damping@@YAXPEAVPxArticulationJoint@physx@@M@Z 0000000180102f80 f   PxAutoGeneratedMetaDataObjects.obj
 0001:00101f90       ?getPxArticulationJoint_Damping@@YAMPEBVPxArticulationJoint@physx@@@Z 0000000180102f90 f   PxAutoGeneratedMetaDataObjects.obj
 0001:00101fa0       ?setPxArticulationJoint_InternalCompliance@@YAXPEAVPxArticulationJoint@physx@@M@Z 0000000180102fa0 f   PxAutoGeneratedMetaDataObjects.obj
 0001:00101fb0       ?getPxArticulationJoint_InternalCompliance@@YAMPEBVPxArticulationJoint@physx@@@Z 0000000180102fb0 f   PxAutoGeneratedMetaDataObjects.obj
 0001:00101fc0       ?setPxArticulationJoint_ExternalCompliance@@YAXPEAVPxArticulationJoint@physx@@M@Z 0000000180102fc0 f   PxAutoGeneratedMetaDataObjects.obj
 0001:00101fd0       ?getPxArticulationJoint_ExternalCompliance@@YAMPEBVPxArticulationJoint@physx@@@Z 0000000180102fd0 f   PxAutoGeneratedMetaDataObjects.obj
 0001:00101fe0       ?setPxArticulationJoint_SwingLimit@@YAXPEAVPxArticulationJoint@physx@@MM@Z 0000000180102fe0 f   PxAutoGeneratedMetaDataObjects.obj
 0001:00101ff0       ?getPxArticulationJoint_SwingLimit@@YAXPEBVPxArticulationJoint@physx@@AEAM1@Z 0000000180102ff0 f   PxAutoGeneratedMetaDataObjects.obj
 0001:00102000       ?setPxArticulationJoint_TangentialStiffness@@YAXPEAVPxArticulationJoint@physx@@M@Z 0000000180103000 f   PxAutoGeneratedMetaDataObjects.obj
 0001:00102010       ?getPxArticulationJoint_TangentialStiffness@@YAMPEBVPxArticulationJoint@physx@@@Z 0000000180103010 f   PxAutoGeneratedMetaDataObjects.obj
 0001:00102020       ?setPxArticulationJoint_TangentialDamping@@YAXPEAVPxArticulationJoint@physx@@M@Z 0000000180103020 f   PxAutoGeneratedMetaDataObjects.obj
 0001:00102030       ?getPxArticulationJoint_TangentialDamping@@YAMPEBVPxArticulationJoint@physx@@@Z 0000000180103030 f   PxAutoGeneratedMetaDataObjects.obj
 0001:00102040       ?setPxArticulationJoint_SwingLimitContactDistance@@YAXPEAVPxArticulationJoint@physx@@M@Z 0000000180103040 f   PxAutoGeneratedMetaDataObjects.obj
 0001:00102050       ?getPxArticulationJoint_SwingLimitContactDistance@@YAMPEBVPxArticulationJoint@physx@@@Z 0000000180103050 f   PxAutoGeneratedMetaDataObjects.obj
 0001:00102060       ?setPxArticulationJoint_SwingLimitEnabled@@YAXPEAVPxArticulationJoint@physx@@_N@Z 0000000180103060 f   PxAutoGeneratedMetaDataObjects.obj
 0001:00102070       ?getPxArticulationJoint_SwingLimitEnabled@@YA_NPEBVPxArticulationJoint@physx@@@Z 0000000180103070 f   PxAutoGeneratedMetaDataObjects.obj
 0001:00102080       ?setPxArticulationJoint_TwistLimit@@YAXPEAVPxArticulationJoint@physx@@MM@Z 0000000180103080 f   PxAutoGeneratedMetaDataObjects.obj
 0001:00102090       ?getPxArticulationJoint_TwistLimit@@YAXPEBVPxArticulationJoint@physx@@AEAM1@Z 0000000180103090 f   PxAutoGeneratedMetaDataObjects.obj
 0001:001020a0       ?setPxArticulationJoint_TwistLimitEnabled@@YAXPEAVPxArticulationJoint@physx@@_N@Z 00000001801030a0 f   PxAutoGeneratedMetaDataObjects.obj
 0001:001020b0       ?getPxArticulationJoint_TwistLimitEnabled@@YA_NPEBVPxArticulationJoint@physx@@@Z 00000001801030b0 f   PxAutoGeneratedMetaDataObjects.obj
 0001:001020c0       ?setPxArticulationJoint_TwistLimitContactDistance@@YAXPEAVPxArticulationJoint@physx@@M@Z 00000001801030c0 f   PxAutoGeneratedMetaDataObjects.obj
 0001:001020d0       ?getPxArticulationJoint_TwistLimitContactDistance@@YAMPEBVPxArticulationJoint@physx@@@Z 00000001801030d0 f   PxAutoGeneratedMetaDataObjects.obj
 0001:001020e0       ?getPxArticulationJoint_ConcreteTypeName@@YAPEBDPEBVPxArticulationJoint@physx@@@Z 00000001801030e0 f   PxAutoGeneratedMetaDataObjects.obj
 0001:001020f0       ?getPxArticulation_Scene@@YAPEAVPxScene@physx@@PEBVPxArticulation@2@@Z 00000001801030f0 f   PxAutoGeneratedMetaDataObjects.obj
 0001:00102100       ?setPxArticulation_MaxProjectionIterations@@YAXPEAVPxArticulation@physx@@I@Z 0000000180103100 f   PxAutoGeneratedMetaDataObjects.obj
 0001:00102110       ?getPxArticulation_MaxProjectionIterations@@YAIPEBVPxArticulation@physx@@@Z 0000000180103110 f   PxAutoGeneratedMetaDataObjects.obj
 0001:00102120       ?setPxArticulation_SeparationTolerance@@YAXPEAVPxArticulation@physx@@M@Z 0000000180103120 f   PxAutoGeneratedMetaDataObjects.obj
 0001:00102130       ?getPxArticulation_SeparationTolerance@@YAMPEBVPxArticulation@physx@@@Z 0000000180103130 f   PxAutoGeneratedMetaDataObjects.obj
 0001:00102140       ?setPxArticulation_InternalDriveIterations@@YAXPEAVPxArticulation@physx@@I@Z 0000000180103140 f   PxAutoGeneratedMetaDataObjects.obj
 0001:00102150       ?getPxArticulation_InternalDriveIterations@@YAIPEBVPxArticulation@physx@@@Z 0000000180103150 f   PxAutoGeneratedMetaDataObjects.obj
 0001:00102160       ?setPxArticulation_ExternalDriveIterations@@YAXPEAVPxArticulation@physx@@I@Z 0000000180103160 f   PxAutoGeneratedMetaDataObjects.obj
 0001:00102170       ?getPxArticulation_ExternalDriveIterations@@YAIPEBVPxArticulation@physx@@@Z 0000000180103170 f   PxAutoGeneratedMetaDataObjects.obj
 0001:00102180       ?setPxArticulation_SolverIterationCounts@@YAXPEAVPxArticulation@physx@@II@Z 0000000180103180 f   PxAutoGeneratedMetaDataObjects.obj
 0001:00102190       ?getPxArticulation_SolverIterationCounts@@YAXPEBVPxArticulation@physx@@AEAI1@Z 0000000180103190 f   PxAutoGeneratedMetaDataObjects.obj
 0001:001021a0       ?getPxArticulation_IsSleeping@@YA_NPEBVPxArticulation@physx@@@Z 00000001801031a0 f   PxAutoGeneratedMetaDataObjects.obj
 0001:001021b0       ?setPxArticulation_SleepThreshold@@YAXPEAVPxArticulation@physx@@M@Z 00000001801031b0 f   PxAutoGeneratedMetaDataObjects.obj
 0001:001021c0       ?getPxArticulation_SleepThreshold@@YAMPEBVPxArticulation@physx@@@Z 00000001801031c0 f   PxAutoGeneratedMetaDataObjects.obj
 0001:001021d0       ?setPxArticulation_StabilizationThreshold@@YAXPEAVPxArticulation@physx@@M@Z 00000001801031d0 f   PxAutoGeneratedMetaDataObjects.obj
 0001:001021e0       ?getPxArticulation_StabilizationThreshold@@YAMPEBVPxArticulation@physx@@@Z 00000001801031e0 f   PxAutoGeneratedMetaDataObjects.obj
 0001:001021f0       ?setPxArticulation_WakeCounter@@YAXPEAVPxArticulation@physx@@M@Z 00000001801031f0 f   PxAutoGeneratedMetaDataObjects.obj
 0001:00102200       ?getPxArticulation_WakeCounter@@YAMPEBVPxArticulation@physx@@@Z 0000000180103200 f   PxAutoGeneratedMetaDataObjects.obj
 0001:00102210       ?getPxArticulation_Links@@YAIPEBVPxArticulation@physx@@PEAPEAVPxArticulationLink@2@I@Z 0000000180103210 f   PxAutoGeneratedMetaDataObjects.obj
 0001:00102230       ?getNbPxArticulation_Links@@YAIPEBVPxArticulation@physx@@@Z 0000000180103230 f   PxAutoGeneratedMetaDataObjects.obj
 0001:00102240       ?setPxArticulation_Name@@YAXPEAVPxArticulation@physx@@PEBD@Z 0000000180103240 f   PxAutoGeneratedMetaDataObjects.obj
 0001:00102250       ?getPxArticulation_Name@@YAPEBDPEBVPxArticulation@physx@@@Z 0000000180103250 f   PxAutoGeneratedMetaDataObjects.obj
 0001:00102260       ?getPxArticulation_Aggregate@@YAPEAVPxAggregate@physx@@PEBVPxArticulation@2@@Z 0000000180103260 f   PxAutoGeneratedMetaDataObjects.obj
 0001:00102270       ?getPxArticulation_ConcreteTypeName@@YAPEBDPEBVPxArticulation@physx@@@Z 0000000180103270 f   PxAutoGeneratedMetaDataObjects.obj
 0001:00102280       ?getPxAggregate_MaxNbActors@@YAIPEBVPxAggregate@physx@@@Z 0000000180103280 f   PxAutoGeneratedMetaDataObjects.obj
 0001:00102290       ?getPxAggregate_Actors@@YAIPEBVPxAggregate@physx@@PEAPEAVPxActor@2@I@Z 0000000180103290 f   PxAutoGeneratedMetaDataObjects.obj
 0001:001022a0       ?getNbPxAggregate_Actors@@YAIPEBVPxAggregate@physx@@@Z 00000001801032a0 f   PxAutoGeneratedMetaDataObjects.obj
 0001:001022b0       ?getPxAggregate_SelfCollision@@YA_NPEBVPxAggregate@physx@@@Z 00000001801032b0 f   PxAutoGeneratedMetaDataObjects.obj
 0001:001022c0       ?getPxAggregate_ConcreteTypeName@@YAPEBDPEBVPxAggregate@physx@@@Z 00000001801032c0 f   PxAutoGeneratedMetaDataObjects.obj
 0001:001022d0       ?getPxConstraint_Scene@@YAPEAVPxScene@physx@@PEBVPxConstraint@2@@Z 00000001801032d0 f   PxAutoGeneratedMetaDataObjects.obj
 0001:001022e0       ?setPxConstraint_Actors@@YAXPEAVPxConstraint@physx@@PEAVPxRigidActor@2@1@Z 00000001801032e0 f   PxAutoGeneratedMetaDataObjects.obj
 0001:001022f0       ?getPxConstraint_Actors@@YAXPEBVPxConstraint@physx@@AEAPEAVPxRigidActor@2@1@Z 00000001801032f0 f   PxAutoGeneratedMetaDataObjects.obj
 0001:00102300       ?setPxConstraint_Flags@@YAXPEAVPxConstraint@physx@@V?$PxFlags@W4Enum@PxConstraintFlag@physx@@G@2@@Z 0000000180103300 f   PxAutoGeneratedMetaDataObjects.obj
 0001:00102330       ?getPxConstraint_Flags@@YA?AV?$PxFlags@W4Enum@PxConstraintFlag@physx@@G@physx@@PEBVPxConstraint@2@@Z 0000000180103330 f   PxAutoGeneratedMetaDataObjects.obj
 0001:00102360       ?getPxConstraint_IsValid@@YA_NPEBVPxConstraint@physx@@@Z 0000000180103360 f   PxAutoGeneratedMetaDataObjects.obj
 0001:00102370       ?setPxConstraint_BreakForce@@YAXPEAVPxConstraint@physx@@MM@Z 0000000180103370 f   PxAutoGeneratedMetaDataObjects.obj
 0001:00102380       ?getPxConstraint_BreakForce@@YAXPEBVPxConstraint@physx@@AEAM1@Z 0000000180103380 f   PxAutoGeneratedMetaDataObjects.obj
 0001:00102390       ?setPxConstraint_MinResponseThreshold@@YAXPEAVPxConstraint@physx@@M@Z 0000000180103390 f   PxAutoGeneratedMetaDataObjects.obj
 0001:001023a0       ?getPxConstraint_MinResponseThreshold@@YAMPEBVPxConstraint@physx@@@Z 00000001801033a0 f   PxAutoGeneratedMetaDataObjects.obj
 0001:001023b0       ?getPxConstraint_ConcreteTypeName@@YAPEBDPEBVPxConstraint@physx@@@Z 00000001801033b0 f   PxAutoGeneratedMetaDataObjects.obj
 0001:001023c0       ?getPxShape_GeometryType@@YA?AW4Enum@PxGeometryType@physx@@PEBVPxShape@3@@Z 00000001801033c0 f   PxAutoGeneratedMetaDataObjects.obj
 0001:001023d0       ?setPxShape_Geometry@@YAXPEAVPxShape@physx@@AEBVPxGeometry@2@@Z 00000001801033d0 f   PxAutoGeneratedMetaDataObjects.obj
 0001:001023e0       ?getPxShape_Geometry@@YA?AVPxGeometryHolder@physx@@PEBVPxShape@2@@Z 00000001801033e0 f   PxAutoGeneratedMetaDataObjects.obj
 0001:00102410       ?setPxShape_LocalPose@@YAXPEAVPxShape@physx@@AEBVPxTransform@2@@Z 0000000180103410 f   PxAutoGeneratedMetaDataObjects.obj
 0001:00102420       ?getPxShape_LocalPose@@YA?AVPxTransform@physx@@PEBVPxShape@2@@Z 0000000180103420 f   PxAutoGeneratedMetaDataObjects.obj
 0001:00102450       ?setPxShape_SimulationFilterData@@YAXPEAVPxShape@physx@@AEBUPxFilterData@2@@Z 0000000180103450 f   PxAutoGeneratedMetaDataObjects.obj
 0001:00102460       ?getPxShape_SimulationFilterData@@YA?AUPxFilterData@physx@@PEBVPxShape@2@@Z 0000000180103460 f   PxAutoGeneratedMetaDataObjects.obj
 0001:00102490       ?setPxShape_QueryFilterData@@YAXPEAVPxShape@physx@@AEBUPxFilterData@2@@Z 0000000180103490 f   PxAutoGeneratedMetaDataObjects.obj
 0001:001024a0       ?getPxShape_QueryFilterData@@YA?AUPxFilterData@physx@@PEBVPxShape@2@@Z 00000001801034a0 f   PxAutoGeneratedMetaDataObjects.obj
 0001:001024d0       ?getPxShape_Materials@@YAIPEBVPxShape@physx@@PEAPEAVPxMaterial@2@I@Z 00000001801034d0 f   PxAutoGeneratedMetaDataObjects.obj
 0001:001024f0       ?getNbPxShape_Materials@@YAIPEBVPxShape@physx@@@Z 00000001801034f0 f   PxAutoGeneratedMetaDataObjects.obj
 0001:00102510       ?setPxShape_ContactOffset@@YAXPEAVPxShape@physx@@M@Z 0000000180103510 f   PxAutoGeneratedMetaDataObjects.obj
 0001:00102520       ?getPxShape_ContactOffset@@YAMPEBVPxShape@physx@@@Z 0000000180103520 f   PxAutoGeneratedMetaDataObjects.obj
 0001:00102530       ?setPxShape_RestOffset@@YAXPEAVPxShape@physx@@M@Z 0000000180103530 f   PxAutoGeneratedMetaDataObjects.obj
 0001:00102540       ?getPxShape_RestOffset@@YAMPEBVPxShape@physx@@@Z 0000000180103540 f   PxAutoGeneratedMetaDataObjects.obj
 0001:00102550       ?setPxShape_Flags@@YAXPEAVPxShape@physx@@V?$PxFlags@W4Enum@PxShapeFlag@physx@@E@2@@Z 0000000180103550 f   PxAutoGeneratedMetaDataObjects.obj
 0001:00102580       ?getPxShape_Flags@@YA?AV?$PxFlags@W4Enum@PxShapeFlag@physx@@E@physx@@PEBVPxShape@2@@Z 0000000180103580 f   PxAutoGeneratedMetaDataObjects.obj
 0001:001025b0       ?getPxShape_IsExclusive@@YA_NPEBVPxShape@physx@@@Z 00000001801035b0 f   PxAutoGeneratedMetaDataObjects.obj
 0001:001025c0       ?setPxShape_Name@@YAXPEAVPxShape@physx@@PEBD@Z 00000001801035c0 f   PxAutoGeneratedMetaDataObjects.obj
 0001:001025d0       ?getPxShape_Name@@YAPEBDPEBVPxShape@physx@@@Z 00000001801035d0 f   PxAutoGeneratedMetaDataObjects.obj
 0001:001025e0       ?getPxShape_ConcreteTypeName@@YAPEBDPEBVPxShape@physx@@@Z 00000001801035e0 f   PxAutoGeneratedMetaDataObjects.obj
 0001:001025f0       ?getPxClothFabric_NbParticles@@YAIPEBVPxClothFabric@physx@@@Z 00000001801035f0 f   PxAutoGeneratedMetaDataObjects.obj
 0001:00102600       ?getPxClothFabric_Phases@@YAIPEBVPxClothFabric@physx@@PEAUPxClothFabricPhase@2@I@Z 0000000180103600 f   PxAutoGeneratedMetaDataObjects.obj
 0001:00102610       ?getNbPxClothFabric_Phases@@YAIPEBVPxClothFabric@physx@@@Z 0000000180103610 f   PxAutoGeneratedMetaDataObjects.obj
 0001:00102620       ?getPxClothFabric_Sets@@YAIPEBVPxClothFabric@physx@@PEAII@Z 0000000180103620 f   PxAutoGeneratedMetaDataObjects.obj
 0001:00102630       ?getNbPxClothFabric_Sets@@YAIPEBVPxClothFabric@physx@@@Z 0000000180103630 f   PxAutoGeneratedMetaDataObjects.obj
 0001:00102640       ?getPxClothFabric_ParticleIndices@@YAIPEBVPxClothFabric@physx@@PEAII@Z 0000000180103640 f   PxAutoGeneratedMetaDataObjects.obj
 0001:00102650       ?getNbPxClothFabric_ParticleIndices@@YAIPEBVPxClothFabric@physx@@@Z 0000000180103650 f   PxAutoGeneratedMetaDataObjects.obj
 0001:00102660       ?getPxClothFabric_Restvalues@@YAIPEBVPxClothFabric@physx@@PEAMI@Z 0000000180103660 f   PxAutoGeneratedMetaDataObjects.obj
 0001:00102670       ?getNbPxClothFabric_Restvalues@@YAIPEBVPxClothFabric@physx@@@Z 0000000180103670 f   PxAutoGeneratedMetaDataObjects.obj
 0001:00102680       ?getPxClothFabric_ReferenceCount@@YAIPEBVPxClothFabric@physx@@@Z 0000000180103680 f   PxAutoGeneratedMetaDataObjects.obj
 0001:00102690       ?getPxClothFabric_ConcreteTypeName@@YAPEBDPEBVPxClothFabric@physx@@@Z 0000000180103690 f   PxAutoGeneratedMetaDataObjects.obj
 0001:001026a0       ?getPxCloth_NbParticles@@YAIPEBVPxCloth@physx@@@Z 00000001801036a0 f   PxAutoGeneratedMetaDataObjects.obj
 0001:001026b0       ?setPxCloth_ClothFlags@@YAXPEAVPxCloth@physx@@V?$PxFlags@W4Enum@PxClothFlag@physx@@G@2@@Z 00000001801036b0 f   PxAutoGeneratedMetaDataObjects.obj
 0001:001026e0       ?getPxCloth_ClothFlags@@YA?AV?$PxFlags@W4Enum@PxClothFlag@physx@@G@physx@@PEBVPxCloth@2@@Z 00000001801036e0 f   PxAutoGeneratedMetaDataObjects.obj
 0001:00102710       ?setPxCloth_TargetPose@@YAXPEAVPxCloth@physx@@AEBVPxTransform@2@@Z 0000000180103710 f   PxAutoGeneratedMetaDataObjects.obj
 0001:00102720       ?setPxCloth_GlobalPose@@YAXPEAVPxCloth@physx@@AEBVPxTransform@2@@Z 0000000180103720 f   PxAutoGeneratedMetaDataObjects.obj
 0001:00102730       ?getPxCloth_GlobalPose@@YA?AVPxTransform@physx@@PEBVPxCloth@2@@Z 0000000180103730 f   PxAutoGeneratedMetaDataObjects.obj
 0001:00102760       ?setPxCloth_SolverFrequency@@YAXPEAVPxCloth@physx@@M@Z 0000000180103760 f   PxAutoGeneratedMetaDataObjects.obj
 0001:00102770       ?getPxCloth_SolverFrequency@@YAMPEBVPxCloth@physx@@@Z 0000000180103770 f   PxAutoGeneratedMetaDataObjects.obj
 0001:00102780       ?getPxCloth_PreviousTimeStep@@YAMPEBVPxCloth@physx@@@Z 0000000180103780 f   PxAutoGeneratedMetaDataObjects.obj
 0001:00102790       ?setPxCloth_StiffnessFrequency@@YAXPEAVPxCloth@physx@@M@Z 0000000180103790 f   PxAutoGeneratedMetaDataObjects.obj
 0001:001027a0       ?getPxCloth_StiffnessFrequency@@YAMPEBVPxCloth@physx@@@Z 00000001801037a0 f   PxAutoGeneratedMetaDataObjects.obj
 0001:001027b0       ?setPxCloth_LinearInertiaScale@@YAXPEAVPxCloth@physx@@VPxVec3@2@@Z 00000001801037b0 f   PxAutoGeneratedMetaDataObjects.obj
 0001:001027f0       ?getPxCloth_LinearInertiaScale@@YA?AVPxVec3@physx@@PEBVPxCloth@2@@Z 00000001801037f0 f   PxAutoGeneratedMetaDataObjects.obj
 0001:00102820       ?setPxCloth_AngularInertiaScale@@YAXPEAVPxCloth@physx@@VPxVec3@2@@Z 0000000180103820 f   PxAutoGeneratedMetaDataObjects.obj
 0001:00102860       ?getPxCloth_AngularInertiaScale@@YA?AVPxVec3@physx@@PEBVPxCloth@2@@Z 0000000180103860 f   PxAutoGeneratedMetaDataObjects.obj
 0001:00102890       ?setPxCloth_CentrifugalInertiaScale@@YAXPEAVPxCloth@physx@@VPxVec3@2@@Z 0000000180103890 f   PxAutoGeneratedMetaDataObjects.obj
 0001:001028d0       ?getPxCloth_CentrifugalInertiaScale@@YA?AVPxVec3@physx@@PEBVPxCloth@2@@Z 00000001801038d0 f   PxAutoGeneratedMetaDataObjects.obj
 0001:00102900       ?setPxCloth_InertiaScale@@YAXPEAVPxCloth@physx@@M@Z 0000000180103900 f   PxAutoGeneratedMetaDataObjects.obj
 0001:00102910       ?setPxCloth_DampingCoefficient@@YAXPEAVPxCloth@physx@@VPxVec3@2@@Z 0000000180103910 f   PxAutoGeneratedMetaDataObjects.obj
 0001:00102950       ?getPxCloth_DampingCoefficient@@YA?AVPxVec3@physx@@PEBVPxCloth@2@@Z 0000000180103950 f   PxAutoGeneratedMetaDataObjects.obj
 0001:00102980       ?setPxCloth_LinearDragCoefficient@@YAXPEAVPxCloth@physx@@VPxVec3@2@@Z 0000000180103980 f   PxAutoGeneratedMetaDataObjects.obj
 0001:001029c0       ?getPxCloth_LinearDragCoefficient@@YA?AVPxVec3@physx@@PEBVPxCloth@2@@Z 00000001801039c0 f   PxAutoGeneratedMetaDataObjects.obj
 0001:001029f0       ?setPxCloth_AngularDragCoefficient@@YAXPEAVPxCloth@physx@@VPxVec3@2@@Z 00000001801039f0 f   PxAutoGeneratedMetaDataObjects.obj
 0001:00102a30       ?getPxCloth_AngularDragCoefficient@@YA?AVPxVec3@physx@@PEBVPxCloth@2@@Z 0000000180103a30 f   PxAutoGeneratedMetaDataObjects.obj
 0001:00102a60       ?setPxCloth_DragCoefficient@@YAXPEAVPxCloth@physx@@M@Z 0000000180103a60 f   PxAutoGeneratedMetaDataObjects.obj
 0001:00102a70       ?setPxCloth_ExternalAcceleration@@YAXPEAVPxCloth@physx@@VPxVec3@2@@Z 0000000180103a70 f   PxAutoGeneratedMetaDataObjects.obj
 0001:00102ab0       ?getPxCloth_ExternalAcceleration@@YA?AVPxVec3@physx@@PEBVPxCloth@2@@Z 0000000180103ab0 f   PxAutoGeneratedMetaDataObjects.obj
 0001:00102ae0       ?setPxCloth_WindVelocity@@YAXPEAVPxCloth@physx@@VPxVec3@2@@Z 0000000180103ae0 f   PxAutoGeneratedMetaDataObjects.obj
 0001:00102b20       ?getPxCloth_WindVelocity@@YA?AVPxVec3@physx@@PEBVPxCloth@2@@Z 0000000180103b20 f   PxAutoGeneratedMetaDataObjects.obj
 0001:00102b50       ?setPxCloth_WindDrag@@YAXPEAVPxCloth@physx@@M@Z 0000000180103b50 f   PxAutoGeneratedMetaDataObjects.obj
 0001:00102b60       ?getPxCloth_WindDrag@@YAMPEBVPxCloth@physx@@@Z 0000000180103b60 f   PxAutoGeneratedMetaDataObjects.obj
 0001:00102b70       ?setPxCloth_WindLift@@YAXPEAVPxCloth@physx@@M@Z 0000000180103b70 f   PxAutoGeneratedMetaDataObjects.obj
 0001:00102b80       ?getPxCloth_WindLift@@YAMPEBVPxCloth@physx@@@Z 0000000180103b80 f   PxAutoGeneratedMetaDataObjects.obj
 0001:00102b90       ?setPxCloth_MotionConstraintConfig@@YAXPEAVPxCloth@physx@@AEBUPxClothMotionConstraintConfig@2@@Z 0000000180103b90 f   PxAutoGeneratedMetaDataObjects.obj
 0001:00102ba0       ?getPxCloth_MotionConstraintConfig@@YA?AUPxClothMotionConstraintConfig@physx@@PEBVPxCloth@2@@Z 0000000180103ba0 f   PxAutoGeneratedMetaDataObjects.obj
 0001:00102bd0       ?setPxCloth_StretchConfig@@YAXPEAVPxCloth@physx@@W4Enum@PxClothFabricPhaseType@2@UPxClothStretchConfig@2@@Z 0000000180103bd0 f   PxAutoGeneratedMetaDataObjects.obj
 0001:00102be0       ?getPxCloth_StretchConfig@@YA?AUPxClothStretchConfig@physx@@PEBVPxCloth@2@W4Enum@PxClothFabricPhaseType@2@@Z 0000000180103be0 f   PxAutoGeneratedMetaDataObjects.obj
 0001:00102c10       ?setPxCloth_TetherConfig@@YAXPEAVPxCloth@physx@@AEBUPxClothTetherConfig@2@@Z 0000000180103c10 f   PxAutoGeneratedMetaDataObjects.obj
 0001:00102c20       ?getPxCloth_TetherConfig@@YA?AUPxClothTetherConfig@physx@@PEBVPxCloth@2@@Z 0000000180103c20 f   PxAutoGeneratedMetaDataObjects.obj
 0001:00102c50       ?setPxCloth_FrictionCoefficient@@YAXPEAVPxCloth@physx@@M@Z 0000000180103c50 f   PxAutoGeneratedMetaDataObjects.obj
 0001:00102c60       ?getPxCloth_FrictionCoefficient@@YAMPEBVPxCloth@physx@@@Z 0000000180103c60 f   PxAutoGeneratedMetaDataObjects.obj
 0001:00102c70       ?setPxCloth_CollisionMassScale@@YAXPEAVPxCloth@physx@@M@Z 0000000180103c70 f   PxAutoGeneratedMetaDataObjects.obj
 0001:00102c80       ?getPxCloth_CollisionMassScale@@YAMPEBVPxCloth@physx@@@Z 0000000180103c80 f   PxAutoGeneratedMetaDataObjects.obj
 0001:00102c90       ?setPxCloth_SelfCollisionDistance@@YAXPEAVPxCloth@physx@@M@Z 0000000180103c90 f   PxAutoGeneratedMetaDataObjects.obj
 0001:00102ca0       ?getPxCloth_SelfCollisionDistance@@YAMPEBVPxCloth@physx@@@Z 0000000180103ca0 f   PxAutoGeneratedMetaDataObjects.obj
 0001:00102cb0       ?setPxCloth_SelfCollisionStiffness@@YAXPEAVPxCloth@physx@@M@Z 0000000180103cb0 f   PxAutoGeneratedMetaDataObjects.obj
 0001:00102cc0       ?getPxCloth_SelfCollisionStiffness@@YAMPEBVPxCloth@physx@@@Z 0000000180103cc0 f   PxAutoGeneratedMetaDataObjects.obj
 0001:00102cd0       ?setPxCloth_SimulationFilterData@@YAXPEAVPxCloth@physx@@AEBUPxFilterData@2@@Z 0000000180103cd0 f   PxAutoGeneratedMetaDataObjects.obj
 0001:00102ce0       ?getPxCloth_SimulationFilterData@@YA?AUPxFilterData@physx@@PEBVPxCloth@2@@Z 0000000180103ce0 f   PxAutoGeneratedMetaDataObjects.obj
 0001:00102d10       ?setPxCloth_ContactOffset@@YAXPEAVPxCloth@physx@@M@Z 0000000180103d10 f   PxAutoGeneratedMetaDataObjects.obj
 0001:00102d20       ?getPxCloth_ContactOffset@@YAMPEBVPxCloth@physx@@@Z 0000000180103d20 f   PxAutoGeneratedMetaDataObjects.obj
 0001:00102d30       ?setPxCloth_RestOffset@@YAXPEAVPxCloth@physx@@M@Z 0000000180103d30 f   PxAutoGeneratedMetaDataObjects.obj
 0001:00102d40       ?getPxCloth_RestOffset@@YAMPEBVPxCloth@physx@@@Z 0000000180103d40 f   PxAutoGeneratedMetaDataObjects.obj
 0001:00102d50       ?setPxCloth_SleepLinearVelocity@@YAXPEAVPxCloth@physx@@M@Z 0000000180103d50 f   PxAutoGeneratedMetaDataObjects.obj
 0001:00102d60       ?getPxCloth_SleepLinearVelocity@@YAMPEBVPxCloth@physx@@@Z 0000000180103d60 f   PxAutoGeneratedMetaDataObjects.obj
 0001:00102d70       ?setPxCloth_WakeCounter@@YAXPEAVPxCloth@physx@@M@Z 0000000180103d70 f   PxAutoGeneratedMetaDataObjects.obj
 0001:00102d80       ?getPxCloth_WakeCounter@@YAMPEBVPxCloth@physx@@@Z 0000000180103d80 f   PxAutoGeneratedMetaDataObjects.obj
 0001:00102d90       ?getPxCloth_IsSleeping@@YA_NPEBVPxCloth@physx@@@Z 0000000180103d90 f   PxAutoGeneratedMetaDataObjects.obj
 0001:00102da0       ?getPxCloth_ConcreteTypeName@@YAPEBDPEBVPxCloth@physx@@@Z 0000000180103da0 f   PxAutoGeneratedMetaDataObjects.obj
 0001:00102db0       ?setPxParticleBase_Damping@@YAXPEAVPxParticleBase@physx@@M@Z 0000000180103db0 f   PxAutoGeneratedMetaDataObjects.obj
 0001:00102dc0       ?getPxParticleBase_Damping@@YAMPEBVPxParticleBase@physx@@@Z 0000000180103dc0 f   PxAutoGeneratedMetaDataObjects.obj
 0001:00102dd0       ?setPxParticleBase_ExternalAcceleration@@YAXPEAVPxParticleBase@physx@@AEBVPxVec3@2@@Z 0000000180103dd0 f   PxAutoGeneratedMetaDataObjects.obj
 0001:00102de0       ?getPxParticleBase_ExternalAcceleration@@YA?AVPxVec3@physx@@PEBVPxParticleBase@2@@Z 0000000180103de0 f   PxAutoGeneratedMetaDataObjects.obj
 0001:00102e10       ?setPxParticleBase_ParticleMass@@YAXPEAVPxParticleBase@physx@@M@Z 0000000180103e10 f   PxAutoGeneratedMetaDataObjects.obj
 0001:00102e20       ?getPxParticleBase_ParticleMass@@YAMPEBVPxParticleBase@physx@@@Z 0000000180103e20 f   PxAutoGeneratedMetaDataObjects.obj
 0001:00102e30       ?setPxParticleBase_Restitution@@YAXPEAVPxParticleBase@physx@@M@Z 0000000180103e30 f   PxAutoGeneratedMetaDataObjects.obj
 0001:00102e40       ?getPxParticleBase_Restitution@@YAMPEBVPxParticleBase@physx@@@Z 0000000180103e40 f   PxAutoGeneratedMetaDataObjects.obj
 0001:00102e50       ?setPxParticleBase_DynamicFriction@@YAXPEAVPxParticleBase@physx@@M@Z 0000000180103e50 f   PxAutoGeneratedMetaDataObjects.obj
 0001:00102e60       ?getPxParticleBase_DynamicFriction@@YAMPEBVPxParticleBase@physx@@@Z 0000000180103e60 f   PxAutoGeneratedMetaDataObjects.obj
 0001:00102e70       ?setPxParticleBase_StaticFriction@@YAXPEAVPxParticleBase@physx@@M@Z 0000000180103e70 f   PxAutoGeneratedMetaDataObjects.obj
 0001:00102e80       ?getPxParticleBase_StaticFriction@@YAMPEBVPxParticleBase@physx@@@Z 0000000180103e80 f   PxAutoGeneratedMetaDataObjects.obj
 0001:00102e90       ?setPxParticleBase_SimulationFilterData@@YAXPEAVPxParticleBase@physx@@AEBUPxFilterData@2@@Z 0000000180103e90 f   PxAutoGeneratedMetaDataObjects.obj
 0001:00102ea0       ?getPxParticleBase_SimulationFilterData@@YA?AUPxFilterData@physx@@PEBVPxParticleBase@2@@Z 0000000180103ea0 f   PxAutoGeneratedMetaDataObjects.obj
 0001:00102ed0       ?getPxParticleBase_ParticleBaseFlags@@YA?AV?$PxFlags@W4Enum@PxParticleBaseFlag@physx@@G@physx@@PEBVPxParticleBase@2@@Z 0000000180103ed0 f   PxAutoGeneratedMetaDataObjects.obj
 0001:00102f00       ?getPxParticleBase_MaxParticles@@YAIPEBVPxParticleBase@physx@@@Z 0000000180103f00 f   PxAutoGeneratedMetaDataObjects.obj
 0001:00102f10       ?setPxParticleBase_MaxMotionDistance@@YAXPEAVPxParticleBase@physx@@M@Z 0000000180103f10 f   PxAutoGeneratedMetaDataObjects.obj
 0001:00102f20       ?getPxParticleBase_MaxMotionDistance@@YAMPEBVPxParticleBase@physx@@@Z 0000000180103f20 f   PxAutoGeneratedMetaDataObjects.obj
 0001:00102f30       ?setPxParticleBase_RestOffset@@YAXPEAVPxParticleBase@physx@@M@Z 0000000180103f30 f   PxAutoGeneratedMetaDataObjects.obj
 0001:00102f40       ?getPxParticleBase_RestOffset@@YAMPEBVPxParticleBase@physx@@@Z 0000000180103f40 f   PxAutoGeneratedMetaDataObjects.obj
 0001:00102f50       ?setPxParticleBase_ContactOffset@@YAXPEAVPxParticleBase@physx@@M@Z 0000000180103f50 f   PxAutoGeneratedMetaDataObjects.obj
 0001:00102f60       ?getPxParticleBase_ContactOffset@@YAMPEBVPxParticleBase@physx@@@Z 0000000180103f60 f   PxAutoGeneratedMetaDataObjects.obj
 0001:00102f70       ?setPxParticleBase_GridSize@@YAXPEAVPxParticleBase@physx@@M@Z 0000000180103f70 f   PxAutoGeneratedMetaDataObjects.obj
 0001:00102f80       ?getPxParticleBase_GridSize@@YAMPEBVPxParticleBase@physx@@@Z 0000000180103f80 f   PxAutoGeneratedMetaDataObjects.obj
 0001:00102f90       ?getPxParticleBase_ParticleReadDataFlags@@YA?AV?$PxFlags@W4Enum@PxParticleReadDataFlag@physx@@G@physx@@PEBVPxParticleBase@2@@Z 0000000180103f90 f   PxAutoGeneratedMetaDataObjects.obj
 0001:00102fc0       ?setPxParticleFluid_Stiffness@@YAXPEAVPxParticleFluid@physx@@M@Z 0000000180103fc0 f   PxAutoGeneratedMetaDataObjects.obj
 0001:00102fd0       ?getPxParticleFluid_Stiffness@@YAMPEBVPxParticleFluid@physx@@@Z 0000000180103fd0 f   PxAutoGeneratedMetaDataObjects.obj
 0001:00102fe0       ?setPxParticleFluid_Viscosity@@YAXPEAVPxParticleFluid@physx@@M@Z 0000000180103fe0 f   PxAutoGeneratedMetaDataObjects.obj
 0001:00102ff0       ?getPxParticleFluid_Viscosity@@YAMPEBVPxParticleFluid@physx@@@Z 0000000180103ff0 f   PxAutoGeneratedMetaDataObjects.obj
 0001:00103000       ?setPxParticleFluid_RestParticleDistance@@YAXPEAVPxParticleFluid@physx@@M@Z 0000000180104000 f   PxAutoGeneratedMetaDataObjects.obj
 0001:00103010       ?getPxParticleFluid_RestParticleDistance@@YAMPEBVPxParticleFluid@physx@@@Z 0000000180104010 f   PxAutoGeneratedMetaDataObjects.obj
 0001:00103020       ?getPxParticleFluid_ConcreteTypeName@@YAPEBDPEBVPxParticleFluid@physx@@@Z 0000000180104020 f   PxAutoGeneratedMetaDataObjects.obj
 0001:00103030       ?getPxParticleSystem_ConcreteTypeName@@YAPEBDPEBVPxParticleSystem@physx@@@Z 0000000180104030 f   PxAutoGeneratedMetaDataObjects.obj
 0001:00103040       ?getPxPruningStructure_RigidActors@@YAIPEBVPxPruningStructure@physx@@PEAPEAVPxRigidActor@2@I@Z 0000000180104040 f   PxAutoGeneratedMetaDataObjects.obj
 0001:00103050       ?getNbPxPruningStructure_RigidActors@@YAIPEBVPxPruningStructure@physx@@@Z 0000000180104050 f   PxAutoGeneratedMetaDataObjects.obj
 0001:00103060       ?getPxPruningStructure_ConcreteTypeName@@YAPEBDPEBVPxPruningStructure@physx@@@Z 0000000180104060 f   PxAutoGeneratedMetaDataObjects.obj
 0001:00103070       ?getPxTolerancesScale_IsValid@@YA_NPEBVPxTolerancesScale@physx@@@Z 0000000180104070 f   PxAutoGeneratedMetaDataObjects.obj
 0001:00103090       ?getPxSphereGeometry_IsValid@@YA_NPEBVPxSphereGeometry@physx@@@Z 0000000180104090 f   PxAutoGeneratedMetaDataObjects.obj
 0001:001030d0       ?getPxHeightFieldDesc_IsValid@@YA_NPEBVPxHeightFieldDesc@physx@@@Z 00000001801040d0 f   PxAutoGeneratedMetaDataObjects.obj
 0001:00103130       ?getPxScene_Flags@@YA?AV?$PxFlags@W4Enum@PxSceneFlag@physx@@I@physx@@PEBVPxScene@2@@Z 0000000180104130 f   PxAutoGeneratedMetaDataObjects.obj
 0001:00103160       ?setPxScene_Limits@@YAXPEAVPxScene@physx@@AEBVPxSceneLimits@2@@Z 0000000180104160 f   PxAutoGeneratedMetaDataObjects.obj
 0001:00103170       ?getPxScene_Limits@@YA?AVPxSceneLimits@physx@@PEBVPxScene@2@@Z 0000000180104170 f   PxAutoGeneratedMetaDataObjects.obj
 0001:001031a0       ?getPxScene_Timestamp@@YAIPEBVPxScene@physx@@@Z 00000001801041a0 f   PxAutoGeneratedMetaDataObjects.obj
 0001:001031b0       ?getPxScene_Actors@@YAIPEBVPxScene@physx@@V?$PxFlags@W4Enum@PxActorTypeFlag@physx@@G@2@PEAPEAVPxActor@2@I@Z 00000001801041b0 f   PxAutoGeneratedMetaDataObjects.obj
 0001:001031e0       ?getNbPxScene_Actors@@YAIPEBVPxScene@physx@@V?$PxFlags@W4Enum@PxActorTypeFlag@physx@@G@2@@Z 00000001801041e0 f   PxAutoGeneratedMetaDataObjects.obj
 0001:00103210       ?getPxScene_Articulations@@YAIPEBVPxScene@physx@@PEAPEAVPxArticulation@2@I@Z 0000000180104210 f   PxAutoGeneratedMetaDataObjects.obj
 0001:00103230       ?getNbPxScene_Articulations@@YAIPEBVPxScene@physx@@@Z 0000000180104230 f   PxAutoGeneratedMetaDataObjects.obj
 0001:00103240       ?getPxScene_Constraints@@YAIPEBVPxScene@physx@@PEAPEAVPxConstraint@2@I@Z 0000000180104240 f   PxAutoGeneratedMetaDataObjects.obj
 0001:00103260       ?getNbPxScene_Constraints@@YAIPEBVPxScene@physx@@@Z 0000000180104260 f   PxAutoGeneratedMetaDataObjects.obj
 0001:00103270       ?getPxScene_Aggregates@@YAIPEBVPxScene@physx@@PEAPEAVPxAggregate@2@I@Z 0000000180104270 f   PxAutoGeneratedMetaDataObjects.obj
 0001:00103290       ?getNbPxScene_Aggregates@@YAIPEBVPxScene@physx@@@Z 0000000180104290 f   PxAutoGeneratedMetaDataObjects.obj
 0001:001032a0       ?getPxScene_CpuDispatcher@@YAPEAVPxCpuDispatcher@physx@@PEBVPxScene@2@@Z 00000001801042a0 f   PxAutoGeneratedMetaDataObjects.obj
 0001:001032b0       ?getPxScene_GpuDispatcher@@YAPEAVPxGpuDispatcher@physx@@PEBVPxScene@2@@Z 00000001801042b0 f   PxAutoGeneratedMetaDataObjects.obj
 0001:001032c0       ?setPxScene_ClothInterCollisionDistance@@YAXPEAVPxScene@physx@@M@Z 00000001801042c0 f   PxAutoGeneratedMetaDataObjects.obj
 0001:001032d0       ?getPxScene_ClothInterCollisionDistance@@YAMPEBVPxScene@physx@@@Z 00000001801042d0 f   PxAutoGeneratedMetaDataObjects.obj
 0001:001032e0       ?setPxScene_ClothInterCollisionStiffness@@YAXPEAVPxScene@physx@@M@Z 00000001801042e0 f   PxAutoGeneratedMetaDataObjects.obj
 0001:001032f0       ?getPxScene_ClothInterCollisionStiffness@@YAMPEBVPxScene@physx@@@Z 00000001801042f0 f   PxAutoGeneratedMetaDataObjects.obj
 0001:00103300       ?setPxScene_ClothInterCollisionNbIterations@@YAXPEAVPxScene@physx@@I@Z 0000000180104300 f   PxAutoGeneratedMetaDataObjects.obj
 0001:00103310       ?getPxScene_ClothInterCollisionNbIterations@@YAIPEBVPxScene@physx@@@Z 0000000180104310 f   PxAutoGeneratedMetaDataObjects.obj
 0001:00103320       ?setPxScene_ContactModifyCallback@@YAXPEAVPxScene@physx@@PEAVPxContactModifyCallback@2@@Z 0000000180104320 f   PxAutoGeneratedMetaDataObjects.obj
 0001:00103330       ?getPxScene_ContactModifyCallback@@YAPEAVPxContactModifyCallback@physx@@PEBVPxScene@2@@Z 0000000180104330 f   PxAutoGeneratedMetaDataObjects.obj
 0001:00103340       ?setPxScene_CCDContactModifyCallback@@YAXPEAVPxScene@physx@@PEAVPxCCDContactModifyCallback@2@@Z 0000000180104340 f   PxAutoGeneratedMetaDataObjects.obj
 0001:00103350       ?getPxScene_CCDContactModifyCallback@@YAPEAVPxCCDContactModifyCallback@physx@@PEBVPxScene@2@@Z 0000000180104350 f   PxAutoGeneratedMetaDataObjects.obj
 0001:00103360       ?getPxScene_FilterShaderDataSize@@YAIPEBVPxScene@physx@@@Z 0000000180104360 f   PxAutoGeneratedMetaDataObjects.obj
 0001:00103370       ?getPxScene_FilterShader@@YAP6A?AV?$PxFlags@W4Enum@PxFilterFlag@physx@@G@physx@@IUPxFilterData@2@I0AEAV?$PxFlags@W4Enum@PxPairFlag@physx@@G@2@PEBXI@ZPEBVPxScene@2@@Z 0000000180104370 f   PxAutoGeneratedMetaDataObjects.obj
 0001:00103380       ?getPxScene_FilterCallback@@YAPEAVPxSimulationFilterCallback@physx@@PEBVPxScene@2@@Z 0000000180104380 f   PxAutoGeneratedMetaDataObjects.obj
 0001:00103390       ?setPxScene_Gravity@@YAXPEAVPxScene@physx@@AEBVPxVec3@2@@Z 0000000180104390 f   PxAutoGeneratedMetaDataObjects.obj
 0001:001033a0       ?getPxScene_Gravity@@YA?AVPxVec3@physx@@PEBVPxScene@2@@Z 00000001801043a0 f   PxAutoGeneratedMetaDataObjects.obj
 0001:001033d0       ?setPxScene_BounceThresholdVelocity@@YAXPEAVPxScene@physx@@M@Z 00000001801043d0 f   PxAutoGeneratedMetaDataObjects.obj
 0001:001033e0       ?getPxScene_BounceThresholdVelocity@@YAMPEBVPxScene@physx@@@Z 00000001801043e0 f   PxAutoGeneratedMetaDataObjects.obj
 0001:001033f0       ?setPxScene_CCDMaxPasses@@YAXPEAVPxScene@physx@@I@Z 00000001801043f0 f   PxAutoGeneratedMetaDataObjects.obj
 0001:00103400       ?getPxScene_CCDMaxPasses@@YAIPEBVPxScene@physx@@@Z 0000000180104400 f   PxAutoGeneratedMetaDataObjects.obj
 0001:00103410       ?getPxScene_FrictionOffsetThreshold@@YAMPEBVPxScene@physx@@@Z 0000000180104410 f   PxAutoGeneratedMetaDataObjects.obj
 0001:00103420       ?setPxScene_FrictionType@@YAXPEAVPxScene@physx@@W4Enum@PxFrictionType@2@@Z 0000000180104420 f   PxAutoGeneratedMetaDataObjects.obj
 0001:00103430       ?getPxScene_FrictionType@@YA?AW4Enum@PxFrictionType@physx@@PEBVPxScene@3@@Z 0000000180104430 f   PxAutoGeneratedMetaDataObjects.obj
 0001:00103440       ?setPxScene_VisualizationCullingBox@@YAXPEAVPxScene@physx@@AEBVPxBounds3@2@@Z 0000000180104440 f   PxAutoGeneratedMetaDataObjects.obj
 0001:00103450       ?getPxScene_VisualizationCullingBox@@YA?AVPxBounds3@physx@@PEBVPxScene@2@@Z 0000000180104450 f   PxAutoGeneratedMetaDataObjects.obj
 0001:00103480       ?getPxScene_StaticStructure@@YA?AW4Enum@PxPruningStructureType@physx@@PEBVPxScene@3@@Z 0000000180104480 f   PxAutoGeneratedMetaDataObjects.obj
 0001:00103490       ?getPxScene_DynamicStructure@@YA?AW4Enum@PxPruningStructureType@physx@@PEBVPxScene@3@@Z 0000000180104490 f   PxAutoGeneratedMetaDataObjects.obj
 0001:001034a0       ?setPxScene_DynamicTreeRebuildRateHint@@YAXPEAVPxScene@physx@@I@Z 00000001801044a0 f   PxAutoGeneratedMetaDataObjects.obj
 0001:001034b0       ?getPxScene_DynamicTreeRebuildRateHint@@YAIPEBVPxScene@physx@@@Z 00000001801044b0 f   PxAutoGeneratedMetaDataObjects.obj
 0001:001034c0       ?getPxScene_SceneQueryStaticTimestamp@@YAIPEBVPxScene@physx@@@Z 00000001801044c0 f   PxAutoGeneratedMetaDataObjects.obj
 0001:001034d0       ?getPxScene_BroadPhaseType@@YA?AW4Enum@PxBroadPhaseType@physx@@PEBVPxScene@3@@Z 00000001801044d0 f   PxAutoGeneratedMetaDataObjects.obj
 0001:001034e0       ?getPxScene_BroadPhaseRegions@@YAIPEBVPxScene@physx@@PEAUPxBroadPhaseRegionInfo@2@I@Z 00000001801044e0 f   PxAutoGeneratedMetaDataObjects.obj
 0001:00103500       ?getNbPxScene_BroadPhaseRegions@@YAIPEBVPxScene@physx@@@Z 0000000180104500 f   PxAutoGeneratedMetaDataObjects.obj
 0001:00103510       ?getPxScene_TaskManager@@YAPEAVPxTaskManager@physx@@PEBVPxScene@2@@Z 0000000180104510 f   PxAutoGeneratedMetaDataObjects.obj
 0001:00103520       ?setPxScene_NbContactDataBlocks@@YAXPEAVPxScene@physx@@I@Z 0000000180104520 f   PxAutoGeneratedMetaDataObjects.obj
 0001:00103530       ?getPxScene_MaxNbContactDataBlocksUsed@@YAIPEBVPxScene@physx@@@Z 0000000180104530 f   PxAutoGeneratedMetaDataObjects.obj
 0001:00103540       ?getPxScene_ContactReportStreamBufferSize@@YAIPEBVPxScene@physx@@@Z 0000000180104540 f   PxAutoGeneratedMetaDataObjects.obj
 0001:00103550       ?setPxScene_SolverBatchSize@@YAXPEAVPxScene@physx@@I@Z 0000000180104550 f   PxAutoGeneratedMetaDataObjects.obj
 0001:00103560       ?getPxScene_SolverBatchSize@@YAIPEBVPxScene@physx@@@Z 0000000180104560 f   PxAutoGeneratedMetaDataObjects.obj
 0001:00103570       ?getPxScene_WakeCounterResetValue@@YAMPEBVPxScene@physx@@@Z 0000000180104570 f   PxAutoGeneratedMetaDataObjects.obj
 0001:00103580       ?setPxSceneDesc_ToDefault@@YAXPEAVPxSceneDesc@physx@@AEBVPxTolerancesScale@2@@Z 0000000180104580 f   PxAutoGeneratedMetaDataObjects.obj
 0001:00103760       ?getPxSceneDesc_IsValid@@YA_NPEBVPxSceneDesc@physx@@@Z 0000000180104760 f   PxAutoGeneratedMetaDataObjects.obj
 0001:001056c0       ??_FPxClothStretchConfig@physx@@QEAAXXZ 00000001801066c0 f i PxAutoGeneratedMetaDataObjects.obj
 0001:001056f0       ?getPxActorUserData@@YAPEAXPEBVPxActor@physx@@@Z 00000001801066f0 f i PxAutoGeneratedMetaDataObjects.obj
 0001:00105700       ?getPxArticulationUserData@@YAPEAXPEBVPxArticulation@physx@@@Z 0000000180106700 f i PxAutoGeneratedMetaDataObjects.obj
 0001:00105710       ?getPxBoxGeometryHalfExtents@@YA?AVPxVec3@physx@@PEBVPxBoxGeometry@2@@Z 0000000180106710 f i PxAutoGeneratedMetaDataObjects.obj
 0001:00105730       ?getPxCapsuleGeometryHalfHeight@@YAMPEBVPxCapsuleGeometry@physx@@@Z 0000000180106730 f i PxAutoGeneratedMetaDataObjects.obj
 0001:00105740       ?getPxCapsuleGeometryRadius@@YAMPEBVPxCapsuleGeometry@physx@@@Z 0000000180106740 f i PxAutoGeneratedMetaDataObjects.obj
 0001:00105750       ?getPxClothFabricPhasePhaseType@@YA?AW4Enum@PxClothFabricPhaseType@physx@@PEBUPxClothFabricPhase@3@@Z 0000000180106750 f i PxAutoGeneratedMetaDataObjects.obj
 0001:00105760       ?getPxClothFabricPhaseSetIndex@@YAIPEBUPxClothFabricPhase@physx@@@Z 0000000180106760 f i PxAutoGeneratedMetaDataObjects.obj
 0001:00105770       ?getPxClothMotionConstraintConfigBias@@YAMPEBUPxClothMotionConstraintConfig@physx@@@Z 0000000180106770 f i PxAutoGeneratedMetaDataObjects.obj
 0001:00105780       ?getPxClothMotionConstraintConfigScale@@YAMPEBUPxClothMotionConstraintConfig@physx@@@Z 0000000180106780 f i PxAutoGeneratedMetaDataObjects.obj
 0001:00105790       ?getPxClothMotionConstraintConfigStiffness@@YAMPEBUPxClothMotionConstraintConfig@physx@@@Z 0000000180106790 f i PxAutoGeneratedMetaDataObjects.obj
 0001:001057a0       ?getPxClothParticleDataParticles@@YAPEAUPxClothParticle@physx@@PEBVPxClothParticleData@2@@Z 00000001801067a0 f i PxAutoGeneratedMetaDataObjects.obj
 0001:001057b0       ?getPxClothParticleDataPreviousParticles@@YAPEAUPxClothParticle@physx@@PEBVPxClothParticleData@2@@Z 00000001801067b0 f i PxAutoGeneratedMetaDataObjects.obj
 0001:001057c0       ?getPxClothParticleInvWeight@@YAMPEBUPxClothParticle@physx@@@Z 00000001801067c0 f i PxAutoGeneratedMetaDataObjects.obj
 0001:001057d0       ?getPxClothParticlePos@@YA?AVPxVec3@physx@@PEBUPxClothParticle@2@@Z 00000001801067d0 f i PxAutoGeneratedMetaDataObjects.obj
 0001:001057f0       ?getPxClothStretchConfigCompressionLimit@@YAMPEBUPxClothStretchConfig@physx@@@Z 00000001801067f0 f i PxAutoGeneratedMetaDataObjects.obj
 0001:00105800       ?getPxClothStretchConfigStiffness@@YAMPEBUPxClothStretchConfig@physx@@@Z 0000000180106800 f i PxAutoGeneratedMetaDataObjects.obj
 0001:00105810       ?getPxClothStretchConfigStiffnessMultiplier@@YAMPEBUPxClothStretchConfig@physx@@@Z 0000000180106810 f i PxAutoGeneratedMetaDataObjects.obj
 0001:00105820       ?getPxClothStretchConfigStretchLimit@@YAMPEBUPxClothStretchConfig@physx@@@Z 0000000180106820 f i PxAutoGeneratedMetaDataObjects.obj
 0001:00105830       ?getPxClothTetherConfigStiffness@@YAMPEBUPxClothTetherConfig@physx@@@Z 0000000180106830 f i PxAutoGeneratedMetaDataObjects.obj
 0001:00105840       ?getPxClothTetherConfigStretchLimit@@YAMPEBUPxClothTetherConfig@physx@@@Z 0000000180106840 f i PxAutoGeneratedMetaDataObjects.obj
 0001:00105850       ?getPxConvexMeshGeometryConvexMesh@@YAPEAVPxConvexMesh@physx@@PEBVPxConvexMeshGeometry@2@@Z 0000000180106850 f i PxAutoGeneratedMetaDataObjects.obj
 0001:00105860       ?getPxConvexMeshGeometryMaxMargin@@YAMPEBVPxConvexMeshGeometry@physx@@@Z 0000000180106860 f i PxAutoGeneratedMetaDataObjects.obj
 0001:00105870       ?getPxConvexMeshGeometryMeshFlags@@YA?AV?$PxFlags@W4Enum@PxConvexMeshGeometryFlag@physx@@E@physx@@PEBVPxConvexMeshGeometry@2@@Z 0000000180106870 f i PxAutoGeneratedMetaDataObjects.obj
 0001:00105880       ?getPxConvexMeshGeometryScale@@YA?AVPxMeshScale@physx@@PEBVPxConvexMeshGeometry@2@@Z 0000000180106880 f i PxAutoGeneratedMetaDataObjects.obj
 0001:001058c0       ?getPxHeightFieldDescConvexEdgeThreshold@@YAMPEBVPxHeightFieldDesc@physx@@@Z 00000001801068c0 f i PxAutoGeneratedMetaDataObjects.obj
 0001:001058d0       ?getPxHeightFieldDescFlags@@YA?AV?$PxFlags@W4Enum@PxHeightFieldFlag@physx@@G@physx@@PEBVPxHeightFieldDesc@2@@Z 00000001801068d0 f i PxAutoGeneratedMetaDataObjects.obj
 0001:001058e0       ?getPxHeightFieldDescFormat@@YA?AW4Enum@PxHeightFieldFormat@physx@@PEBVPxHeightFieldDesc@3@@Z 00000001801068e0 f i PxAutoGeneratedMetaDataObjects.obj
 0001:001058f0       ?getPxHeightFieldDescNbColumns@@YAIPEBVPxHeightFieldDesc@physx@@@Z 00000001801068f0 f i PxAutoGeneratedMetaDataObjects.obj
 0001:00105900       ?getPxHeightFieldDescNbRows@@YAIPEBVPxHeightFieldDesc@physx@@@Z 0000000180106900 f i PxAutoGeneratedMetaDataObjects.obj
 0001:00105910       ?getPxHeightFieldDescSamples@@YA?AUPxStridedData@physx@@PEBVPxHeightFieldDesc@2@@Z 0000000180106910 f i PxAutoGeneratedMetaDataObjects.obj
 0001:00105920       ?getPxHeightFieldDescThickness@@YAMPEBVPxHeightFieldDesc@physx@@@Z 0000000180106920 f i PxAutoGeneratedMetaDataObjects.obj
 0001:00105930       ?getPxHeightFieldGeometryColumnScale@@YAMPEBVPxHeightFieldGeometry@physx@@@Z 0000000180106930 f i PxAutoGeneratedMetaDataObjects.obj
 0001:00105940       ?getPxHeightFieldGeometryHeightField@@YAPEAVPxHeightField@physx@@PEBVPxHeightFieldGeometry@2@@Z 0000000180106940 f i PxAutoGeneratedMetaDataObjects.obj
 0001:00105950       ?getPxHeightFieldGeometryHeightFieldFlags@@YA?AV?$PxFlags@W4Enum@PxMeshGeometryFlag@physx@@E@physx@@PEBVPxHeightFieldGeometry@2@@Z 0000000180106950 f i PxAutoGeneratedMetaDataObjects.obj
 0001:00105960       ?getPxHeightFieldGeometryHeightScale@@YAMPEBVPxHeightFieldGeometry@physx@@@Z 0000000180106960 f i PxAutoGeneratedMetaDataObjects.obj
 0001:00105970       ?getPxHeightFieldGeometryRowScale@@YAMPEBVPxHeightFieldGeometry@physx@@@Z 0000000180106970 f i PxAutoGeneratedMetaDataObjects.obj
 0001:00105980       ?getPxMaterialUserData@@YAPEAXPEBVPxMaterial@physx@@@Z 0000000180106980 f i PxAutoGeneratedMetaDataObjects.obj
 0001:00105990       ?getPxMeshScaleRotation@@YA?AVPxQuat@physx@@PEBVPxMeshScale@2@@Z 0000000180106990 f i PxAutoGeneratedMetaDataObjects.obj
 0001:001059c0       ?getPxMeshScaleScale@@YA?AVPxVec3@physx@@PEBVPxMeshScale@2@@Z 00000001801069c0 f i PxAutoGeneratedMetaDataObjects.obj
 0001:001059e0       ?getPxParticleReadDataCollisionNormalBuffer@@YA?AV?$PxStrideIterator@$$CBVPxVec3@physx@@@physx@@PEBVPxParticleReadData@2@@Z 00000001801069e0 f i PxAutoGeneratedMetaDataObjects.obj
 0001:001059f0       ?getPxParticleReadDataCollisionVelocityBuffer@@YA?AV?$PxStrideIterator@$$CBVPxVec3@physx@@@physx@@PEBVPxParticleReadData@2@@Z 00000001801069f0 f i PxAutoGeneratedMetaDataObjects.obj
 0001:00105a00       ?getPxParticleReadDataFlagsBuffer@@YA?AV?$PxStrideIterator@$$CBV?$PxFlags@W4Enum@PxParticleFlag@physx@@G@physx@@@physx@@PEBVPxParticleReadData@2@@Z 0000000180106a00 f i PxAutoGeneratedMetaDataObjects.obj
 0001:00105a10       ?getPxParticleReadDataNbValidParticles@@YAIPEBVPxParticleReadData@physx@@@Z 0000000180106a10 f i PxAutoGeneratedMetaDataObjects.obj
 0001:00105a20       ?getPxParticleReadDataPositionBuffer@@YA?AV?$PxStrideIterator@$$CBVPxVec3@physx@@@physx@@PEBVPxParticleReadData@2@@Z 0000000180106a20 f i PxAutoGeneratedMetaDataObjects.obj
 0001:00105a30       ?getPxParticleReadDataRestOffsetBuffer@@YA?AV?$PxStrideIterator@$$CBM@physx@@PEBVPxParticleReadData@2@@Z 0000000180106a30 f i PxAutoGeneratedMetaDataObjects.obj
 0001:00105a40       ?getPxParticleReadDataValidParticleBitmap@@YAPEBIPEBVPxParticleReadData@physx@@@Z 0000000180106a40 f i PxAutoGeneratedMetaDataObjects.obj
 0001:00105a50       ?getPxParticleReadDataValidParticleRange@@YAIPEBVPxParticleReadData@physx@@@Z 0000000180106a50 f i PxAutoGeneratedMetaDataObjects.obj
 0001:00105a60       ?getPxParticleReadDataVelocityBuffer@@YA?AV?$PxStrideIterator@$$CBVPxVec3@physx@@@physx@@PEBVPxParticleReadData@2@@Z 0000000180106a60 f i PxAutoGeneratedMetaDataObjects.obj
 0001:00105a70       ?getPxSceneDescBounceThresholdVelocity@@YAMPEBVPxSceneDesc@physx@@@Z 0000000180106a70 f i PxAutoGeneratedMetaDataObjects.obj
 0001:00105a80       ?getPxSceneDescBroadPhaseCallback@@YAPEAVPxBroadPhaseCallback@physx@@PEBVPxSceneDesc@2@@Z 0000000180106a80 f i PxAutoGeneratedMetaDataObjects.obj
 0001:00105a90       ?getPxSceneDescBroadPhaseType@@YA?AW4Enum@PxBroadPhaseType@physx@@PEBVPxSceneDesc@3@@Z 0000000180106a90 f i PxAutoGeneratedMetaDataObjects.obj
 0001:00105aa0       ?getPxSceneDescCcdContactModifyCallback@@YAPEAVPxCCDContactModifyCallback@physx@@PEBVPxSceneDesc@2@@Z 0000000180106aa0 f i PxAutoGeneratedMetaDataObjects.obj
 0001:00105ab0       ?getPxSceneDescCcdMaxPasses@@YAIPEBVPxSceneDesc@physx@@@Z 0000000180106ab0 f i PxAutoGeneratedMetaDataObjects.obj
 0001:00105ac0       ?getPxSceneDescCcdMaxSeparation@@YAMPEBVPxSceneDesc@physx@@@Z 0000000180106ac0 f i PxAutoGeneratedMetaDataObjects.obj
 0001:00105ad0       ?getPxSceneDescContactModifyCallback@@YAPEAVPxContactModifyCallback@physx@@PEBVPxSceneDesc@2@@Z 0000000180106ad0 f i PxAutoGeneratedMetaDataObjects.obj
 0001:00105ae0       ?getPxSceneDescContactReportStreamBufferSize@@YAIPEBVPxSceneDesc@physx@@@Z 0000000180106ae0 f i PxAutoGeneratedMetaDataObjects.obj
 0001:00105af0       ?getPxSceneDescCpuDispatcher@@YAPEAVPxCpuDispatcher@physx@@PEBVPxSceneDesc@2@@Z 0000000180106af0 f i PxAutoGeneratedMetaDataObjects.obj
 0001:00105b00       ?getPxSceneDescDynamicStructure@@YA?AW4Enum@PxPruningStructureType@physx@@PEBVPxSceneDesc@3@@Z 0000000180106b00 f i PxAutoGeneratedMetaDataObjects.obj
 0001:00105b10       ?getPxSceneDescDynamicTreeRebuildRateHint@@YAIPEBVPxSceneDesc@physx@@@Z 0000000180106b10 f i PxAutoGeneratedMetaDataObjects.obj
 0001:00105b20       ?getPxSceneDescFilterCallback@@YAPEAVPxSimulationFilterCallback@physx@@PEBVPxSceneDesc@2@@Z 0000000180106b20 f i PxAutoGeneratedMetaDataObjects.obj
 0001:00105b30       ?getPxSceneDescFilterShader@@YAP6A?AV?$PxFlags@W4Enum@PxFilterFlag@physx@@G@physx@@IUPxFilterData@2@I0AEAV?$PxFlags@W4Enum@PxPairFlag@physx@@G@2@PEBXI@ZPEBVPxSceneDesc@2@@Z 0000000180106b30 f i PxAutoGeneratedMetaDataObjects.obj
 0001:00105b40       ?getPxSceneDescFilterShaderData@@YAPEBXPEBVPxSceneDesc@physx@@@Z 0000000180106b40 f i PxAutoGeneratedMetaDataObjects.obj
 0001:00105b50       ?getPxSceneDescFilterShaderDataSize@@YAIPEBVPxSceneDesc@physx@@@Z 0000000180106b50 f i PxAutoGeneratedMetaDataObjects.obj
 0001:00105b60       ?getPxSceneDescFlags@@YA?AV?$PxFlags@W4Enum@PxSceneFlag@physx@@I@physx@@PEBVPxSceneDesc@2@@Z 0000000180106b60 f i PxAutoGeneratedMetaDataObjects.obj
 0001:00105b70       ?getPxSceneDescFrictionOffsetThreshold@@YAMPEBVPxSceneDesc@physx@@@Z 0000000180106b70 f i PxAutoGeneratedMetaDataObjects.obj
 0001:00105b80       ?getPxSceneDescFrictionType@@YA?AW4Enum@PxFrictionType@physx@@PEBVPxSceneDesc@3@@Z 0000000180106b80 f i PxAutoGeneratedMetaDataObjects.obj
 0001:00105b90       ?getPxSceneDescGpuComputeVersion@@YAIPEBVPxSceneDesc@physx@@@Z 0000000180106b90 f i PxAutoGeneratedMetaDataObjects.obj
 0001:00105ba0       ?getPxSceneDescGpuDispatcher@@YAPEAVPxGpuDispatcher@physx@@PEBVPxSceneDesc@2@@Z 0000000180106ba0 f i PxAutoGeneratedMetaDataObjects.obj
 0001:00105bb0       ?getPxSceneDescGpuDynamicsConfig@@YA?AUPxgDynamicsMemoryConfig@physx@@PEBVPxSceneDesc@2@@Z 0000000180106bb0 f i PxAutoGeneratedMetaDataObjects.obj
 0001:00105bd0       ?getPxSceneDescGpuMaxNumPartitions@@YAIPEBVPxSceneDesc@physx@@@Z 0000000180106bd0 f i PxAutoGeneratedMetaDataObjects.obj
 0001:00105be0       ?getPxSceneDescGravity@@YA?AVPxVec3@physx@@PEBVPxSceneDesc@2@@Z 0000000180106be0 f i PxAutoGeneratedMetaDataObjects.obj
 0001:00105c00       ?getPxSceneDescLimits@@YA?AVPxSceneLimits@physx@@PEBVPxSceneDesc@2@@Z 0000000180106c00 f i PxAutoGeneratedMetaDataObjects.obj
 0001:00105c20       ?getPxSceneDescMaxBiasCoefficient@@YAMPEBVPxSceneDesc@physx@@@Z 0000000180106c20 f i PxAutoGeneratedMetaDataObjects.obj
 0001:00105c30       ?getPxSceneDescMaxNbContactDataBlocks@@YAIPEBVPxSceneDesc@physx@@@Z 0000000180106c30 f i PxAutoGeneratedMetaDataObjects.obj
 0001:00105c40       ?getPxSceneDescNbContactDataBlocks@@YAIPEBVPxSceneDesc@physx@@@Z 0000000180106c40 f i PxAutoGeneratedMetaDataObjects.obj
 0001:00105c50       ?getPxSceneDescSanityBounds@@YA?AVPxBounds3@physx@@PEBVPxSceneDesc@2@@Z 0000000180106c50 f i PxAutoGeneratedMetaDataObjects.obj
 0001:00105ca0       ?getPxSceneDescSimulationEventCallback@@YAPEAVPxSimulationEventCallback@physx@@PEBVPxSceneDesc@2@@Z 0000000180106ca0 f i PxAutoGeneratedMetaDataObjects.obj
 0001:00105cb0       ?getPxSceneDescSolverBatchSize@@YAIPEBVPxSceneDesc@physx@@@Z 0000000180106cb0 f i PxAutoGeneratedMetaDataObjects.obj
 0001:00105cc0       ?getPxSceneDescSolverOffsetSlop@@YAMPEBVPxSceneDesc@physx@@@Z 0000000180106cc0 f i PxAutoGeneratedMetaDataObjects.obj
 0001:00105cd0       ?getPxSceneDescStaticStructure@@YA?AW4Enum@PxPruningStructureType@physx@@PEBVPxSceneDesc@3@@Z 0000000180106cd0 f i PxAutoGeneratedMetaDataObjects.obj
 0001:00105ce0       ?getPxSceneDescUserData@@YAPEAXPEBVPxSceneDesc@physx@@@Z 0000000180106ce0 f i PxAutoGeneratedMetaDataObjects.obj
 0001:00105cf0       ?getPxSceneDescWakeCounterResetValue@@YAMPEBVPxSceneDesc@physx@@@Z 0000000180106cf0 f i PxAutoGeneratedMetaDataObjects.obj
 0001:00105d00       ?getPxSceneLimitsMaxNbActors@@YAIPEBVPxSceneLimits@physx@@@Z 0000000180106d00 f i PxAutoGeneratedMetaDataObjects.obj
 0001:00105d10       ?getPxSceneLimitsMaxNbAggregates@@YAIPEBVPxSceneLimits@physx@@@Z 0000000180106d10 f i PxAutoGeneratedMetaDataObjects.obj
 0001:00105d20       ?getPxSceneLimitsMaxNbBodies@@YAIPEBVPxSceneLimits@physx@@@Z 0000000180106d20 f i PxAutoGeneratedMetaDataObjects.obj
 0001:00105d30       ?getPxSceneLimitsMaxNbBroadPhaseOverlaps@@YAIPEBVPxSceneLimits@physx@@@Z 0000000180106d30 f i PxAutoGeneratedMetaDataObjects.obj
 0001:00105d40       ?getPxSceneLimitsMaxNbConstraints@@YAIPEBVPxSceneLimits@physx@@@Z 0000000180106d40 f i PxAutoGeneratedMetaDataObjects.obj
 0001:00105d50       ?getPxSceneLimitsMaxNbDynamicShapes@@YAIPEBVPxSceneLimits@physx@@@Z 0000000180106d50 f i PxAutoGeneratedMetaDataObjects.obj
 0001:00105d60       ?getPxSceneLimitsMaxNbObjectsPerRegion@@YAIPEBVPxSceneLimits@physx@@@Z 0000000180106d60 f i PxAutoGeneratedMetaDataObjects.obj
 0001:00105d70       ?getPxSceneLimitsMaxNbRegions@@YAIPEBVPxSceneLimits@physx@@@Z 0000000180106d70 f i PxAutoGeneratedMetaDataObjects.obj
 0001:00105d80       ?getPxSceneLimitsMaxNbStaticShapes@@YAIPEBVPxSceneLimits@physx@@@Z 0000000180106d80 f i PxAutoGeneratedMetaDataObjects.obj
 0001:00105d90       ?getPxSceneUserData@@YAPEAXPEBVPxScene@physx@@@Z 0000000180106d90 f i PxAutoGeneratedMetaDataObjects.obj
 0001:00105da0       ?getPxShapeUserData@@YAPEAXPEBVPxShape@physx@@@Z 0000000180106da0 f i PxAutoGeneratedMetaDataObjects.obj
 0001:00105db0       ?getPxSimulationStatisticsCompressedContactSize@@YAIPEBVPxSimulationStatistics@physx@@@Z 0000000180106db0 f i PxAutoGeneratedMetaDataObjects.obj
 0001:00105dc0       ?getPxSimulationStatisticsNbActiveConstraints@@YAIPEBVPxSimulationStatistics@physx@@@Z 0000000180106dc0 f i PxAutoGeneratedMetaDataObjects.obj
 0001:00105dd0       ?getPxSimulationStatisticsNbActiveDynamicBodies@@YAIPEBVPxSimulationStatistics@physx@@@Z 0000000180106dd0 f i PxAutoGeneratedMetaDataObjects.obj
 0001:00105de0       ?getPxSimulationStatisticsNbActiveKinematicBodies@@YAIPEBVPxSimulationStatistics@physx@@@Z 0000000180106de0 f i PxAutoGeneratedMetaDataObjects.obj
 0001:00105df0       ?getPxSimulationStatisticsNbAggregates@@YAIPEBVPxSimulationStatistics@physx@@@Z 0000000180106df0 f i PxAutoGeneratedMetaDataObjects.obj
 0001:00105e00       ?getPxSimulationStatisticsNbArticulations@@YAIPEBVPxSimulationStatistics@physx@@@Z 0000000180106e00 f i PxAutoGeneratedMetaDataObjects.obj
 0001:00105e10       ?getPxSimulationStatisticsNbAxisSolverConstraints@@YAIPEBVPxSimulationStatistics@physx@@@Z 0000000180106e10 f i PxAutoGeneratedMetaDataObjects.obj
 0001:00105e20       ?getPxSimulationStatisticsNbDiscreteContactPairsTotal@@YAIPEBVPxSimulationStatistics@physx@@@Z 0000000180106e20 f i PxAutoGeneratedMetaDataObjects.obj
 0001:00105e30       ?getPxSimulationStatisticsNbDiscreteContactPairsWithCacheHits@@YAIPEBVPxSimulationStatistics@physx@@@Z 0000000180106e30 f i PxAutoGeneratedMetaDataObjects.obj
 0001:00105e40       ?getPxSimulationStatisticsNbDiscreteContactPairsWithContacts@@YAIPEBVPxSimulationStatistics@physx@@@Z 0000000180106e40 f i PxAutoGeneratedMetaDataObjects.obj
 0001:00105e50       ?getPxSimulationStatisticsNbDynamicBodies@@YAIPEBVPxSimulationStatistics@physx@@@Z 0000000180106e50 f i PxAutoGeneratedMetaDataObjects.obj
 0001:00105e60       ?getPxSimulationStatisticsNbLostPairs@@YAIPEBVPxSimulationStatistics@physx@@@Z 0000000180106e60 f i PxAutoGeneratedMetaDataObjects.obj
 0001:00105e70       ?getPxSimulationStatisticsNbLostTouches@@YAIPEBVPxSimulationStatistics@physx@@@Z 0000000180106e70 f i PxAutoGeneratedMetaDataObjects.obj
 0001:00105e80       ?getPxSimulationStatisticsNbNewPairs@@YAIPEBVPxSimulationStatistics@physx@@@Z 0000000180106e80 f i PxAutoGeneratedMetaDataObjects.obj
 0001:00105e90       ?getPxSimulationStatisticsNbNewTouches@@YAIPEBVPxSimulationStatistics@physx@@@Z 0000000180106e90 f i PxAutoGeneratedMetaDataObjects.obj
 0001:00105ea0       ?getPxSimulationStatisticsNbPartitions@@YAIPEBVPxSimulationStatistics@physx@@@Z 0000000180106ea0 f i PxAutoGeneratedMetaDataObjects.obj
 0001:00105eb0       ?getPxSimulationStatisticsNbStaticBodies@@YAIPEBVPxSimulationStatistics@physx@@@Z 0000000180106eb0 f i PxAutoGeneratedMetaDataObjects.obj
 0001:00105ec0       ?getPxSimulationStatisticsParticlesGpuMeshCacheHitrate@@YAMPEBVPxSimulationStatistics@physx@@@Z 0000000180106ec0 f i PxAutoGeneratedMetaDataObjects.obj
 0001:00105ed0       ?getPxSimulationStatisticsParticlesGpuMeshCacheSize@@YAIPEBVPxSimulationStatistics@physx@@@Z 0000000180106ed0 f i PxAutoGeneratedMetaDataObjects.obj
 0001:00105ee0       ?getPxSimulationStatisticsParticlesGpuMeshCacheUsed@@YAIPEBVPxSimulationStatistics@physx@@@Z 0000000180106ee0 f i PxAutoGeneratedMetaDataObjects.obj
 0001:00105ef0       ?getPxSimulationStatisticsPeakConstraintMemory@@YAIPEBVPxSimulationStatistics@physx@@@Z 0000000180106ef0 f i PxAutoGeneratedMetaDataObjects.obj
 0001:00105f00       ?getPxSimulationStatisticsRequiredContactConstraintMemory@@YAIPEBVPxSimulationStatistics@physx@@@Z 0000000180106f00 f i PxAutoGeneratedMetaDataObjects.obj
 0001:00105f10       ?getPxSphereGeometryRadius@@YAMPEBVPxSphereGeometry@physx@@@Z 0000000180106f10 f i PxAutoGeneratedMetaDataObjects.obj
 0001:00105f20       ?getPxTolerancesScaleLength@@YAMPEBVPxTolerancesScale@physx@@@Z 0000000180106f20 f i PxAutoGeneratedMetaDataObjects.obj
 0001:00105f30       ?getPxTolerancesScaleMass@@YAMPEBVPxTolerancesScale@physx@@@Z 0000000180106f30 f i PxAutoGeneratedMetaDataObjects.obj
 0001:00105f40       ?getPxTolerancesScaleSpeed@@YAMPEBVPxTolerancesScale@physx@@@Z 0000000180106f40 f i PxAutoGeneratedMetaDataObjects.obj
 0001:00105f50       ?getPxTriangleMeshGeometryMeshFlags@@YA?AV?$PxFlags@W4Enum@PxMeshGeometryFlag@physx@@E@physx@@PEBVPxTriangleMeshGeometry@2@@Z 0000000180106f50 f i PxAutoGeneratedMetaDataObjects.obj
 0001:00105f60       ?getPxTriangleMeshGeometryScale@@YA?AVPxMeshScale@physx@@PEBVPxTriangleMeshGeometry@2@@Z 0000000180106f60 f i PxAutoGeneratedMetaDataObjects.obj
 0001:00105fa0       ?getPxTriangleMeshGeometryTriangleMesh@@YAPEAVPxTriangleMesh@physx@@PEBVPxTriangleMeshGeometry@2@@Z 0000000180106fa0 f i PxAutoGeneratedMetaDataObjects.obj
 0001:00105fb0       ?getPxgDynamicsMemoryConfigConstraintBufferCapacity@@YAIPEBUPxgDynamicsMemoryConfig@physx@@@Z 0000000180106fb0 f i PxAutoGeneratedMetaDataObjects.obj
 0001:00105fc0       ?getPxgDynamicsMemoryConfigContactBufferCapacity@@YAIPEBUPxgDynamicsMemoryConfig@physx@@@Z 0000000180106fc0 f i PxAutoGeneratedMetaDataObjects.obj
 0001:00105fd0       ?getPxgDynamicsMemoryConfigContactStreamSize@@YAIPEBUPxgDynamicsMemoryConfig@physx@@@Z 0000000180106fd0 f i PxAutoGeneratedMetaDataObjects.obj
 0001:00105fe0       ?getPxgDynamicsMemoryConfigForceStreamCapacity@@YAIPEBUPxgDynamicsMemoryConfig@physx@@@Z 0000000180106fe0 f i PxAutoGeneratedMetaDataObjects.obj
 0001:00105ff0       ?getPxgDynamicsMemoryConfigFoundLostPairsCapacity@@YAIPEBUPxgDynamicsMemoryConfig@physx@@@Z 0000000180106ff0 f i PxAutoGeneratedMetaDataObjects.obj
 0001:00106000       ?getPxgDynamicsMemoryConfigHeapCapacity@@YAIPEBUPxgDynamicsMemoryConfig@physx@@@Z 0000000180107000 f i PxAutoGeneratedMetaDataObjects.obj
 0001:00106010       ?getPxgDynamicsMemoryConfigPatchStreamSize@@YAIPEBUPxgDynamicsMemoryConfig@physx@@@Z 0000000180107010 f i PxAutoGeneratedMetaDataObjects.obj
 0001:00106020       ?getPxgDynamicsMemoryConfigTempBufferCapacity@@YAIPEBUPxgDynamicsMemoryConfig@physx@@@Z 0000000180107020 f i PxAutoGeneratedMetaDataObjects.obj
 0001:00106030       ?setPxActorUserData@@YAXPEAVPxActor@physx@@PEAX@Z 0000000180107030 f i PxAutoGeneratedMetaDataObjects.obj
 0001:00106040       ?setPxArticulationUserData@@YAXPEAVPxArticulation@physx@@PEAX@Z 0000000180107040 f i PxAutoGeneratedMetaDataObjects.obj
 0001:00106050       ?setPxBoxGeometryHalfExtents@@YAXPEAVPxBoxGeometry@physx@@VPxVec3@2@@Z 0000000180107050 f i PxAutoGeneratedMetaDataObjects.obj
 0001:00106070       ?setPxCapsuleGeometryHalfHeight@@YAXPEAVPxCapsuleGeometry@physx@@M@Z 0000000180107070 f i PxAutoGeneratedMetaDataObjects.obj
 0001:00106080       ?setPxCapsuleGeometryRadius@@YAXPEAVPxCapsuleGeometry@physx@@M@Z 0000000180107080 f i PxAutoGeneratedMetaDataObjects.obj
 0001:00106090       ?setPxClothFabricPhasePhaseType@@YAXPEAUPxClothFabricPhase@physx@@W4Enum@PxClothFabricPhaseType@2@@Z 0000000180107090 f i PxAutoGeneratedMetaDataObjects.obj
 0001:001060a0       ?setPxClothFabricPhaseSetIndex@@YAXPEAUPxClothFabricPhase@physx@@I@Z 00000001801070a0 f i PxAutoGeneratedMetaDataObjects.obj
 0001:001060b0       ?setPxClothMotionConstraintConfigBias@@YAXPEAUPxClothMotionConstraintConfig@physx@@M@Z 00000001801070b0 f i PxAutoGeneratedMetaDataObjects.obj
 0001:001060c0       ?setPxClothMotionConstraintConfigScale@@YAXPEAUPxClothMotionConstraintConfig@physx@@M@Z 00000001801070c0 f i PxAutoGeneratedMetaDataObjects.obj
 0001:001060d0       ?setPxClothMotionConstraintConfigStiffness@@YAXPEAUPxClothMotionConstraintConfig@physx@@M@Z 00000001801070d0 f i PxAutoGeneratedMetaDataObjects.obj
 0001:001060e0       ?setPxClothParticleDataParticles@@YAXPEAVPxClothParticleData@physx@@PEAUPxClothParticle@2@@Z 00000001801070e0 f i PxAutoGeneratedMetaDataObjects.obj
 0001:001060f0       ?setPxClothParticleDataPreviousParticles@@YAXPEAVPxClothParticleData@physx@@PEAUPxClothParticle@2@@Z 00000001801070f0 f i PxAutoGeneratedMetaDataObjects.obj
 0001:00106100       ?setPxClothParticleInvWeight@@YAXPEAUPxClothParticle@physx@@M@Z 0000000180107100 f i PxAutoGeneratedMetaDataObjects.obj
 0001:00106110       ?setPxClothParticlePos@@YAXPEAUPxClothParticle@physx@@VPxVec3@2@@Z 0000000180107110 f i PxAutoGeneratedMetaDataObjects.obj
 0001:00106130       ?setPxClothStretchConfigCompressionLimit@@YAXPEAUPxClothStretchConfig@physx@@M@Z 0000000180107130 f i PxAutoGeneratedMetaDataObjects.obj
 0001:00106140       ?setPxClothStretchConfigStiffness@@YAXPEAUPxClothStretchConfig@physx@@M@Z 0000000180107140 f i PxAutoGeneratedMetaDataObjects.obj
 0001:00106150       ?setPxClothStretchConfigStiffnessMultiplier@@YAXPEAUPxClothStretchConfig@physx@@M@Z 0000000180107150 f i PxAutoGeneratedMetaDataObjects.obj
 0001:00106160       ?setPxClothStretchConfigStretchLimit@@YAXPEAUPxClothStretchConfig@physx@@M@Z 0000000180107160 f i PxAutoGeneratedMetaDataObjects.obj
 0001:00106170       ?setPxClothTetherConfigStiffness@@YAXPEAUPxClothTetherConfig@physx@@M@Z 0000000180107170 f i PxAutoGeneratedMetaDataObjects.obj
 0001:00106180       ?setPxClothTetherConfigStretchLimit@@YAXPEAUPxClothTetherConfig@physx@@M@Z 0000000180107180 f i PxAutoGeneratedMetaDataObjects.obj
 0001:00106190       ?setPxConvexMeshGeometryConvexMesh@@YAXPEAVPxConvexMeshGeometry@physx@@PEAVPxConvexMesh@2@@Z 0000000180107190 f i PxAutoGeneratedMetaDataObjects.obj
 0001:001061a0       ?setPxConvexMeshGeometryMaxMargin@@YAXPEAVPxConvexMeshGeometry@physx@@M@Z 00000001801071a0 f i PxAutoGeneratedMetaDataObjects.obj
 0001:001061b0       ?setPxConvexMeshGeometryMeshFlags@@YAXPEAVPxConvexMeshGeometry@physx@@V?$PxFlags@W4Enum@PxConvexMeshGeometryFlag@physx@@E@2@@Z 00000001801071b0 f i PxAutoGeneratedMetaDataObjects.obj
 0001:001061c0       ?setPxConvexMeshGeometryScale@@YAXPEAVPxConvexMeshGeometry@physx@@VPxMeshScale@2@@Z 00000001801071c0 f i PxAutoGeneratedMetaDataObjects.obj
 0001:00106200       ?setPxHeightFieldDescConvexEdgeThreshold@@YAXPEAVPxHeightFieldDesc@physx@@M@Z 0000000180107200 f i PxAutoGeneratedMetaDataObjects.obj
 0001:00106210       ?setPxHeightFieldDescFlags@@YAXPEAVPxHeightFieldDesc@physx@@V?$PxFlags@W4Enum@PxHeightFieldFlag@physx@@G@2@@Z 0000000180107210 f i PxAutoGeneratedMetaDataObjects.obj
 0001:00106220       ?setPxHeightFieldDescFormat@@YAXPEAVPxHeightFieldDesc@physx@@W4Enum@PxHeightFieldFormat@2@@Z 0000000180107220 f i PxAutoGeneratedMetaDataObjects.obj
 0001:00106230       ?setPxHeightFieldDescNbColumns@@YAXPEAVPxHeightFieldDesc@physx@@I@Z 0000000180107230 f i PxAutoGeneratedMetaDataObjects.obj
 0001:00106240       ?setPxHeightFieldDescNbRows@@YAXPEAVPxHeightFieldDesc@physx@@I@Z 0000000180107240 f i PxAutoGeneratedMetaDataObjects.obj
 0001:00106250       ?setPxHeightFieldDescSamples@@YAXPEAVPxHeightFieldDesc@physx@@UPxStridedData@2@@Z 0000000180107250 f i PxAutoGeneratedMetaDataObjects.obj
 0001:00106260       ?setPxHeightFieldDescThickness@@YAXPEAVPxHeightFieldDesc@physx@@M@Z 0000000180107260 f i PxAutoGeneratedMetaDataObjects.obj
 0001:00106270       ?setPxHeightFieldGeometryColumnScale@@YAXPEAVPxHeightFieldGeometry@physx@@M@Z 0000000180107270 f i PxAutoGeneratedMetaDataObjects.obj
 0001:00106280       ?setPxHeightFieldGeometryHeightField@@YAXPEAVPxHeightFieldGeometry@physx@@PEAVPxHeightField@2@@Z 0000000180107280 f i PxAutoGeneratedMetaDataObjects.obj
 0001:00106290       ?setPxHeightFieldGeometryHeightFieldFlags@@YAXPEAVPxHeightFieldGeometry@physx@@V?$PxFlags@W4Enum@PxMeshGeometryFlag@physx@@E@2@@Z 0000000180107290 f i PxAutoGeneratedMetaDataObjects.obj
 0001:001062a0       ?setPxHeightFieldGeometryHeightScale@@YAXPEAVPxHeightFieldGeometry@physx@@M@Z 00000001801072a0 f i PxAutoGeneratedMetaDataObjects.obj
 0001:001062b0       ?setPxHeightFieldGeometryRowScale@@YAXPEAVPxHeightFieldGeometry@physx@@M@Z 00000001801072b0 f i PxAutoGeneratedMetaDataObjects.obj
 0001:001062c0       ?setPxMaterialUserData@@YAXPEAVPxMaterial@physx@@PEAX@Z 00000001801072c0 f i PxAutoGeneratedMetaDataObjects.obj
 0001:001062d0       ?setPxMeshScaleRotation@@YAXPEAVPxMeshScale@physx@@VPxQuat@2@@Z 00000001801072d0 f i PxAutoGeneratedMetaDataObjects.obj
 0001:001062f0       ?setPxMeshScaleScale@@YAXPEAVPxMeshScale@physx@@VPxVec3@2@@Z 00000001801072f0 f i PxAutoGeneratedMetaDataObjects.obj
 0001:00106310       ?setPxParticleReadDataCollisionNormalBuffer@@YAXPEAVPxParticleReadData@physx@@V?$PxStrideIterator@$$CBVPxVec3@physx@@@2@@Z 0000000180107310 f i PxAutoGeneratedMetaDataObjects.obj
 0001:00106320       ?setPxParticleReadDataCollisionVelocityBuffer@@YAXPEAVPxParticleReadData@physx@@V?$PxStrideIterator@$$CBVPxVec3@physx@@@2@@Z 0000000180107320 f i PxAutoGeneratedMetaDataObjects.obj
 0001:00106330       ?setPxParticleReadDataFlagsBuffer@@YAXPEAVPxParticleReadData@physx@@V?$PxStrideIterator@$$CBV?$PxFlags@W4Enum@PxParticleFlag@physx@@G@physx@@@2@@Z 0000000180107330 f i PxAutoGeneratedMetaDataObjects.obj
 0001:00106340       ?setPxParticleReadDataNbValidParticles@@YAXPEAVPxParticleReadData@physx@@I@Z 0000000180107340 f i PxAutoGeneratedMetaDataObjects.obj
 0001:00106350       ?setPxParticleReadDataPositionBuffer@@YAXPEAVPxParticleReadData@physx@@V?$PxStrideIterator@$$CBVPxVec3@physx@@@2@@Z 0000000180107350 f i PxAutoGeneratedMetaDataObjects.obj
 0001:00106360       ?setPxParticleReadDataRestOffsetBuffer@@YAXPEAVPxParticleReadData@physx@@V?$PxStrideIterator@$$CBM@2@@Z 0000000180107360 f i PxAutoGeneratedMetaDataObjects.obj
 0001:00106370       ?setPxParticleReadDataValidParticleBitmap@@YAXPEAVPxParticleReadData@physx@@PEBI@Z 0000000180107370 f i PxAutoGeneratedMetaDataObjects.obj
 0001:00106380       ?setPxParticleReadDataValidParticleRange@@YAXPEAVPxParticleReadData@physx@@I@Z 0000000180107380 f i PxAutoGeneratedMetaDataObjects.obj
 0001:00106390       ?setPxParticleReadDataVelocityBuffer@@YAXPEAVPxParticleReadData@physx@@V?$PxStrideIterator@$$CBVPxVec3@physx@@@2@@Z 0000000180107390 f i PxAutoGeneratedMetaDataObjects.obj
 0001:001063a0       ?setPxSceneDescBounceThresholdVelocity@@YAXPEAVPxSceneDesc@physx@@M@Z 00000001801073a0 f i PxAutoGeneratedMetaDataObjects.obj
 0001:001063b0       ?setPxSceneDescBroadPhaseCallback@@YAXPEAVPxSceneDesc@physx@@PEAVPxBroadPhaseCallback@2@@Z 00000001801073b0 f i PxAutoGeneratedMetaDataObjects.obj
 0001:001063c0       ?setPxSceneDescBroadPhaseType@@YAXPEAVPxSceneDesc@physx@@W4Enum@PxBroadPhaseType@2@@Z 00000001801073c0 f i PxAutoGeneratedMetaDataObjects.obj
 0001:001063d0       ?setPxSceneDescCcdContactModifyCallback@@YAXPEAVPxSceneDesc@physx@@PEAVPxCCDContactModifyCallback@2@@Z 00000001801073d0 f i PxAutoGeneratedMetaDataObjects.obj
 0001:001063e0       ?setPxSceneDescCcdMaxPasses@@YAXPEAVPxSceneDesc@physx@@I@Z 00000001801073e0 f i PxAutoGeneratedMetaDataObjects.obj
 0001:001063f0       ?setPxSceneDescCcdMaxSeparation@@YAXPEAVPxSceneDesc@physx@@M@Z 00000001801073f0 f i PxAutoGeneratedMetaDataObjects.obj
 0001:00106400       ?setPxSceneDescContactModifyCallback@@YAXPEAVPxSceneDesc@physx@@PEAVPxContactModifyCallback@2@@Z 0000000180107400 f i PxAutoGeneratedMetaDataObjects.obj
 0001:00106410       ?setPxSceneDescContactReportStreamBufferSize@@YAXPEAVPxSceneDesc@physx@@I@Z 0000000180107410 f i PxAutoGeneratedMetaDataObjects.obj
 0001:00106420       ?setPxSceneDescCpuDispatcher@@YAXPEAVPxSceneDesc@physx@@PEAVPxCpuDispatcher@2@@Z 0000000180107420 f i PxAutoGeneratedMetaDataObjects.obj
 0001:00106430       ?setPxSceneDescDynamicStructure@@YAXPEAVPxSceneDesc@physx@@W4Enum@PxPruningStructureType@2@@Z 0000000180107430 f i PxAutoGeneratedMetaDataObjects.obj
 0001:00106440       ?setPxSceneDescDynamicTreeRebuildRateHint@@YAXPEAVPxSceneDesc@physx@@I@Z 0000000180107440 f i PxAutoGeneratedMetaDataObjects.obj
 0001:00106450       ?setPxSceneDescFilterCallback@@YAXPEAVPxSceneDesc@physx@@PEAVPxSimulationFilterCallback@2@@Z 0000000180107450 f i PxAutoGeneratedMetaDataObjects.obj
 0001:00106460       ?setPxSceneDescFilterShader@@YAXPEAVPxSceneDesc@physx@@P6A?AV?$PxFlags@W4Enum@PxFilterFlag@physx@@G@2@IUPxFilterData@2@I1AEAV?$PxFlags@W4Enum@PxPairFlag@physx@@G@2@PEBXI@Z@Z 0000000180107460 f i PxAutoGeneratedMetaDataObjects.obj
 0001:00106470       ?setPxSceneDescFilterShaderData@@YAXPEAVPxSceneDesc@physx@@PEBX@Z 0000000180107470 f i PxAutoGeneratedMetaDataObjects.obj
 0001:00106480       ?setPxSceneDescFilterShaderDataSize@@YAXPEAVPxSceneDesc@physx@@I@Z 0000000180107480 f i PxAutoGeneratedMetaDataObjects.obj
 0001:00106490       ?setPxSceneDescFlags@@YAXPEAVPxSceneDesc@physx@@V?$PxFlags@W4Enum@PxSceneFlag@physx@@I@2@@Z 0000000180107490 f i PxAutoGeneratedMetaDataObjects.obj
 0001:001064a0       ?setPxSceneDescFrictionOffsetThreshold@@YAXPEAVPxSceneDesc@physx@@M@Z 00000001801074a0 f i PxAutoGeneratedMetaDataObjects.obj
 0001:001064b0       ?setPxSceneDescFrictionType@@YAXPEAVPxSceneDesc@physx@@W4Enum@PxFrictionType@2@@Z 00000001801074b0 f i PxAutoGeneratedMetaDataObjects.obj
 0001:001064c0       ?setPxSceneDescGpuComputeVersion@@YAXPEAVPxSceneDesc@physx@@I@Z 00000001801074c0 f i PxAutoGeneratedMetaDataObjects.obj
 0001:001064d0       ?setPxSceneDescGpuDispatcher@@YAXPEAVPxSceneDesc@physx@@PEAVPxGpuDispatcher@2@@Z 00000001801074d0 f i PxAutoGeneratedMetaDataObjects.obj
 0001:001064e0       ?setPxSceneDescGpuDynamicsConfig@@YAXPEAVPxSceneDesc@physx@@UPxgDynamicsMemoryConfig@2@@Z 00000001801074e0 f i PxAutoGeneratedMetaDataObjects.obj
 0001:00106500       ?setPxSceneDescGpuMaxNumPartitions@@YAXPEAVPxSceneDesc@physx@@I@Z 0000000180107500 f i PxAutoGeneratedMetaDataObjects.obj
 0001:00106510       ?setPxSceneDescGravity@@YAXPEAVPxSceneDesc@physx@@VPxVec3@2@@Z 0000000180107510 f i PxAutoGeneratedMetaDataObjects.obj
 0001:00106530       ?setPxSceneDescLimits@@YAXPEAVPxSceneDesc@physx@@VPxSceneLimits@2@@Z 0000000180107530 f i PxAutoGeneratedMetaDataObjects.obj
 0001:00106550       ?setPxSceneDescMaxBiasCoefficient@@YAXPEAVPxSceneDesc@physx@@M@Z 0000000180107550 f i PxAutoGeneratedMetaDataObjects.obj
 0001:00106560       ?setPxSceneDescMaxNbContactDataBlocks@@YAXPEAVPxSceneDesc@physx@@I@Z 0000000180107560 f i PxAutoGeneratedMetaDataObjects.obj
 0001:00106570       ?setPxSceneDescNbContactDataBlocks@@YAXPEAVPxSceneDesc@physx@@I@Z 0000000180107570 f i PxAutoGeneratedMetaDataObjects.obj
 0001:00106580       ?setPxSceneDescSanityBounds@@YAXPEAVPxSceneDesc@physx@@VPxBounds3@2@@Z 0000000180107580 f i PxAutoGeneratedMetaDataObjects.obj
 0001:001065d0       ?setPxSceneDescSimulationEventCallback@@YAXPEAVPxSceneDesc@physx@@PEAVPxSimulationEventCallback@2@@Z 00000001801075d0 f i PxAutoGeneratedMetaDataObjects.obj
 0001:001065e0       ?setPxSceneDescSolverBatchSize@@YAXPEAVPxSceneDesc@physx@@I@Z 00000001801075e0 f i PxAutoGeneratedMetaDataObjects.obj
 0001:001065f0       ?setPxSceneDescSolverOffsetSlop@@YAXPEAVPxSceneDesc@physx@@M@Z 00000001801075f0 f i PxAutoGeneratedMetaDataObjects.obj
 0001:00106600       ?setPxSceneDescStaticStructure@@YAXPEAVPxSceneDesc@physx@@W4Enum@PxPruningStructureType@2@@Z 0000000180107600 f i PxAutoGeneratedMetaDataObjects.obj
 0001:00106610       ?setPxSceneDescUserData@@YAXPEAVPxSceneDesc@physx@@PEAX@Z 0000000180107610 f i PxAutoGeneratedMetaDataObjects.obj
 0001:00106620       ?setPxSceneDescWakeCounterResetValue@@YAXPEAVPxSceneDesc@physx@@M@Z 0000000180107620 f i PxAutoGeneratedMetaDataObjects.obj
 0001:00106630       ?setPxSceneLimitsMaxNbActors@@YAXPEAVPxSceneLimits@physx@@I@Z 0000000180107630 f i PxAutoGeneratedMetaDataObjects.obj
 0001:00106640       ?setPxSceneLimitsMaxNbAggregates@@YAXPEAVPxSceneLimits@physx@@I@Z 0000000180107640 f i PxAutoGeneratedMetaDataObjects.obj
 0001:00106650       ?setPxSceneLimitsMaxNbBodies@@YAXPEAVPxSceneLimits@physx@@I@Z 0000000180107650 f i PxAutoGeneratedMetaDataObjects.obj
 0001:00106660       ?setPxSceneLimitsMaxNbBroadPhaseOverlaps@@YAXPEAVPxSceneLimits@physx@@I@Z 0000000180107660 f i PxAutoGeneratedMetaDataObjects.obj
 0001:00106670       ?setPxSceneLimitsMaxNbConstraints@@YAXPEAVPxSceneLimits@physx@@I@Z 0000000180107670 f i PxAutoGeneratedMetaDataObjects.obj
 0001:00106680       ?setPxSceneLimitsMaxNbDynamicShapes@@YAXPEAVPxSceneLimits@physx@@I@Z 0000000180107680 f i PxAutoGeneratedMetaDataObjects.obj
 0001:00106690       ?setPxSceneLimitsMaxNbObjectsPerRegion@@YAXPEAVPxSceneLimits@physx@@I@Z 0000000180107690 f i PxAutoGeneratedMetaDataObjects.obj
 0001:001066a0       ?setPxSceneLimitsMaxNbRegions@@YAXPEAVPxSceneLimits@physx@@I@Z 00000001801076a0 f i PxAutoGeneratedMetaDataObjects.obj
 0001:001066b0       ?setPxSceneLimitsMaxNbStaticShapes@@YAXPEAVPxSceneLimits@physx@@I@Z 00000001801076b0 f i PxAutoGeneratedMetaDataObjects.obj
 0001:001066c0       ?setPxSceneUserData@@YAXPEAVPxScene@physx@@PEAX@Z 00000001801076c0 f i PxAutoGeneratedMetaDataObjects.obj
 0001:001066d0       ?setPxShapeUserData@@YAXPEAVPxShape@physx@@PEAX@Z 00000001801076d0 f i PxAutoGeneratedMetaDataObjects.obj
 0001:001066e0       ?setPxSimulationStatisticsCompressedContactSize@@YAXPEAVPxSimulationStatistics@physx@@I@Z 00000001801076e0 f i PxAutoGeneratedMetaDataObjects.obj
 0001:001066f0       ?setPxSimulationStatisticsNbActiveConstraints@@YAXPEAVPxSimulationStatistics@physx@@I@Z 00000001801076f0 f i PxAutoGeneratedMetaDataObjects.obj
 0001:00106700       ?setPxSimulationStatisticsNbActiveDynamicBodies@@YAXPEAVPxSimulationStatistics@physx@@I@Z 0000000180107700 f i PxAutoGeneratedMetaDataObjects.obj
 0001:00106710       ?setPxSimulationStatisticsNbActiveKinematicBodies@@YAXPEAVPxSimulationStatistics@physx@@I@Z 0000000180107710 f i PxAutoGeneratedMetaDataObjects.obj
 0001:00106720       ?setPxSimulationStatisticsNbAggregates@@YAXPEAVPxSimulationStatistics@physx@@I@Z 0000000180107720 f i PxAutoGeneratedMetaDataObjects.obj
 0001:00106730       ?setPxSimulationStatisticsNbArticulations@@YAXPEAVPxSimulationStatistics@physx@@I@Z 0000000180107730 f i PxAutoGeneratedMetaDataObjects.obj
 0001:00106740       ?setPxSimulationStatisticsNbAxisSolverConstraints@@YAXPEAVPxSimulationStatistics@physx@@I@Z 0000000180107740 f i PxAutoGeneratedMetaDataObjects.obj
 0001:00106750       ?setPxSimulationStatisticsNbDiscreteContactPairsTotal@@YAXPEAVPxSimulationStatistics@physx@@I@Z 0000000180107750 f i PxAutoGeneratedMetaDataObjects.obj
 0001:00106760       ?setPxSimulationStatisticsNbDiscreteContactPairsWithCacheHits@@YAXPEAVPxSimulationStatistics@physx@@I@Z 0000000180107760 f i PxAutoGeneratedMetaDataObjects.obj
 0001:00106770       ?setPxSimulationStatisticsNbDiscreteContactPairsWithContacts@@YAXPEAVPxSimulationStatistics@physx@@I@Z 0000000180107770 f i PxAutoGeneratedMetaDataObjects.obj
 0001:00106780       ?setPxSimulationStatisticsNbDynamicBodies@@YAXPEAVPxSimulationStatistics@physx@@I@Z 0000000180107780 f i PxAutoGeneratedMetaDataObjects.obj
 0001:00106790       ?setPxSimulationStatisticsNbLostPairs@@YAXPEAVPxSimulationStatistics@physx@@I@Z 0000000180107790 f i PxAutoGeneratedMetaDataObjects.obj
 0001:001067a0       ?setPxSimulationStatisticsNbLostTouches@@YAXPEAVPxSimulationStatistics@physx@@I@Z 00000001801077a0 f i PxAutoGeneratedMetaDataObjects.obj
 0001:001067b0       ?setPxSimulationStatisticsNbNewPairs@@YAXPEAVPxSimulationStatistics@physx@@I@Z 00000001801077b0 f i PxAutoGeneratedMetaDataObjects.obj
 0001:001067c0       ?setPxSimulationStatisticsNbNewTouches@@YAXPEAVPxSimulationStatistics@physx@@I@Z 00000001801077c0 f i PxAutoGeneratedMetaDataObjects.obj
 0001:001067d0       ?setPxSimulationStatisticsNbPartitions@@YAXPEAVPxSimulationStatistics@physx@@I@Z 00000001801077d0 f i PxAutoGeneratedMetaDataObjects.obj
 0001:001067e0       ?setPxSimulationStatisticsNbStaticBodies@@YAXPEAVPxSimulationStatistics@physx@@I@Z 00000001801077e0 f i PxAutoGeneratedMetaDataObjects.obj
 0001:001067f0       ?setPxSimulationStatisticsParticlesGpuMeshCacheHitrate@@YAXPEAVPxSimulationStatistics@physx@@M@Z 00000001801077f0 f i PxAutoGeneratedMetaDataObjects.obj
 0001:00106800       ?setPxSimulationStatisticsParticlesGpuMeshCacheSize@@YAXPEAVPxSimulationStatistics@physx@@I@Z 0000000180107800 f i PxAutoGeneratedMetaDataObjects.obj
